
C1V1-Konwerter.elf:     file format elf32-littlearm

Sections:
Idx Name          Size      VMA       LMA       File off  Algn
  0 .isr_vector   000000b8  08000000  08000000  00010000  2**0
                  CONTENTS, ALLOC, LOAD, READONLY, DATA
  1 .text         00003ed8  080000b8  080000b8  000100b8  2**2
                  CONTENTS, ALLOC, LOAD, READONLY, CODE
  2 .rodata       000001f4  08003f90  08003f90  00013f90  2**2
                  CONTENTS, ALLOC, LOAD, READONLY, DATA
  3 .ARM.extab    00000000  08004184  08004184  000200f4  2**0
                  CONTENTS
  4 .ARM          00000000  08004184  08004184  000200f4  2**0
                  CONTENTS
  5 .preinit_array 00000000  08004184  08004184  000200f4  2**0
                  CONTENTS, ALLOC, LOAD, DATA
  6 .init_array   00000004  08004184  08004184  00014184  2**2
                  CONTENTS, ALLOC, LOAD, DATA
  7 .fini_array   00000004  08004188  08004188  00014188  2**2
                  CONTENTS, ALLOC, LOAD, DATA
  8 .data         000000f4  20000000  0800418c  00020000  2**2
                  CONTENTS, ALLOC, LOAD, DATA
  9 .bss          0000026c  200000f4  08004280  000200f4  2**2
                  ALLOC
 10 ._user_heap_stack 00000a00  20000360  08004280  00020360  2**0
                  ALLOC
 11 .ARM.attributes 00000028  00000000  00000000  000200f4  2**0
                  CONTENTS, READONLY
 12 .debug_info   0001cb45  00000000  00000000  0002011c  2**0
                  CONTENTS, READONLY, DEBUGGING, OCTETS
 13 .debug_abbrev 00003a1d  00000000  00000000  0003cc61  2**0
                  CONTENTS, READONLY, DEBUGGING, OCTETS
 14 .debug_loc    000136fa  00000000  00000000  0004067e  2**0
                  CONTENTS, READONLY, DEBUGGING, OCTETS
 15 .debug_aranges 000011d8  00000000  00000000  00053d78  2**3
                  CONTENTS, READONLY, DEBUGGING, OCTETS
 16 .debug_ranges 000010b8  00000000  00000000  00054f50  2**3
                  CONTENTS, READONLY, DEBUGGING, OCTETS
 17 .debug_macro  0001840d  00000000  00000000  00056008  2**0
                  CONTENTS, READONLY, DEBUGGING, OCTETS
 18 .debug_line   0001fc9a  00000000  00000000  0006e415  2**0
                  CONTENTS, READONLY, DEBUGGING, OCTETS
 19 .debug_str    00093691  00000000  00000000  0008e0af  2**0
                  CONTENTS, READONLY, DEBUGGING, OCTETS
 20 .comment      00000050  00000000  00000000  00121740  2**0
                  CONTENTS, READONLY
 21 .debug_frame  00003280  00000000  00000000  00121790  2**2
                  CONTENTS, READONLY, DEBUGGING, OCTETS

Disassembly of section .text:

080000b8 <__do_global_dtors_aux>:
 80000b8:	b510      	push	{r4, lr}
 80000ba:	4c06      	ldr	r4, [pc, #24]	; (80000d4 <__do_global_dtors_aux+0x1c>)
 80000bc:	7823      	ldrb	r3, [r4, #0]
 80000be:	2b00      	cmp	r3, #0
 80000c0:	d107      	bne.n	80000d2 <__do_global_dtors_aux+0x1a>
 80000c2:	4b05      	ldr	r3, [pc, #20]	; (80000d8 <__do_global_dtors_aux+0x20>)
 80000c4:	2b00      	cmp	r3, #0
 80000c6:	d002      	beq.n	80000ce <__do_global_dtors_aux+0x16>
 80000c8:	4804      	ldr	r0, [pc, #16]	; (80000dc <__do_global_dtors_aux+0x24>)
 80000ca:	e000      	b.n	80000ce <__do_global_dtors_aux+0x16>
 80000cc:	bf00      	nop
 80000ce:	2301      	movs	r3, #1
 80000d0:	7023      	strb	r3, [r4, #0]
 80000d2:	bd10      	pop	{r4, pc}
 80000d4:	200000f4 	.word	0x200000f4
 80000d8:	00000000 	.word	0x00000000
 80000dc:	08003f78 	.word	0x08003f78

080000e0 <frame_dummy>:
 80000e0:	4b04      	ldr	r3, [pc, #16]	; (80000f4 <frame_dummy+0x14>)
 80000e2:	b510      	push	{r4, lr}
 80000e4:	2b00      	cmp	r3, #0
 80000e6:	d003      	beq.n	80000f0 <frame_dummy+0x10>
 80000e8:	4903      	ldr	r1, [pc, #12]	; (80000f8 <frame_dummy+0x18>)
 80000ea:	4804      	ldr	r0, [pc, #16]	; (80000fc <frame_dummy+0x1c>)
 80000ec:	e000      	b.n	80000f0 <frame_dummy+0x10>
 80000ee:	bf00      	nop
 80000f0:	bd10      	pop	{r4, pc}
 80000f2:	46c0      	nop			; (mov r8, r8)
 80000f4:	00000000 	.word	0x00000000
 80000f8:	200000f8 	.word	0x200000f8
 80000fc:	08003f78 	.word	0x08003f78

08000100 <__gnu_thumb1_case_shi>:
 8000100:	b403      	push	{r0, r1}
 8000102:	4671      	mov	r1, lr
 8000104:	0849      	lsrs	r1, r1, #1
 8000106:	0040      	lsls	r0, r0, #1
 8000108:	0049      	lsls	r1, r1, #1
 800010a:	5e09      	ldrsh	r1, [r1, r0]
 800010c:	0049      	lsls	r1, r1, #1
 800010e:	448e      	add	lr, r1
 8000110:	bc03      	pop	{r0, r1}
 8000112:	4770      	bx	lr

08000114 <__udivsi3>:
 8000114:	2200      	movs	r2, #0
 8000116:	0843      	lsrs	r3, r0, #1
 8000118:	428b      	cmp	r3, r1
 800011a:	d374      	bcc.n	8000206 <__udivsi3+0xf2>
 800011c:	0903      	lsrs	r3, r0, #4
 800011e:	428b      	cmp	r3, r1
 8000120:	d35f      	bcc.n	80001e2 <__udivsi3+0xce>
 8000122:	0a03      	lsrs	r3, r0, #8
 8000124:	428b      	cmp	r3, r1
 8000126:	d344      	bcc.n	80001b2 <__udivsi3+0x9e>
 8000128:	0b03      	lsrs	r3, r0, #12
 800012a:	428b      	cmp	r3, r1
 800012c:	d328      	bcc.n	8000180 <__udivsi3+0x6c>
 800012e:	0c03      	lsrs	r3, r0, #16
 8000130:	428b      	cmp	r3, r1
 8000132:	d30d      	bcc.n	8000150 <__udivsi3+0x3c>
 8000134:	22ff      	movs	r2, #255	; 0xff
 8000136:	0209      	lsls	r1, r1, #8
 8000138:	ba12      	rev	r2, r2
 800013a:	0c03      	lsrs	r3, r0, #16
 800013c:	428b      	cmp	r3, r1
 800013e:	d302      	bcc.n	8000146 <__udivsi3+0x32>
 8000140:	1212      	asrs	r2, r2, #8
 8000142:	0209      	lsls	r1, r1, #8
 8000144:	d065      	beq.n	8000212 <__udivsi3+0xfe>
 8000146:	0b03      	lsrs	r3, r0, #12
 8000148:	428b      	cmp	r3, r1
 800014a:	d319      	bcc.n	8000180 <__udivsi3+0x6c>
 800014c:	e000      	b.n	8000150 <__udivsi3+0x3c>
 800014e:	0a09      	lsrs	r1, r1, #8
 8000150:	0bc3      	lsrs	r3, r0, #15
 8000152:	428b      	cmp	r3, r1
 8000154:	d301      	bcc.n	800015a <__udivsi3+0x46>
 8000156:	03cb      	lsls	r3, r1, #15
 8000158:	1ac0      	subs	r0, r0, r3
 800015a:	4152      	adcs	r2, r2
 800015c:	0b83      	lsrs	r3, r0, #14
 800015e:	428b      	cmp	r3, r1
 8000160:	d301      	bcc.n	8000166 <__udivsi3+0x52>
 8000162:	038b      	lsls	r3, r1, #14
 8000164:	1ac0      	subs	r0, r0, r3
 8000166:	4152      	adcs	r2, r2
 8000168:	0b43      	lsrs	r3, r0, #13
 800016a:	428b      	cmp	r3, r1
 800016c:	d301      	bcc.n	8000172 <__udivsi3+0x5e>
 800016e:	034b      	lsls	r3, r1, #13
 8000170:	1ac0      	subs	r0, r0, r3
 8000172:	4152      	adcs	r2, r2
 8000174:	0b03      	lsrs	r3, r0, #12
 8000176:	428b      	cmp	r3, r1
 8000178:	d301      	bcc.n	800017e <__udivsi3+0x6a>
 800017a:	030b      	lsls	r3, r1, #12
 800017c:	1ac0      	subs	r0, r0, r3
 800017e:	4152      	adcs	r2, r2
 8000180:	0ac3      	lsrs	r3, r0, #11
 8000182:	428b      	cmp	r3, r1
 8000184:	d301      	bcc.n	800018a <__udivsi3+0x76>
 8000186:	02cb      	lsls	r3, r1, #11
 8000188:	1ac0      	subs	r0, r0, r3
 800018a:	4152      	adcs	r2, r2
 800018c:	0a83      	lsrs	r3, r0, #10
 800018e:	428b      	cmp	r3, r1
 8000190:	d301      	bcc.n	8000196 <__udivsi3+0x82>
 8000192:	028b      	lsls	r3, r1, #10
 8000194:	1ac0      	subs	r0, r0, r3
 8000196:	4152      	adcs	r2, r2
 8000198:	0a43      	lsrs	r3, r0, #9
 800019a:	428b      	cmp	r3, r1
 800019c:	d301      	bcc.n	80001a2 <__udivsi3+0x8e>
 800019e:	024b      	lsls	r3, r1, #9
 80001a0:	1ac0      	subs	r0, r0, r3
 80001a2:	4152      	adcs	r2, r2
 80001a4:	0a03      	lsrs	r3, r0, #8
 80001a6:	428b      	cmp	r3, r1
 80001a8:	d301      	bcc.n	80001ae <__udivsi3+0x9a>
 80001aa:	020b      	lsls	r3, r1, #8
 80001ac:	1ac0      	subs	r0, r0, r3
 80001ae:	4152      	adcs	r2, r2
 80001b0:	d2cd      	bcs.n	800014e <__udivsi3+0x3a>
 80001b2:	09c3      	lsrs	r3, r0, #7
 80001b4:	428b      	cmp	r3, r1
 80001b6:	d301      	bcc.n	80001bc <__udivsi3+0xa8>
 80001b8:	01cb      	lsls	r3, r1, #7
 80001ba:	1ac0      	subs	r0, r0, r3
 80001bc:	4152      	adcs	r2, r2
 80001be:	0983      	lsrs	r3, r0, #6
 80001c0:	428b      	cmp	r3, r1
 80001c2:	d301      	bcc.n	80001c8 <__udivsi3+0xb4>
 80001c4:	018b      	lsls	r3, r1, #6
 80001c6:	1ac0      	subs	r0, r0, r3
 80001c8:	4152      	adcs	r2, r2
 80001ca:	0943      	lsrs	r3, r0, #5
 80001cc:	428b      	cmp	r3, r1
 80001ce:	d301      	bcc.n	80001d4 <__udivsi3+0xc0>
 80001d0:	014b      	lsls	r3, r1, #5
 80001d2:	1ac0      	subs	r0, r0, r3
 80001d4:	4152      	adcs	r2, r2
 80001d6:	0903      	lsrs	r3, r0, #4
 80001d8:	428b      	cmp	r3, r1
 80001da:	d301      	bcc.n	80001e0 <__udivsi3+0xcc>
 80001dc:	010b      	lsls	r3, r1, #4
 80001de:	1ac0      	subs	r0, r0, r3
 80001e0:	4152      	adcs	r2, r2
 80001e2:	08c3      	lsrs	r3, r0, #3
 80001e4:	428b      	cmp	r3, r1
 80001e6:	d301      	bcc.n	80001ec <__udivsi3+0xd8>
 80001e8:	00cb      	lsls	r3, r1, #3
 80001ea:	1ac0      	subs	r0, r0, r3
 80001ec:	4152      	adcs	r2, r2
 80001ee:	0883      	lsrs	r3, r0, #2
 80001f0:	428b      	cmp	r3, r1
 80001f2:	d301      	bcc.n	80001f8 <__udivsi3+0xe4>
 80001f4:	008b      	lsls	r3, r1, #2
 80001f6:	1ac0      	subs	r0, r0, r3
 80001f8:	4152      	adcs	r2, r2
 80001fa:	0843      	lsrs	r3, r0, #1
 80001fc:	428b      	cmp	r3, r1
 80001fe:	d301      	bcc.n	8000204 <__udivsi3+0xf0>
 8000200:	004b      	lsls	r3, r1, #1
 8000202:	1ac0      	subs	r0, r0, r3
 8000204:	4152      	adcs	r2, r2
 8000206:	1a41      	subs	r1, r0, r1
 8000208:	d200      	bcs.n	800020c <__udivsi3+0xf8>
 800020a:	4601      	mov	r1, r0
 800020c:	4152      	adcs	r2, r2
 800020e:	4610      	mov	r0, r2
 8000210:	4770      	bx	lr
 8000212:	e7ff      	b.n	8000214 <__udivsi3+0x100>
 8000214:	b501      	push	{r0, lr}
 8000216:	2000      	movs	r0, #0
 8000218:	f000 f8f0 	bl	80003fc <__aeabi_idiv0>
 800021c:	bd02      	pop	{r1, pc}
 800021e:	46c0      	nop			; (mov r8, r8)

08000220 <__aeabi_uidivmod>:
 8000220:	2900      	cmp	r1, #0
 8000222:	d0f7      	beq.n	8000214 <__udivsi3+0x100>
 8000224:	e776      	b.n	8000114 <__udivsi3>
 8000226:	4770      	bx	lr

08000228 <__divsi3>:
 8000228:	4603      	mov	r3, r0
 800022a:	430b      	orrs	r3, r1
 800022c:	d47f      	bmi.n	800032e <__divsi3+0x106>
 800022e:	2200      	movs	r2, #0
 8000230:	0843      	lsrs	r3, r0, #1
 8000232:	428b      	cmp	r3, r1
 8000234:	d374      	bcc.n	8000320 <__divsi3+0xf8>
 8000236:	0903      	lsrs	r3, r0, #4
 8000238:	428b      	cmp	r3, r1
 800023a:	d35f      	bcc.n	80002fc <__divsi3+0xd4>
 800023c:	0a03      	lsrs	r3, r0, #8
 800023e:	428b      	cmp	r3, r1
 8000240:	d344      	bcc.n	80002cc <__divsi3+0xa4>
 8000242:	0b03      	lsrs	r3, r0, #12
 8000244:	428b      	cmp	r3, r1
 8000246:	d328      	bcc.n	800029a <__divsi3+0x72>
 8000248:	0c03      	lsrs	r3, r0, #16
 800024a:	428b      	cmp	r3, r1
 800024c:	d30d      	bcc.n	800026a <__divsi3+0x42>
 800024e:	22ff      	movs	r2, #255	; 0xff
 8000250:	0209      	lsls	r1, r1, #8
 8000252:	ba12      	rev	r2, r2
 8000254:	0c03      	lsrs	r3, r0, #16
 8000256:	428b      	cmp	r3, r1
 8000258:	d302      	bcc.n	8000260 <__divsi3+0x38>
 800025a:	1212      	asrs	r2, r2, #8
 800025c:	0209      	lsls	r1, r1, #8
 800025e:	d065      	beq.n	800032c <__divsi3+0x104>
 8000260:	0b03      	lsrs	r3, r0, #12
 8000262:	428b      	cmp	r3, r1
 8000264:	d319      	bcc.n	800029a <__divsi3+0x72>
 8000266:	e000      	b.n	800026a <__divsi3+0x42>
 8000268:	0a09      	lsrs	r1, r1, #8
 800026a:	0bc3      	lsrs	r3, r0, #15
 800026c:	428b      	cmp	r3, r1
 800026e:	d301      	bcc.n	8000274 <__divsi3+0x4c>
 8000270:	03cb      	lsls	r3, r1, #15
 8000272:	1ac0      	subs	r0, r0, r3
 8000274:	4152      	adcs	r2, r2
 8000276:	0b83      	lsrs	r3, r0, #14
 8000278:	428b      	cmp	r3, r1
 800027a:	d301      	bcc.n	8000280 <__divsi3+0x58>
 800027c:	038b      	lsls	r3, r1, #14
 800027e:	1ac0      	subs	r0, r0, r3
 8000280:	4152      	adcs	r2, r2
 8000282:	0b43      	lsrs	r3, r0, #13
 8000284:	428b      	cmp	r3, r1
 8000286:	d301      	bcc.n	800028c <__divsi3+0x64>
 8000288:	034b      	lsls	r3, r1, #13
 800028a:	1ac0      	subs	r0, r0, r3
 800028c:	4152      	adcs	r2, r2
 800028e:	0b03      	lsrs	r3, r0, #12
 8000290:	428b      	cmp	r3, r1
 8000292:	d301      	bcc.n	8000298 <__divsi3+0x70>
 8000294:	030b      	lsls	r3, r1, #12
 8000296:	1ac0      	subs	r0, r0, r3
 8000298:	4152      	adcs	r2, r2
 800029a:	0ac3      	lsrs	r3, r0, #11
 800029c:	428b      	cmp	r3, r1
 800029e:	d301      	bcc.n	80002a4 <__divsi3+0x7c>
 80002a0:	02cb      	lsls	r3, r1, #11
 80002a2:	1ac0      	subs	r0, r0, r3
 80002a4:	4152      	adcs	r2, r2
 80002a6:	0a83      	lsrs	r3, r0, #10
 80002a8:	428b      	cmp	r3, r1
 80002aa:	d301      	bcc.n	80002b0 <__divsi3+0x88>
 80002ac:	028b      	lsls	r3, r1, #10
 80002ae:	1ac0      	subs	r0, r0, r3
 80002b0:	4152      	adcs	r2, r2
 80002b2:	0a43      	lsrs	r3, r0, #9
 80002b4:	428b      	cmp	r3, r1
 80002b6:	d301      	bcc.n	80002bc <__divsi3+0x94>
 80002b8:	024b      	lsls	r3, r1, #9
 80002ba:	1ac0      	subs	r0, r0, r3
 80002bc:	4152      	adcs	r2, r2
 80002be:	0a03      	lsrs	r3, r0, #8
 80002c0:	428b      	cmp	r3, r1
 80002c2:	d301      	bcc.n	80002c8 <__divsi3+0xa0>
 80002c4:	020b      	lsls	r3, r1, #8
 80002c6:	1ac0      	subs	r0, r0, r3
 80002c8:	4152      	adcs	r2, r2
 80002ca:	d2cd      	bcs.n	8000268 <__divsi3+0x40>
 80002cc:	09c3      	lsrs	r3, r0, #7
 80002ce:	428b      	cmp	r3, r1
 80002d0:	d301      	bcc.n	80002d6 <__divsi3+0xae>
 80002d2:	01cb      	lsls	r3, r1, #7
 80002d4:	1ac0      	subs	r0, r0, r3
 80002d6:	4152      	adcs	r2, r2
 80002d8:	0983      	lsrs	r3, r0, #6
 80002da:	428b      	cmp	r3, r1
 80002dc:	d301      	bcc.n	80002e2 <__divsi3+0xba>
 80002de:	018b      	lsls	r3, r1, #6
 80002e0:	1ac0      	subs	r0, r0, r3
 80002e2:	4152      	adcs	r2, r2
 80002e4:	0943      	lsrs	r3, r0, #5
 80002e6:	428b      	cmp	r3, r1
 80002e8:	d301      	bcc.n	80002ee <__divsi3+0xc6>
 80002ea:	014b      	lsls	r3, r1, #5
 80002ec:	1ac0      	subs	r0, r0, r3
 80002ee:	4152      	adcs	r2, r2
 80002f0:	0903      	lsrs	r3, r0, #4
 80002f2:	428b      	cmp	r3, r1
 80002f4:	d301      	bcc.n	80002fa <__divsi3+0xd2>
 80002f6:	010b      	lsls	r3, r1, #4
 80002f8:	1ac0      	subs	r0, r0, r3
 80002fa:	4152      	adcs	r2, r2
 80002fc:	08c3      	lsrs	r3, r0, #3
 80002fe:	428b      	cmp	r3, r1
 8000300:	d301      	bcc.n	8000306 <__divsi3+0xde>
 8000302:	00cb      	lsls	r3, r1, #3
 8000304:	1ac0      	subs	r0, r0, r3
 8000306:	4152      	adcs	r2, r2
 8000308:	0883      	lsrs	r3, r0, #2
 800030a:	428b      	cmp	r3, r1
 800030c:	d301      	bcc.n	8000312 <__divsi3+0xea>
 800030e:	008b      	lsls	r3, r1, #2
 8000310:	1ac0      	subs	r0, r0, r3
 8000312:	4152      	adcs	r2, r2
 8000314:	0843      	lsrs	r3, r0, #1
 8000316:	428b      	cmp	r3, r1
 8000318:	d301      	bcc.n	800031e <__divsi3+0xf6>
 800031a:	004b      	lsls	r3, r1, #1
 800031c:	1ac0      	subs	r0, r0, r3
 800031e:	4152      	adcs	r2, r2
 8000320:	1a41      	subs	r1, r0, r1
 8000322:	d200      	bcs.n	8000326 <__divsi3+0xfe>
 8000324:	4601      	mov	r1, r0
 8000326:	4152      	adcs	r2, r2
 8000328:	4610      	mov	r0, r2
 800032a:	4770      	bx	lr
 800032c:	e05d      	b.n	80003ea <__divsi3+0x1c2>
 800032e:	0fca      	lsrs	r2, r1, #31
 8000330:	d000      	beq.n	8000334 <__divsi3+0x10c>
 8000332:	4249      	negs	r1, r1
 8000334:	1003      	asrs	r3, r0, #32
 8000336:	d300      	bcc.n	800033a <__divsi3+0x112>
 8000338:	4240      	negs	r0, r0
 800033a:	4053      	eors	r3, r2
 800033c:	2200      	movs	r2, #0
 800033e:	469c      	mov	ip, r3
 8000340:	0903      	lsrs	r3, r0, #4
 8000342:	428b      	cmp	r3, r1
 8000344:	d32d      	bcc.n	80003a2 <__divsi3+0x17a>
 8000346:	0a03      	lsrs	r3, r0, #8
 8000348:	428b      	cmp	r3, r1
 800034a:	d312      	bcc.n	8000372 <__divsi3+0x14a>
 800034c:	22fc      	movs	r2, #252	; 0xfc
 800034e:	0189      	lsls	r1, r1, #6
 8000350:	ba12      	rev	r2, r2
 8000352:	0a03      	lsrs	r3, r0, #8
 8000354:	428b      	cmp	r3, r1
 8000356:	d30c      	bcc.n	8000372 <__divsi3+0x14a>
 8000358:	0189      	lsls	r1, r1, #6
 800035a:	1192      	asrs	r2, r2, #6
 800035c:	428b      	cmp	r3, r1
 800035e:	d308      	bcc.n	8000372 <__divsi3+0x14a>
 8000360:	0189      	lsls	r1, r1, #6
 8000362:	1192      	asrs	r2, r2, #6
 8000364:	428b      	cmp	r3, r1
 8000366:	d304      	bcc.n	8000372 <__divsi3+0x14a>
 8000368:	0189      	lsls	r1, r1, #6
 800036a:	d03a      	beq.n	80003e2 <__divsi3+0x1ba>
 800036c:	1192      	asrs	r2, r2, #6
 800036e:	e000      	b.n	8000372 <__divsi3+0x14a>
 8000370:	0989      	lsrs	r1, r1, #6
 8000372:	09c3      	lsrs	r3, r0, #7
 8000374:	428b      	cmp	r3, r1
 8000376:	d301      	bcc.n	800037c <__divsi3+0x154>
 8000378:	01cb      	lsls	r3, r1, #7
 800037a:	1ac0      	subs	r0, r0, r3
 800037c:	4152      	adcs	r2, r2
 800037e:	0983      	lsrs	r3, r0, #6
 8000380:	428b      	cmp	r3, r1
 8000382:	d301      	bcc.n	8000388 <__divsi3+0x160>
 8000384:	018b      	lsls	r3, r1, #6
 8000386:	1ac0      	subs	r0, r0, r3
 8000388:	4152      	adcs	r2, r2
 800038a:	0943      	lsrs	r3, r0, #5
 800038c:	428b      	cmp	r3, r1
 800038e:	d301      	bcc.n	8000394 <__divsi3+0x16c>
 8000390:	014b      	lsls	r3, r1, #5
 8000392:	1ac0      	subs	r0, r0, r3
 8000394:	4152      	adcs	r2, r2
 8000396:	0903      	lsrs	r3, r0, #4
 8000398:	428b      	cmp	r3, r1
 800039a:	d301      	bcc.n	80003a0 <__divsi3+0x178>
 800039c:	010b      	lsls	r3, r1, #4
 800039e:	1ac0      	subs	r0, r0, r3
 80003a0:	4152      	adcs	r2, r2
 80003a2:	08c3      	lsrs	r3, r0, #3
 80003a4:	428b      	cmp	r3, r1
 80003a6:	d301      	bcc.n	80003ac <__divsi3+0x184>
 80003a8:	00cb      	lsls	r3, r1, #3
 80003aa:	1ac0      	subs	r0, r0, r3
 80003ac:	4152      	adcs	r2, r2
 80003ae:	0883      	lsrs	r3, r0, #2
 80003b0:	428b      	cmp	r3, r1
 80003b2:	d301      	bcc.n	80003b8 <__divsi3+0x190>
 80003b4:	008b      	lsls	r3, r1, #2
 80003b6:	1ac0      	subs	r0, r0, r3
 80003b8:	4152      	adcs	r2, r2
 80003ba:	d2d9      	bcs.n	8000370 <__divsi3+0x148>
 80003bc:	0843      	lsrs	r3, r0, #1
 80003be:	428b      	cmp	r3, r1
 80003c0:	d301      	bcc.n	80003c6 <__divsi3+0x19e>
 80003c2:	004b      	lsls	r3, r1, #1
 80003c4:	1ac0      	subs	r0, r0, r3
 80003c6:	4152      	adcs	r2, r2
 80003c8:	1a41      	subs	r1, r0, r1
 80003ca:	d200      	bcs.n	80003ce <__divsi3+0x1a6>
 80003cc:	4601      	mov	r1, r0
 80003ce:	4663      	mov	r3, ip
 80003d0:	4152      	adcs	r2, r2
 80003d2:	105b      	asrs	r3, r3, #1
 80003d4:	4610      	mov	r0, r2
 80003d6:	d301      	bcc.n	80003dc <__divsi3+0x1b4>
 80003d8:	4240      	negs	r0, r0
 80003da:	2b00      	cmp	r3, #0
 80003dc:	d500      	bpl.n	80003e0 <__divsi3+0x1b8>
 80003de:	4249      	negs	r1, r1
 80003e0:	4770      	bx	lr
 80003e2:	4663      	mov	r3, ip
 80003e4:	105b      	asrs	r3, r3, #1
 80003e6:	d300      	bcc.n	80003ea <__divsi3+0x1c2>
 80003e8:	4240      	negs	r0, r0
 80003ea:	b501      	push	{r0, lr}
 80003ec:	2000      	movs	r0, #0
 80003ee:	f000 f805 	bl	80003fc <__aeabi_idiv0>
 80003f2:	bd02      	pop	{r1, pc}

080003f4 <__aeabi_idivmod>:
 80003f4:	2900      	cmp	r1, #0
 80003f6:	d0f8      	beq.n	80003ea <__divsi3+0x1c2>
 80003f8:	e716      	b.n	8000228 <__divsi3>
 80003fa:	4770      	bx	lr

080003fc <__aeabi_idiv0>:
 80003fc:	4770      	bx	lr
 80003fe:	46c0      	nop			; (mov r8, r8)

08000400 <SM_ChangeState>:
      }
   }
}
static void SM_ChangeState()
{
   for(int i = 0; i < TRANSITION_TABLE_SIZE; i++)
 8000400:	2300      	movs	r3, #0
 8000402:	e000      	b.n	8000406 <SM_ChangeState+0x6>
 8000404:	3301      	adds	r3, #1
 8000406:	2b0c      	cmp	r3, #12
 8000408:	d818      	bhi.n	800043c <SM_ChangeState+0x3c>
   {
      if(SmPtr.State == TransitionTable[i].Source && SmPtr.NewEvent == TransitionTable[i].Event)
 800040a:	4a0e      	ldr	r2, [pc, #56]	; (8000444 <SM_ChangeState+0x44>)
 800040c:	7911      	ldrb	r1, [r2, #4]
 800040e:	005a      	lsls	r2, r3, #1
 8000410:	18d2      	adds	r2, r2, r3
 8000412:	480d      	ldr	r0, [pc, #52]	; (8000448 <SM_ChangeState+0x48>)
 8000414:	5c12      	ldrb	r2, [r2, r0]
 8000416:	4291      	cmp	r1, r2
 8000418:	d1f4      	bne.n	8000404 <SM_ChangeState+0x4>
 800041a:	4a0a      	ldr	r2, [pc, #40]	; (8000444 <SM_ChangeState+0x44>)
 800041c:	7950      	ldrb	r0, [r2, #5]
 800041e:	0059      	lsls	r1, r3, #1
 8000420:	18c9      	adds	r1, r1, r3
 8000422:	4a09      	ldr	r2, [pc, #36]	; (8000448 <SM_ChangeState+0x48>)
 8000424:	1852      	adds	r2, r2, r1
 8000426:	7892      	ldrb	r2, [r2, #2]
 8000428:	4290      	cmp	r0, r2
 800042a:	d1eb      	bne.n	8000404 <SM_ChangeState+0x4>
      {
         SmPtr.State = TransitionTable[i].Destination;
 800042c:	0059      	lsls	r1, r3, #1
 800042e:	18c9      	adds	r1, r1, r3
 8000430:	4a05      	ldr	r2, [pc, #20]	; (8000448 <SM_ChangeState+0x48>)
 8000432:	1852      	adds	r2, r2, r1
 8000434:	7851      	ldrb	r1, [r2, #1]
 8000436:	4a03      	ldr	r2, [pc, #12]	; (8000444 <SM_ChangeState+0x44>)
 8000438:	7111      	strb	r1, [r2, #4]
 800043a:	e7e3      	b.n	8000404 <SM_ChangeState+0x4>
      }
   }
   SmPtr.NewEvent = SM_EVENT_NOTHING;
 800043c:	4b01      	ldr	r3, [pc, #4]	; (8000444 <SM_ChangeState+0x44>)
 800043e:	2200      	movs	r2, #0
 8000440:	715a      	strb	r2, [r3, #5]
}
 8000442:	4770      	bx	lr
 8000444:	2000011c 	.word	0x2000011c
 8000448:	2000005c 	.word	0x2000005c

0800044c <SM_ErrorFunction>:
      SmPtr.NewEvent = SM_EVENT_UART;
   }
}
static void SM_ErrorFunction()
{
}
 800044c:	4770      	bx	lr
	...

08000450 <SM_DebugFunction>:
{
 8000450:	b570      	push	{r4, r5, r6, lr}
   if(SmPtr.DebugFlag == LS_DEBUG_ALL)
 8000452:	4b18      	ldr	r3, [pc, #96]	; (80004b4 <SM_DebugFunction+0x64>)
 8000454:	799b      	ldrb	r3, [r3, #6]
 8000456:	2b04      	cmp	r3, #4
 8000458:	d012      	beq.n	8000480 <SM_DebugFunction+0x30>
   if(SmPtr.DebugFlag == LS_DEBUG_ALL || SmPtr.DebugFlag == LS_DEBUG_MEASURMENT)
 800045a:	4b16      	ldr	r3, [pc, #88]	; (80004b4 <SM_DebugFunction+0x64>)
 800045c:	799b      	ldrb	r3, [r3, #6]
 800045e:	2b04      	cmp	r3, #4
 8000460:	d001      	beq.n	8000466 <SM_DebugFunction+0x16>
 8000462:	2b02      	cmp	r3, #2
 8000464:	d102      	bne.n	800046c <SM_DebugFunction+0x1c>
      SmPtr.NewEvent = SM_EVENT_END_DEBUG;
 8000466:	4a13      	ldr	r2, [pc, #76]	; (80004b4 <SM_DebugFunction+0x64>)
 8000468:	2107      	movs	r1, #7
 800046a:	7151      	strb	r1, [r2, #5]
   if(SmPtr.UartFlag == LS_NO_UART_RECIVE)
 800046c:	4a11      	ldr	r2, [pc, #68]	; (80004b4 <SM_DebugFunction+0x64>)
 800046e:	79d2      	ldrb	r2, [r2, #7]
 8000470:	2a00      	cmp	r2, #0
 8000472:	d11b      	bne.n	80004ac <SM_DebugFunction+0x5c>
      if(SmPtr.DebugFlag == LS_NO_DEBUG)
 8000474:	2b00      	cmp	r3, #0
 8000476:	d11c      	bne.n	80004b2 <SM_DebugFunction+0x62>
         SmPtr.NewEvent = SM_EVENT_END_DEBUG;
 8000478:	4b0e      	ldr	r3, [pc, #56]	; (80004b4 <SM_DebugFunction+0x64>)
 800047a:	3207      	adds	r2, #7
 800047c:	715a      	strb	r2, [r3, #5]
 800047e:	e018      	b.n	80004b2 <SM_DebugFunction+0x62>
      HAL_GPIO_WritePin(MAX485_Selector_GPIO_Port, MAX485_Selector_Pin, LS_TRANSMIT);
 8000480:	2580      	movs	r5, #128	; 0x80
 8000482:	01ad      	lsls	r5, r5, #6
 8000484:	24a0      	movs	r4, #160	; 0xa0
 8000486:	05e4      	lsls	r4, r4, #23
 8000488:	2201      	movs	r2, #1
 800048a:	0029      	movs	r1, r5
 800048c:	0020      	movs	r0, r4
 800048e:	f001 f8a5 	bl	80015dc <HAL_GPIO_WritePin>
      HAL_UART_Transmit(&huart1, (uint8_t *)STATE_ID_DEBUG, sizeof(STATE_ID_DEBUG) - 1, 1000);
 8000492:	23fa      	movs	r3, #250	; 0xfa
 8000494:	009b      	lsls	r3, r3, #2
 8000496:	220c      	movs	r2, #12
 8000498:	4907      	ldr	r1, [pc, #28]	; (80004b8 <SM_DebugFunction+0x68>)
 800049a:	4808      	ldr	r0, [pc, #32]	; (80004bc <SM_DebugFunction+0x6c>)
 800049c:	f002 feb8 	bl	8003210 <HAL_UART_Transmit>
      HAL_GPIO_WritePin(MAX485_Selector_GPIO_Port, MAX485_Selector_Pin, LS_LISTENING);
 80004a0:	2200      	movs	r2, #0
 80004a2:	0029      	movs	r1, r5
 80004a4:	0020      	movs	r0, r4
 80004a6:	f001 f899 	bl	80015dc <HAL_GPIO_WritePin>
 80004aa:	e7d6      	b.n	800045a <SM_DebugFunction+0xa>
      SmPtr.NewEvent = SM_EVENT_UART;
 80004ac:	4b01      	ldr	r3, [pc, #4]	; (80004b4 <SM_DebugFunction+0x64>)
 80004ae:	2205      	movs	r2, #5
 80004b0:	715a      	strb	r2, [r3, #5]
}
 80004b2:	bd70      	pop	{r4, r5, r6, pc}
 80004b4:	2000011c 	.word	0x2000011c
 80004b8:	08003f90 	.word	0x08003f90
 80004bc:	200002b8 	.word	0x200002b8

080004c0 <SM_WaitForMeasurmentIsFinished>:
{
 80004c0:	b570      	push	{r4, r5, r6, lr}
   if(SmPtr.DebugFlag == LS_DEBUG_ALL)
 80004c2:	4b17      	ldr	r3, [pc, #92]	; (8000520 <SM_WaitForMeasurmentIsFinished+0x60>)
 80004c4:	799b      	ldrb	r3, [r3, #6]
 80004c6:	2b04      	cmp	r3, #4
 80004c8:	d00b      	beq.n	80004e2 <SM_WaitForMeasurmentIsFinished+0x22>
   if(SmPtr.UartFlag == LS_NO_UART_RECIVE)
 80004ca:	4b15      	ldr	r3, [pc, #84]	; (8000520 <SM_WaitForMeasurmentIsFinished+0x60>)
 80004cc:	79db      	ldrb	r3, [r3, #7]
 80004ce:	2b00      	cmp	r3, #0
 80004d0:	d121      	bne.n	8000516 <SM_WaitForMeasurmentIsFinished+0x56>
      if(SmPtr.DebugFlag == LS_DEBUG_MEASURMENT)
 80004d2:	4b13      	ldr	r3, [pc, #76]	; (8000520 <SM_WaitForMeasurmentIsFinished+0x60>)
 80004d4:	799b      	ldrb	r3, [r3, #6]
 80004d6:	2b02      	cmp	r3, #2
 80004d8:	d019      	beq.n	800050e <SM_WaitForMeasurmentIsFinished+0x4e>
         SmPtr.NewEvent = SM_EVENT_END_RUNNING;
 80004da:	4b11      	ldr	r3, [pc, #68]	; (8000520 <SM_WaitForMeasurmentIsFinished+0x60>)
 80004dc:	2203      	movs	r2, #3
 80004de:	715a      	strb	r2, [r3, #5]
 80004e0:	e01c      	b.n	800051c <SM_WaitForMeasurmentIsFinished+0x5c>
      HAL_GPIO_WritePin(MAX485_Selector_GPIO_Port, MAX485_Selector_Pin, LS_TRANSMIT);
 80004e2:	2580      	movs	r5, #128	; 0x80
 80004e4:	01ad      	lsls	r5, r5, #6
 80004e6:	24a0      	movs	r4, #160	; 0xa0
 80004e8:	05e4      	lsls	r4, r4, #23
 80004ea:	2201      	movs	r2, #1
 80004ec:	0029      	movs	r1, r5
 80004ee:	0020      	movs	r0, r4
 80004f0:	f001 f874 	bl	80015dc <HAL_GPIO_WritePin>
      HAL_UART_Transmit(&huart1, (uint8_t *)STATE_ID_WAIT_FOR_MEASURMENT_IS_FINISHED, sizeof(STATE_ID_WAIT_FOR_MEASURMENT_IS_FINISHED) - 1, 1000);
 80004f4:	23fa      	movs	r3, #250	; 0xfa
 80004f6:	009b      	lsls	r3, r3, #2
 80004f8:	2226      	movs	r2, #38	; 0x26
 80004fa:	490a      	ldr	r1, [pc, #40]	; (8000524 <SM_WaitForMeasurmentIsFinished+0x64>)
 80004fc:	480a      	ldr	r0, [pc, #40]	; (8000528 <SM_WaitForMeasurmentIsFinished+0x68>)
 80004fe:	f002 fe87 	bl	8003210 <HAL_UART_Transmit>
      HAL_GPIO_WritePin(MAX485_Selector_GPIO_Port, MAX485_Selector_Pin, LS_LISTENING);
 8000502:	2200      	movs	r2, #0
 8000504:	0029      	movs	r1, r5
 8000506:	0020      	movs	r0, r4
 8000508:	f001 f868 	bl	80015dc <HAL_GPIO_WritePin>
 800050c:	e7dd      	b.n	80004ca <SM_WaitForMeasurmentIsFinished+0xa>
         SmPtr.NewEvent = SM_EVENT_DEBUG;
 800050e:	4b04      	ldr	r3, [pc, #16]	; (8000520 <SM_WaitForMeasurmentIsFinished+0x60>)
 8000510:	2206      	movs	r2, #6
 8000512:	715a      	strb	r2, [r3, #5]
 8000514:	e002      	b.n	800051c <SM_WaitForMeasurmentIsFinished+0x5c>
      SmPtr.NewEvent = SM_EVENT_UART;
 8000516:	4b02      	ldr	r3, [pc, #8]	; (8000520 <SM_WaitForMeasurmentIsFinished+0x60>)
 8000518:	2205      	movs	r2, #5
 800051a:	715a      	strb	r2, [r3, #5]
}
 800051c:	bd70      	pop	{r4, r5, r6, pc}
 800051e:	46c0      	nop			; (mov r8, r8)
 8000520:	2000011c 	.word	0x2000011c
 8000524:	08003fa0 	.word	0x08003fa0
 8000528:	200002b8 	.word	0x200002b8

0800052c <SM_ParseUartFunction>:
{
 800052c:	b5f8      	push	{r3, r4, r5, r6, r7, lr}
   for(int i = 0; i < COMMANDS_TABLE_SIZE; i++)
 800052e:	2400      	movs	r4, #0
 8000530:	e003      	b.n	800053a <SM_ParseUartFunction+0xe>
      Parse = 1;
 8000532:	2301      	movs	r3, #1
      if(Parse == 1)
 8000534:	2b01      	cmp	r3, #1
 8000536:	d013      	beq.n	8000560 <SM_ParseUartFunction+0x34>
   for(int i = 0; i < COMMANDS_TABLE_SIZE; i++)
 8000538:	3401      	adds	r4, #1
 800053a:	2c07      	cmp	r4, #7
 800053c:	d812      	bhi.n	8000564 <SM_ParseUartFunction+0x38>
      for(int j = 0; j < SizeUartData; j++)
 800053e:	2300      	movs	r3, #0
 8000540:	4a40      	ldr	r2, [pc, #256]	; (8000644 <SM_ParseUartFunction+0x118>)
 8000542:	7812      	ldrb	r2, [r2, #0]
 8000544:	429a      	cmp	r2, r3
 8000546:	ddf4      	ble.n	8000532 <SM_ParseUartFunction+0x6>
         if(data[j] != LsCommands[i].Commands[j])
 8000548:	4a3f      	ldr	r2, [pc, #252]	; (8000648 <SM_ParseUartFunction+0x11c>)
 800054a:	5cd1      	ldrb	r1, [r2, r3]
 800054c:	00e2      	lsls	r2, r4, #3
 800054e:	483f      	ldr	r0, [pc, #252]	; (800064c <SM_ParseUartFunction+0x120>)
 8000550:	5812      	ldr	r2, [r2, r0]
 8000552:	5cd2      	ldrb	r2, [r2, r3]
 8000554:	4291      	cmp	r1, r2
 8000556:	d101      	bne.n	800055c <SM_ParseUartFunction+0x30>
      for(int j = 0; j < SizeUartData; j++)
 8000558:	3301      	adds	r3, #1
 800055a:	e7f1      	b.n	8000540 <SM_ParseUartFunction+0x14>
            Parse = 0;
 800055c:	2300      	movs	r3, #0
 800055e:	e7e9      	b.n	8000534 <SM_ParseUartFunction+0x8>
         Command = i;
 8000560:	b2e4      	uxtb	r4, r4
         break;
 8000562:	e000      	b.n	8000566 <SM_ParseUartFunction+0x3a>
   uint8_t Command = 255;
 8000564:	24ff      	movs	r4, #255	; 0xff
   switch(Command)
 8000566:	0025      	movs	r5, r4
 8000568:	2c07      	cmp	r4, #7
 800056a:	d843      	bhi.n	80005f4 <SM_ParseUartFunction+0xc8>
 800056c:	00a3      	lsls	r3, r4, #2
 800056e:	4a38      	ldr	r2, [pc, #224]	; (8000650 <SM_ParseUartFunction+0x124>)
 8000570:	58d3      	ldr	r3, [r2, r3]
 8000572:	469f      	mov	pc, r3
         SmPtr.NewEvent = SM_EVENT_END_SLEEP;
 8000574:	4b37      	ldr	r3, [pc, #220]	; (8000654 <SM_ParseUartFunction+0x128>)
 8000576:	2204      	movs	r2, #4
 8000578:	715a      	strb	r2, [r3, #5]
   if(Command != 255)
 800057a:	2cff      	cmp	r4, #255	; 0xff
 800057c:	d13e      	bne.n	80005fc <SM_ParseUartFunction+0xd0>
   else if(SmPtr.DebugFlag != LS_DEBUG_COMMUNICATION)
 800057e:	4b35      	ldr	r3, [pc, #212]	; (8000654 <SM_ParseUartFunction+0x128>)
 8000580:	799b      	ldrb	r3, [r3, #6]
 8000582:	2b01      	cmp	r3, #1
 8000584:	d05a      	beq.n	800063c <SM_ParseUartFunction+0x110>
      HAL_GPIO_WritePin(MAX485_Selector_GPIO_Port, MAX485_Selector_Pin, LS_TRANSMIT);
 8000586:	2580      	movs	r5, #128	; 0x80
 8000588:	01ad      	lsls	r5, r5, #6
 800058a:	24a0      	movs	r4, #160	; 0xa0
 800058c:	05e4      	lsls	r4, r4, #23
 800058e:	2201      	movs	r2, #1
 8000590:	0029      	movs	r1, r5
 8000592:	0020      	movs	r0, r4
 8000594:	f001 f822 	bl	80015dc <HAL_GPIO_WritePin>
      HAL_UART_Transmit(&huart1, (uint8_t *)LS_STATUS_ERROR, sizeof(LS_STATUS_ERROR) - 1, 1000);
 8000598:	23fa      	movs	r3, #250	; 0xfa
 800059a:	009b      	lsls	r3, r3, #2
 800059c:	2209      	movs	r2, #9
 800059e:	492e      	ldr	r1, [pc, #184]	; (8000658 <SM_ParseUartFunction+0x12c>)
 80005a0:	482e      	ldr	r0, [pc, #184]	; (800065c <SM_ParseUartFunction+0x130>)
 80005a2:	f002 fe35 	bl	8003210 <HAL_UART_Transmit>
      HAL_GPIO_WritePin(MAX485_Selector_GPIO_Port, MAX485_Selector_Pin, LS_LISTENING);
 80005a6:	2200      	movs	r2, #0
 80005a8:	0029      	movs	r1, r5
 80005aa:	0020      	movs	r0, r4
 80005ac:	f001 f816 	bl	80015dc <HAL_GPIO_WritePin>
 80005b0:	e044      	b.n	800063c <SM_ParseUartFunction+0x110>
         SmPtr.DebugFlag = LS_DEBUG_COMMUNICATION;
 80005b2:	4b28      	ldr	r3, [pc, #160]	; (8000654 <SM_ParseUartFunction+0x128>)
 80005b4:	2201      	movs	r2, #1
 80005b6:	719a      	strb	r2, [r3, #6]
         SmPtr.NewEvent  = SM_EVENT_DEBUG;
 80005b8:	3205      	adds	r2, #5
 80005ba:	715a      	strb	r2, [r3, #5]
         break;
 80005bc:	e7dd      	b.n	800057a <SM_ParseUartFunction+0x4e>
         SmPtr.NewEvent  = SM_EVENT_DEBUG;
 80005be:	4b25      	ldr	r3, [pc, #148]	; (8000654 <SM_ParseUartFunction+0x128>)
 80005c0:	2206      	movs	r2, #6
 80005c2:	715a      	strb	r2, [r3, #5]
         SmPtr.DebugFlag = LS_DEBUG_ALL;
 80005c4:	3a02      	subs	r2, #2
 80005c6:	719a      	strb	r2, [r3, #6]
         break;
 80005c8:	e7d7      	b.n	800057a <SM_ParseUartFunction+0x4e>
         SmPtr.NewEvent  = SM_EVENT_DEBUG;
 80005ca:	4b22      	ldr	r3, [pc, #136]	; (8000654 <SM_ParseUartFunction+0x128>)
 80005cc:	2206      	movs	r2, #6
 80005ce:	715a      	strb	r2, [r3, #5]
         SmPtr.DebugFlag = LS_DEBUG_MEASURMENT;
 80005d0:	3a04      	subs	r2, #4
 80005d2:	719a      	strb	r2, [r3, #6]
         break;
 80005d4:	e7d1      	b.n	800057a <SM_ParseUartFunction+0x4e>
         SmPtr.NewEvent  = SM_EVENT_DEBUG;
 80005d6:	4b1f      	ldr	r3, [pc, #124]	; (8000654 <SM_ParseUartFunction+0x128>)
 80005d8:	2206      	movs	r2, #6
 80005da:	715a      	strb	r2, [r3, #5]
         SmPtr.DebugFlag = LS_DEBUG_STATUS_AND_PARAM;
 80005dc:	3a03      	subs	r2, #3
 80005de:	719a      	strb	r2, [r3, #6]
         break;
 80005e0:	e7cb      	b.n	800057a <SM_ParseUartFunction+0x4e>
         SmPtr.DebugFlag = LS_NO_DEBUG;
 80005e2:	4b1c      	ldr	r3, [pc, #112]	; (8000654 <SM_ParseUartFunction+0x128>)
 80005e4:	2200      	movs	r2, #0
 80005e6:	719a      	strb	r2, [r3, #6]
         SmPtr.NewEvent  = SM_EVENT_DEBUG;
 80005e8:	3206      	adds	r2, #6
 80005ea:	715a      	strb	r2, [r3, #5]
         break;
 80005ec:	e7c5      	b.n	800057a <SM_ParseUartFunction+0x4e>
         HAL_NVIC_SystemReset();
 80005ee:	f000 fd2f 	bl	8001050 <HAL_NVIC_SystemReset>
         break;
 80005f2:	e7c2      	b.n	800057a <SM_ParseUartFunction+0x4e>
         SmPtr.NewEvent = SM_EVENT_DEBUG;
 80005f4:	4b17      	ldr	r3, [pc, #92]	; (8000654 <SM_ParseUartFunction+0x128>)
 80005f6:	2206      	movs	r2, #6
 80005f8:	715a      	strb	r2, [r3, #5]
 80005fa:	e7be      	b.n	800057a <SM_ParseUartFunction+0x4e>
      HAL_GPIO_WritePin(MAX485_Selector_GPIO_Port, MAX485_Selector_Pin, LS_TRANSMIT);
 80005fc:	2680      	movs	r6, #128	; 0x80
 80005fe:	01b6      	lsls	r6, r6, #6
 8000600:	24a0      	movs	r4, #160	; 0xa0
 8000602:	05e4      	lsls	r4, r4, #23
 8000604:	2201      	movs	r2, #1
 8000606:	0031      	movs	r1, r6
 8000608:	0020      	movs	r0, r4
 800060a:	f000 ffe7 	bl	80015dc <HAL_GPIO_WritePin>
      HAL_UART_Transmit(&huart1, (uint8_t *)LsCommands[Command].Commands, LsCommands[Command].SizeCommands, 1000);
 800060e:	4b0f      	ldr	r3, [pc, #60]	; (800064c <SM_ParseUartFunction+0x120>)
 8000610:	00ed      	lsls	r5, r5, #3
 8000612:	58e9      	ldr	r1, [r5, r3]
 8000614:	27fa      	movs	r7, #250	; 0xfa
 8000616:	00bf      	lsls	r7, r7, #2
 8000618:	195d      	adds	r5, r3, r5
 800061a:	88aa      	ldrh	r2, [r5, #4]
 800061c:	4d0f      	ldr	r5, [pc, #60]	; (800065c <SM_ParseUartFunction+0x130>)
 800061e:	003b      	movs	r3, r7
 8000620:	0028      	movs	r0, r5
 8000622:	f002 fdf5 	bl	8003210 <HAL_UART_Transmit>
      HAL_UART_Transmit(&huart1, (uint8_t *)LS_STATUS_OK, sizeof(LS_STATUS_OK) - 1, 1000);
 8000626:	003b      	movs	r3, r7
 8000628:	2206      	movs	r2, #6
 800062a:	490d      	ldr	r1, [pc, #52]	; (8000660 <SM_ParseUartFunction+0x134>)
 800062c:	0028      	movs	r0, r5
 800062e:	f002 fdef 	bl	8003210 <HAL_UART_Transmit>
      HAL_GPIO_WritePin(MAX485_Selector_GPIO_Port, MAX485_Selector_Pin, LS_LISTENING);
 8000632:	2200      	movs	r2, #0
 8000634:	0031      	movs	r1, r6
 8000636:	0020      	movs	r0, r4
 8000638:	f000 ffd0 	bl	80015dc <HAL_GPIO_WritePin>
   SmPtr.UartFlag = LS_NO_UART_RECIVE;
 800063c:	4b05      	ldr	r3, [pc, #20]	; (8000654 <SM_ParseUartFunction+0x128>)
 800063e:	2200      	movs	r2, #0
 8000640:	71da      	strb	r2, [r3, #7]
}
 8000642:	bdf8      	pop	{r3, r4, r5, r6, r7, pc}
 8000644:	20000118 	.word	0x20000118
 8000648:	20000128 	.word	0x20000128
 800064c:	2000001c 	.word	0x2000001c
 8000650:	08003fdc 	.word	0x08003fdc
 8000654:	2000011c 	.word	0x2000011c
 8000658:	08003fd0 	.word	0x08003fd0
 800065c:	200002b8 	.word	0x200002b8
 8000660:	08003fc8 	.word	0x08003fc8

08000664 <SM_SleppFunction>:
{
 8000664:	b570      	push	{r4, r5, r6, lr}
   if(SmPtr.DebugFlag == LS_DEBUG_ALL)
 8000666:	4b1d      	ldr	r3, [pc, #116]	; (80006dc <SM_SleppFunction+0x78>)
 8000668:	799b      	ldrb	r3, [r3, #6]
 800066a:	2b04      	cmp	r3, #4
 800066c:	d00f      	beq.n	800068e <SM_SleppFunction+0x2a>
   if(SmPtr.DebugFlag != LS_DEBUG_ALL)
 800066e:	4b1b      	ldr	r3, [pc, #108]	; (80006dc <SM_SleppFunction+0x78>)
 8000670:	799b      	ldrb	r3, [r3, #6]
 8000672:	2b04      	cmp	r3, #4
 8000674:	d121      	bne.n	80006ba <SM_SleppFunction+0x56>
   if(SmPtr.UartFlag == LS_NO_UART_RECIVE)
 8000676:	4b19      	ldr	r3, [pc, #100]	; (80006dc <SM_SleppFunction+0x78>)
 8000678:	79db      	ldrb	r3, [r3, #7]
 800067a:	2b00      	cmp	r3, #0
 800067c:	d12a      	bne.n	80006d4 <SM_SleppFunction+0x70>
      if(SmPtr.DebugFlag == LS_DEBUG_ALL)
 800067e:	4b17      	ldr	r3, [pc, #92]	; (80006dc <SM_SleppFunction+0x78>)
 8000680:	799b      	ldrb	r3, [r3, #6]
 8000682:	2b04      	cmp	r3, #4
 8000684:	d022      	beq.n	80006cc <SM_SleppFunction+0x68>
         SmPtr.NewEvent = SM_EVENT_END_SLEEP;
 8000686:	4b15      	ldr	r3, [pc, #84]	; (80006dc <SM_SleppFunction+0x78>)
 8000688:	2204      	movs	r2, #4
 800068a:	715a      	strb	r2, [r3, #5]
 800068c:	e025      	b.n	80006da <SM_SleppFunction+0x76>
      HAL_GPIO_WritePin(MAX485_Selector_GPIO_Port, MAX485_Selector_Pin, LS_TRANSMIT);
 800068e:	2580      	movs	r5, #128	; 0x80
 8000690:	01ad      	lsls	r5, r5, #6
 8000692:	24a0      	movs	r4, #160	; 0xa0
 8000694:	05e4      	lsls	r4, r4, #23
 8000696:	2201      	movs	r2, #1
 8000698:	0029      	movs	r1, r5
 800069a:	0020      	movs	r0, r4
 800069c:	f000 ff9e 	bl	80015dc <HAL_GPIO_WritePin>
      HAL_UART_Transmit(&huart1, (uint8_t *)STATE_ID_SLEEP, sizeof(STATE_ID_SLEEP) - 1, 1000);
 80006a0:	23fa      	movs	r3, #250	; 0xfa
 80006a2:	009b      	lsls	r3, r3, #2
 80006a4:	220c      	movs	r2, #12
 80006a6:	490e      	ldr	r1, [pc, #56]	; (80006e0 <SM_SleppFunction+0x7c>)
 80006a8:	480e      	ldr	r0, [pc, #56]	; (80006e4 <SM_SleppFunction+0x80>)
 80006aa:	f002 fdb1 	bl	8003210 <HAL_UART_Transmit>
      HAL_GPIO_WritePin(MAX485_Selector_GPIO_Port, MAX485_Selector_Pin, LS_LISTENING);
 80006ae:	2200      	movs	r2, #0
 80006b0:	0029      	movs	r1, r5
 80006b2:	0020      	movs	r0, r4
 80006b4:	f000 ff92 	bl	80015dc <HAL_GPIO_WritePin>
 80006b8:	e7d9      	b.n	800066e <SM_SleppFunction+0xa>
      HAL_SuspendTick();
 80006ba:	f000 fc7d 	bl	8000fb8 <HAL_SuspendTick>
      HAL_PWR_EnterSLEEPMode(PWR_MAINREGULATOR_ON, PWR_SLEEPENTRY_WFI);
 80006be:	2101      	movs	r1, #1
 80006c0:	2000      	movs	r0, #0
 80006c2:	f001 fb3b 	bl	8001d3c <HAL_PWR_EnterSLEEPMode>
      HAL_ResumeTick();
 80006c6:	f000 fc7f 	bl	8000fc8 <HAL_ResumeTick>
 80006ca:	e7d4      	b.n	8000676 <SM_SleppFunction+0x12>
         SmPtr.NewEvent = SM_EVENT_DEBUG;
 80006cc:	4b03      	ldr	r3, [pc, #12]	; (80006dc <SM_SleppFunction+0x78>)
 80006ce:	2206      	movs	r2, #6
 80006d0:	715a      	strb	r2, [r3, #5]
 80006d2:	e002      	b.n	80006da <SM_SleppFunction+0x76>
      SmPtr.NewEvent = SM_EVENT_UART;
 80006d4:	4b01      	ldr	r3, [pc, #4]	; (80006dc <SM_SleppFunction+0x78>)
 80006d6:	2205      	movs	r2, #5
 80006d8:	715a      	strb	r2, [r3, #5]
}
 80006da:	bd70      	pop	{r4, r5, r6, pc}
 80006dc:	2000011c 	.word	0x2000011c
 80006e0:	08003ffc 	.word	0x08003ffc
 80006e4:	200002b8 	.word	0x200002b8

080006e8 <SM_RunningFunction>:
{
 80006e8:	b5f0      	push	{r4, r5, r6, r7, lr}
 80006ea:	b085      	sub	sp, #20
   if(SmPtr.DebugFlag == LS_DEBUG_ALL)
 80006ec:	4b22      	ldr	r3, [pc, #136]	; (8000778 <SM_RunningFunction+0x90>)
 80006ee:	799b      	ldrb	r3, [r3, #6]
 80006f0:	2b04      	cmp	r3, #4
 80006f2:	d027      	beq.n	8000744 <SM_RunningFunction+0x5c>
   SmPtr.Brightness = bh1750_ReadLuxOneTime(&Bh);
 80006f4:	4821      	ldr	r0, [pc, #132]	; (800077c <SM_RunningFunction+0x94>)
 80006f6:	f000 f946 	bl	8000986 <bh1750_ReadLuxOneTime>
 80006fa:	0002      	movs	r2, r0
 80006fc:	4d1e      	ldr	r5, [pc, #120]	; (8000778 <SM_RunningFunction+0x90>)
 80006fe:	60a8      	str	r0, [r5, #8]
   l = sprintf((char *)BrightnessToSend, "%d \n", SmPtr.Brightness);
 8000700:	491f      	ldr	r1, [pc, #124]	; (8000780 <SM_RunningFunction+0x98>)
 8000702:	a801      	add	r0, sp, #4
 8000704:	f002 ffce 	bl	80036a4 <siprintf>
 8000708:	b2c4      	uxtb	r4, r0
   HAL_GPIO_WritePin(MAX485_Selector_GPIO_Port, MAX485_Selector_Pin, LS_TRANSMIT);
 800070a:	2780      	movs	r7, #128	; 0x80
 800070c:	01bf      	lsls	r7, r7, #6
 800070e:	26a0      	movs	r6, #160	; 0xa0
 8000710:	05f6      	lsls	r6, r6, #23
 8000712:	2201      	movs	r2, #1
 8000714:	0039      	movs	r1, r7
 8000716:	0030      	movs	r0, r6
 8000718:	f000 ff60 	bl	80015dc <HAL_GPIO_WritePin>
   HAL_UART_Transmit(&huart1, BrightnessToSend, l, 1000);
 800071c:	23fa      	movs	r3, #250	; 0xfa
 800071e:	b2a2      	uxth	r2, r4
 8000720:	009b      	lsls	r3, r3, #2
 8000722:	a901      	add	r1, sp, #4
 8000724:	4817      	ldr	r0, [pc, #92]	; (8000784 <SM_RunningFunction+0x9c>)
 8000726:	f002 fd73 	bl	8003210 <HAL_UART_Transmit>
   HAL_GPIO_WritePin(MAX485_Selector_GPIO_Port, MAX485_Selector_Pin, LS_LISTENING);
 800072a:	2200      	movs	r2, #0
 800072c:	0039      	movs	r1, r7
 800072e:	0030      	movs	r0, r6
 8000730:	f000 ff54 	bl	80015dc <HAL_GPIO_WritePin>
   if(SmPtr.UartFlag == LS_NO_UART_RECIVE)
 8000734:	79eb      	ldrb	r3, [r5, #7]
 8000736:	2b00      	cmp	r3, #0
 8000738:	d11a      	bne.n	8000770 <SM_RunningFunction+0x88>
      SmPtr.NewEvent = SM_EVENT_START_CONVESION;
 800073a:	4b0f      	ldr	r3, [pc, #60]	; (8000778 <SM_RunningFunction+0x90>)
 800073c:	2202      	movs	r2, #2
 800073e:	715a      	strb	r2, [r3, #5]
}
 8000740:	b005      	add	sp, #20
 8000742:	bdf0      	pop	{r4, r5, r6, r7, pc}
      HAL_GPIO_WritePin(MAX485_Selector_GPIO_Port, MAX485_Selector_Pin, LS_TRANSMIT);
 8000744:	2580      	movs	r5, #128	; 0x80
 8000746:	01ad      	lsls	r5, r5, #6
 8000748:	24a0      	movs	r4, #160	; 0xa0
 800074a:	05e4      	lsls	r4, r4, #23
 800074c:	2201      	movs	r2, #1
 800074e:	0029      	movs	r1, r5
 8000750:	0020      	movs	r0, r4
 8000752:	f000 ff43 	bl	80015dc <HAL_GPIO_WritePin>
      HAL_UART_Transmit(&huart1, (uint8_t *)STATE_ID_RUNNING, sizeof(STATE_ID_RUNNING) - 1, 1000);
 8000756:	23fa      	movs	r3, #250	; 0xfa
 8000758:	009b      	lsls	r3, r3, #2
 800075a:	220e      	movs	r2, #14
 800075c:	490a      	ldr	r1, [pc, #40]	; (8000788 <SM_RunningFunction+0xa0>)
 800075e:	4809      	ldr	r0, [pc, #36]	; (8000784 <SM_RunningFunction+0x9c>)
 8000760:	f002 fd56 	bl	8003210 <HAL_UART_Transmit>
      HAL_GPIO_WritePin(MAX485_Selector_GPIO_Port, MAX485_Selector_Pin, LS_LISTENING);
 8000764:	2200      	movs	r2, #0
 8000766:	0029      	movs	r1, r5
 8000768:	0020      	movs	r0, r4
 800076a:	f000 ff37 	bl	80015dc <HAL_GPIO_WritePin>
 800076e:	e7c1      	b.n	80006f4 <SM_RunningFunction+0xc>
      SmPtr.NewEvent = SM_EVENT_UART;
 8000770:	4b01      	ldr	r3, [pc, #4]	; (8000778 <SM_RunningFunction+0x90>)
 8000772:	2205      	movs	r2, #5
 8000774:	715a      	strb	r2, [r3, #5]
}
 8000776:	e7e3      	b.n	8000740 <SM_RunningFunction+0x58>
 8000778:	2000011c 	.word	0x2000011c
 800077c:	20000110 	.word	0x20000110
 8000780:	0800401c 	.word	0x0800401c
 8000784:	200002b8 	.word	0x200002b8
 8000788:	0800400c 	.word	0x0800400c

0800078c <SM_InitializeFunction>:
{
 800078c:	b5f8      	push	{r3, r4, r5, r6, r7, lr}
   bh1750_Init(&Bh, &hi2c2, 35, One_Time_H_Resolution_Mode);
 800078e:	2320      	movs	r3, #32
 8000790:	2223      	movs	r2, #35	; 0x23
 8000792:	4915      	ldr	r1, [pc, #84]	; (80007e8 <SM_InitializeFunction+0x5c>)
 8000794:	4815      	ldr	r0, [pc, #84]	; (80007ec <SM_InitializeFunction+0x60>)
 8000796:	f000 f902 	bl	800099e <bh1750_Init>
   SmPtr.DebugFlag = LS_NO_DEBUG;
 800079a:	4e15      	ldr	r6, [pc, #84]	; (80007f0 <SM_InitializeFunction+0x64>)
 800079c:	2300      	movs	r3, #0
 800079e:	71b3      	strb	r3, [r6, #6]
   HAL_GPIO_WritePin(MAX485_Selector_GPIO_Port, MAX485_Selector_Pin, LS_LISTENING);
 80007a0:	2580      	movs	r5, #128	; 0x80
 80007a2:	01ad      	lsls	r5, r5, #6
 80007a4:	24a0      	movs	r4, #160	; 0xa0
 80007a6:	05e4      	lsls	r4, r4, #23
 80007a8:	2200      	movs	r2, #0
 80007aa:	0029      	movs	r1, r5
 80007ac:	0020      	movs	r0, r4
 80007ae:	f000 ff15 	bl	80015dc <HAL_GPIO_WritePin>
   HAL_UARTEx_ReceiveToIdle_DMA(&huart1, data, 100);
 80007b2:	4f10      	ldr	r7, [pc, #64]	; (80007f4 <SM_InitializeFunction+0x68>)
 80007b4:	2264      	movs	r2, #100	; 0x64
 80007b6:	4910      	ldr	r1, [pc, #64]	; (80007f8 <SM_InitializeFunction+0x6c>)
 80007b8:	0038      	movs	r0, r7
 80007ba:	f002 ff07 	bl	80035cc <HAL_UARTEx_ReceiveToIdle_DMA>
   HAL_GPIO_WritePin(MAX485_Selector_GPIO_Port, MAX485_Selector_Pin, LS_TRANSMIT);
 80007be:	2201      	movs	r2, #1
 80007c0:	0029      	movs	r1, r5
 80007c2:	0020      	movs	r0, r4
 80007c4:	f000 ff0a 	bl	80015dc <HAL_GPIO_WritePin>
   HAL_UART_Transmit(&huart1, (uint8_t *)INITIALIZED_COMPLETE, sizeof(INITIALIZED_COMPLETE) - 1, 1000);
 80007c8:	23fa      	movs	r3, #250	; 0xfa
 80007ca:	009b      	lsls	r3, r3, #2
 80007cc:	2216      	movs	r2, #22
 80007ce:	490b      	ldr	r1, [pc, #44]	; (80007fc <SM_InitializeFunction+0x70>)
 80007d0:	0038      	movs	r0, r7
 80007d2:	f002 fd1d 	bl	8003210 <HAL_UART_Transmit>
   HAL_GPIO_WritePin(MAX485_Selector_GPIO_Port, MAX485_Selector_Pin, LS_LISTENING);
 80007d6:	2200      	movs	r2, #0
 80007d8:	0029      	movs	r1, r5
 80007da:	0020      	movs	r0, r4
 80007dc:	f000 fefe 	bl	80015dc <HAL_GPIO_WritePin>
   SmPtr.NewEvent = SM_EVENT_INITIALIZE_OK;
 80007e0:	2301      	movs	r3, #1
 80007e2:	7173      	strb	r3, [r6, #5]
}
 80007e4:	bdf8      	pop	{r3, r4, r5, r6, r7, pc}
 80007e6:	46c0      	nop			; (mov r8, r8)
 80007e8:	2000018c 	.word	0x2000018c
 80007ec:	20000110 	.word	0x20000110
 80007f0:	2000011c 	.word	0x2000011c
 80007f4:	200002b8 	.word	0x200002b8
 80007f8:	20000128 	.word	0x20000128
 80007fc:	08004024 	.word	0x08004024

08000800 <SM_MainFunction>:
{
 8000800:	b510      	push	{r4, lr}
   if(HAL_GetTick() - SmPtr.LastTick > 1000)
 8000802:	f000 fbc1 	bl	8000f88 <HAL_GetTick>
 8000806:	4b0b      	ldr	r3, [pc, #44]	; (8000834 <SM_MainFunction+0x34>)
 8000808:	681b      	ldr	r3, [r3, #0]
 800080a:	1ac0      	subs	r0, r0, r3
 800080c:	23fa      	movs	r3, #250	; 0xfa
 800080e:	009b      	lsls	r3, r3, #2
 8000810:	4298      	cmp	r0, r3
 8000812:	d800      	bhi.n	8000816 <SM_MainFunction+0x16>
}
 8000814:	bd10      	pop	{r4, pc}
      SM_ChangeState();
 8000816:	f7ff fdf3 	bl	8000400 <SM_ChangeState>
      SmPtr.LastTick = HAL_GetTick();
 800081a:	f000 fbb5 	bl	8000f88 <HAL_GetTick>
 800081e:	4b05      	ldr	r3, [pc, #20]	; (8000834 <SM_MainFunction+0x34>)
 8000820:	6018      	str	r0, [r3, #0]
      if(Function[SmPtr.State].SmFunction != NULL)
 8000822:	791b      	ldrb	r3, [r3, #4]
 8000824:	009b      	lsls	r3, r3, #2
 8000826:	4a04      	ldr	r2, [pc, #16]	; (8000838 <SM_MainFunction+0x38>)
 8000828:	589b      	ldr	r3, [r3, r2]
 800082a:	2b00      	cmp	r3, #0
 800082c:	d0f2      	beq.n	8000814 <SM_MainFunction+0x14>
         Function[SmPtr.State].SmFunction();
 800082e:	4798      	blx	r3
}
 8000830:	e7f0      	b.n	8000814 <SM_MainFunction+0x14>
 8000832:	46c0      	nop			; (mov r8, r8)
 8000834:	2000011c 	.word	0x2000011c
 8000838:	20000000 	.word	0x20000000

0800083c <HAL_UARTEx_RxEventCallback>:
#ifndef DEBUG_SWDIO
void HAL_UARTEx_RxEventCallback(UART_HandleTypeDef *huart, uint16_t Size)
{
 800083c:	b5f0      	push	{r4, r5, r6, r7, lr}
 800083e:	46ce      	mov	lr, r9
 8000840:	4647      	mov	r7, r8
 8000842:	b580      	push	{r7, lr}
 8000844:	b087      	sub	sp, #28
 8000846:	0004      	movs	r4, r0
 8000848:	000d      	movs	r5, r1
   if(SmPtr.DebugFlag == LS_DEBUG_COMMUNICATION)
 800084a:	4b21      	ldr	r3, [pc, #132]	; (80008d0 <HAL_UARTEx_RxEventCallback+0x94>)
 800084c:	799b      	ldrb	r3, [r3, #6]
 800084e:	2b01      	cmp	r3, #1
 8000850:	d00e      	beq.n	8000870 <HAL_UARTEx_RxEventCallback+0x34>
      SizeUartData   = Size;
      SmPtr.UartFlag = LS_UART_RECIVE;
   }
   else
   {
      SizeUartData   = Size;
 8000852:	4b20      	ldr	r3, [pc, #128]	; (80008d4 <HAL_UARTEx_RxEventCallback+0x98>)
 8000854:	7019      	strb	r1, [r3, #0]
      SmPtr.UartFlag = LS_UART_RECIVE;
 8000856:	4b1e      	ldr	r3, [pc, #120]	; (80008d0 <HAL_UARTEx_RxEventCallback+0x94>)
 8000858:	2201      	movs	r2, #1
 800085a:	71da      	strb	r2, [r3, #7]
      HAL_UARTEx_ReceiveToIdle_DMA(huart, data, 1000);
 800085c:	32f9      	adds	r2, #249	; 0xf9
 800085e:	0092      	lsls	r2, r2, #2
 8000860:	491d      	ldr	r1, [pc, #116]	; (80008d8 <HAL_UARTEx_RxEventCallback+0x9c>)
 8000862:	f002 feb3 	bl	80035cc <HAL_UARTEx_ReceiveToIdle_DMA>
   }
}
 8000866:	b007      	add	sp, #28
 8000868:	bcc0      	pop	{r6, r7}
 800086a:	46b9      	mov	r9, r7
 800086c:	46b0      	mov	r8, r6
 800086e:	bdf0      	pop	{r4, r5, r6, r7, pc}
      HAL_GPIO_WritePin(MAX485_Selector_GPIO_Port, MAX485_Selector_Pin, LS_TRANSMIT);
 8000870:	2380      	movs	r3, #128	; 0x80
 8000872:	019b      	lsls	r3, r3, #6
 8000874:	4699      	mov	r9, r3
 8000876:	23a0      	movs	r3, #160	; 0xa0
 8000878:	05db      	lsls	r3, r3, #23
 800087a:	4698      	mov	r8, r3
 800087c:	2201      	movs	r2, #1
 800087e:	4649      	mov	r1, r9
 8000880:	0018      	movs	r0, r3
 8000882:	f000 feab 	bl	80015dc <HAL_GPIO_WritePin>
      HAL_UART_Transmit(huart, data, Size, 1000);
 8000886:	26fa      	movs	r6, #250	; 0xfa
 8000888:	00b6      	lsls	r6, r6, #2
 800088a:	4f13      	ldr	r7, [pc, #76]	; (80008d8 <HAL_UARTEx_RxEventCallback+0x9c>)
 800088c:	0033      	movs	r3, r6
 800088e:	002a      	movs	r2, r5
 8000890:	0039      	movs	r1, r7
 8000892:	0020      	movs	r0, r4
 8000894:	f002 fcbc 	bl	8003210 <HAL_UART_Transmit>
      uint8_t l = sprintf((char *)d, "%d \n", Size);
 8000898:	002a      	movs	r2, r5
 800089a:	4910      	ldr	r1, [pc, #64]	; (80008dc <HAL_UARTEx_RxEventCallback+0xa0>)
 800089c:	a801      	add	r0, sp, #4
 800089e:	f002 ff01 	bl	80036a4 <siprintf>
      HAL_UART_Transmit(huart, d, l, 1000);
 80008a2:	b2c2      	uxtb	r2, r0
 80008a4:	0033      	movs	r3, r6
 80008a6:	a901      	add	r1, sp, #4
 80008a8:	0020      	movs	r0, r4
 80008aa:	f002 fcb1 	bl	8003210 <HAL_UART_Transmit>
      HAL_GPIO_WritePin(MAX485_Selector_GPIO_Port, MAX485_Selector_Pin, LS_LISTENING);
 80008ae:	2200      	movs	r2, #0
 80008b0:	4649      	mov	r1, r9
 80008b2:	4640      	mov	r0, r8
 80008b4:	f000 fe92 	bl	80015dc <HAL_GPIO_WritePin>
      HAL_UARTEx_ReceiveToIdle_DMA(huart, data, 1000);
 80008b8:	0032      	movs	r2, r6
 80008ba:	0039      	movs	r1, r7
 80008bc:	0020      	movs	r0, r4
 80008be:	f002 fe85 	bl	80035cc <HAL_UARTEx_ReceiveToIdle_DMA>
      SizeUartData   = Size;
 80008c2:	4b04      	ldr	r3, [pc, #16]	; (80008d4 <HAL_UARTEx_RxEventCallback+0x98>)
 80008c4:	701d      	strb	r5, [r3, #0]
      SmPtr.UartFlag = LS_UART_RECIVE;
 80008c6:	4b02      	ldr	r3, [pc, #8]	; (80008d0 <HAL_UARTEx_RxEventCallback+0x94>)
 80008c8:	2201      	movs	r2, #1
 80008ca:	71da      	strb	r2, [r3, #7]
 80008cc:	e7cb      	b.n	8000866 <HAL_UARTEx_RxEventCallback+0x2a>
 80008ce:	46c0      	nop			; (mov r8, r8)
 80008d0:	2000011c 	.word	0x2000011c
 80008d4:	20000118 	.word	0x20000118
 80008d8:	20000128 	.word	0x20000128
 80008dc:	0800401c 	.word	0x0800401c

080008e0 <bh1750_TransmitData>:
 *      Author: Marcin
 */
#include "main.h"
#include "bh1750.h"
void bh1750_TransmitData(bh1750_t *bh,uint8_t *data,uint8_t size)
{
 80008e0:	b520      	push	{r5, lr}
 80008e2:	b082      	sub	sp, #8
 80008e4:	000d      	movs	r5, r1
	HAL_I2C_Master_Transmit(bh->bh_i2c, (bh->addr<<1), data, size, 1000);
 80008e6:	7901      	ldrb	r1, [r0, #4]
 80008e8:	0013      	movs	r3, r2
 80008ea:	0049      	lsls	r1, r1, #1
 80008ec:	6800      	ldr	r0, [r0, #0]
 80008ee:	22fa      	movs	r2, #250	; 0xfa
 80008f0:	0092      	lsls	r2, r2, #2
 80008f2:	9200      	str	r2, [sp, #0]
 80008f4:	002a      	movs	r2, r5
 80008f6:	f001 f857 	bl	80019a8 <HAL_I2C_Master_Transmit>
}
 80008fa:	b002      	add	sp, #8
 80008fc:	bd20      	pop	{r5, pc}

080008fe <bh1750_ReceiveData>:
void bh1750_ReceiveData(bh1750_t *bh,uint8_t *data,uint8_t size)
{
 80008fe:	b520      	push	{r5, lr}
 8000900:	b082      	sub	sp, #8
 8000902:	000d      	movs	r5, r1
	HAL_I2C_Master_Receive(bh->bh_i2c, (bh->addr<<1), data, size, 1000);
 8000904:	7901      	ldrb	r1, [r0, #4]
 8000906:	0013      	movs	r3, r2
 8000908:	0049      	lsls	r1, r1, #1
 800090a:	6800      	ldr	r0, [r0, #0]
 800090c:	22fa      	movs	r2, #250	; 0xfa
 800090e:	0092      	lsls	r2, r2, #2
 8000910:	9200      	str	r2, [sp, #0]
 8000912:	002a      	movs	r2, r5
 8000914:	f001 f902 	bl	8001b1c <HAL_I2C_Master_Receive>
}
 8000918:	b002      	add	sp, #8
 800091a:	bd20      	pop	{r5, pc}

0800091c <bh1750_ChangeState>:
void bh1750_ChangeState(bh1750_t *bh,bh1750State_t s)
{
 800091c:	b510      	push	{r4, lr}
 800091e:	b082      	sub	sp, #8
 8000920:	0004      	movs	r4, r0
 8000922:	466b      	mov	r3, sp
 8000924:	71d9      	strb	r1, [r3, #7]
	if(s==Continuously_H_Resolution_Mode||s==Continuously_H_Resolution_Mode2||s==Continuously_L_Resolution_Mode)
 8000926:	b2ca      	uxtb	r2, r1
 8000928:	0013      	movs	r3, r2
 800092a:	3b10      	subs	r3, #16
 800092c:	b2db      	uxtb	r3, r3
 800092e:	2b01      	cmp	r3, #1
 8000930:	d901      	bls.n	8000936 <bh1750_ChangeState+0x1a>
 8000932:	2a13      	cmp	r2, #19
 8000934:	d105      	bne.n	8000942 <bh1750_ChangeState+0x26>
	bh1750_TransmitData(bh,&s,1);
 8000936:	2201      	movs	r2, #1
 8000938:	466b      	mov	r3, sp
 800093a:	1dd9      	adds	r1, r3, #7
 800093c:	0020      	movs	r0, r4
 800093e:	f7ff ffcf 	bl	80008e0 <bh1750_TransmitData>
	bh->state=s;
 8000942:	466b      	mov	r3, sp
 8000944:	3307      	adds	r3, #7
 8000946:	781b      	ldrb	r3, [r3, #0]
 8000948:	7163      	strb	r3, [r4, #5]
}
 800094a:	b002      	add	sp, #8
 800094c:	bd10      	pop	{r4, pc}

0800094e <bh1750_SendStartMeasurment>:
void bh1750_SendStartMeasurment(bh1750_t *bh)
{
 800094e:	b510      	push	{r4, lr}
	if(bh->state==One_Time_H_Resolution_Mode||bh->state==One_Time_H_Resolution_Mode2||bh->state==One_Time_L_Resolution_Mode)
 8000950:	7942      	ldrb	r2, [r0, #5]
 8000952:	0013      	movs	r3, r2
 8000954:	3b20      	subs	r3, #32
 8000956:	b2db      	uxtb	r3, r3
 8000958:	2b01      	cmp	r3, #1
 800095a:	d901      	bls.n	8000960 <bh1750_SendStartMeasurment+0x12>
 800095c:	2a23      	cmp	r2, #35	; 0x23
 800095e:	d103      	bne.n	8000968 <bh1750_SendStartMeasurment+0x1a>
	{
		bh1750_TransmitData(bh,&bh->state,1);
 8000960:	1d41      	adds	r1, r0, #5
 8000962:	2201      	movs	r2, #1
 8000964:	f7ff ffbc 	bl	80008e0 <bh1750_TransmitData>
	}
}
 8000968:	bd10      	pop	{r4, pc}

0800096a <bh1750_ReadMeasurment>:
uint16_t bh1750_ReadMeasurment(bh1750_t *bh)
{
 800096a:	b500      	push	{lr}
 800096c:	b083      	sub	sp, #12
	uint8_t data[2];
	bh1750_ReceiveData(bh, data, 2);
 800096e:	2202      	movs	r2, #2
 8000970:	a901      	add	r1, sp, #4
 8000972:	f7ff ffc4 	bl	80008fe <bh1750_ReceiveData>
	return ((data[0]<<8)|(data[1]));
 8000976:	466b      	mov	r3, sp
 8000978:	791b      	ldrb	r3, [r3, #4]
 800097a:	021b      	lsls	r3, r3, #8
 800097c:	466a      	mov	r2, sp
 800097e:	7950      	ldrb	r0, [r2, #5]
 8000980:	4318      	orrs	r0, r3
}
 8000982:	b003      	add	sp, #12
 8000984:	bd00      	pop	{pc}

08000986 <bh1750_ReadLuxOneTime>:
uint16_t bh1750_ReadLuxOneTime(bh1750_t *bh)
{
 8000986:	b510      	push	{r4, lr}
 8000988:	0004      	movs	r4, r0
	bh1750_SendStartMeasurment(bh);
 800098a:	f7ff ffe0 	bl	800094e <bh1750_SendStartMeasurment>
	HAL_Delay(500);
 800098e:	20fa      	movs	r0, #250	; 0xfa
 8000990:	0040      	lsls	r0, r0, #1
 8000992:	f000 faff 	bl	8000f94 <HAL_Delay>
	uint16_t rowMeasurment=bh1750_ReadMeasurment(bh);
 8000996:	0020      	movs	r0, r4
 8000998:	f7ff ffe7 	bl	800096a <bh1750_ReadMeasurment>
	return rowMeasurment;
}
 800099c:	bd10      	pop	{r4, pc}

0800099e <bh1750_Init>:
void bh1750_Init(bh1750_t *bh,I2C_HandleTypeDef* i2c,uint8_t addres,bh1750State_t s)
{
 800099e:	b570      	push	{r4, r5, r6, lr}
 80009a0:	0004      	movs	r4, r0
 80009a2:	1e1d      	subs	r5, r3, #0
	bh->bh_i2c=i2c;
 80009a4:	6001      	str	r1, [r0, #0]
	bh->addr=addres;
 80009a6:	7102      	strb	r2, [r0, #4]
	if(s!=0)
 80009a8:	d101      	bne.n	80009ae <bh1750_Init+0x10>
	bh1750_ChangeState(bh, s);
	bh->state=s;
 80009aa:	7165      	strb	r5, [r4, #5]
}
 80009ac:	bd70      	pop	{r4, r5, r6, pc}
	bh1750_ChangeState(bh, s);
 80009ae:	0019      	movs	r1, r3
 80009b0:	f7ff ffb4 	bl	800091c <bh1750_ChangeState>
 80009b4:	e7f9      	b.n	80009aa <bh1750_Init+0xc>
	...

080009b8 <MX_DMA_Init>:

/**
  * Enable DMA controller clock
  */
void MX_DMA_Init(void)
{
 80009b8:	b082      	sub	sp, #8

  /* DMA controller clock enable */
  __HAL_RCC_DMA1_CLK_ENABLE();
 80009ba:	4a05      	ldr	r2, [pc, #20]	; (80009d0 <MX_DMA_Init+0x18>)
 80009bc:	6b91      	ldr	r1, [r2, #56]	; 0x38
 80009be:	2301      	movs	r3, #1
 80009c0:	4319      	orrs	r1, r3
 80009c2:	6391      	str	r1, [r2, #56]	; 0x38
 80009c4:	6b92      	ldr	r2, [r2, #56]	; 0x38
 80009c6:	4013      	ands	r3, r2
 80009c8:	9301      	str	r3, [sp, #4]
 80009ca:	9b01      	ldr	r3, [sp, #4]

}
 80009cc:	b002      	add	sp, #8
 80009ce:	4770      	bx	lr
 80009d0:	40021000 	.word	0x40021000

080009d4 <MX_GPIO_Init>:
/* USER CODE END 1 */

/** Configure pins
*/
void MX_GPIO_Init(void)
{
 80009d4:	b570      	push	{r4, r5, r6, lr}
 80009d6:	b088      	sub	sp, #32

  GPIO_InitTypeDef GPIO_InitStruct = {0};
 80009d8:	2214      	movs	r2, #20
 80009da:	2100      	movs	r1, #0
 80009dc:	a803      	add	r0, sp, #12
 80009de:	f002 fe59 	bl	8003694 <memset>

  /* GPIO Ports Clock Enable */
  __HAL_RCC_GPIOB_CLK_ENABLE();
 80009e2:	4b12      	ldr	r3, [pc, #72]	; (8000a2c <MX_GPIO_Init+0x58>)
 80009e4:	6b59      	ldr	r1, [r3, #52]	; 0x34
 80009e6:	2202      	movs	r2, #2
 80009e8:	4311      	orrs	r1, r2
 80009ea:	6359      	str	r1, [r3, #52]	; 0x34
 80009ec:	6b59      	ldr	r1, [r3, #52]	; 0x34
 80009ee:	400a      	ands	r2, r1
 80009f0:	9201      	str	r2, [sp, #4]
 80009f2:	9a01      	ldr	r2, [sp, #4]
  __HAL_RCC_GPIOA_CLK_ENABLE();
 80009f4:	6b5a      	ldr	r2, [r3, #52]	; 0x34
 80009f6:	2401      	movs	r4, #1
 80009f8:	4322      	orrs	r2, r4
 80009fa:	635a      	str	r2, [r3, #52]	; 0x34
 80009fc:	6b5b      	ldr	r3, [r3, #52]	; 0x34
 80009fe:	4023      	ands	r3, r4
 8000a00:	9302      	str	r3, [sp, #8]
 8000a02:	9b02      	ldr	r3, [sp, #8]

  /*Configure GPIO pin Output Level */
  HAL_GPIO_WritePin(MAX485_Selector_GPIO_Port, MAX485_Selector_Pin, GPIO_PIN_RESET);
 8000a04:	2680      	movs	r6, #128	; 0x80
 8000a06:	01b6      	lsls	r6, r6, #6
 8000a08:	25a0      	movs	r5, #160	; 0xa0
 8000a0a:	05ed      	lsls	r5, r5, #23
 8000a0c:	2200      	movs	r2, #0
 8000a0e:	0031      	movs	r1, r6
 8000a10:	0028      	movs	r0, r5
 8000a12:	f000 fde3 	bl	80015dc <HAL_GPIO_WritePin>

  /*Configure GPIO pin : PtPin */
  GPIO_InitStruct.Pin = MAX485_Selector_Pin;
 8000a16:	9603      	str	r6, [sp, #12]
  GPIO_InitStruct.Mode = GPIO_MODE_OUTPUT_PP;
 8000a18:	9404      	str	r4, [sp, #16]
  GPIO_InitStruct.Pull = GPIO_NOPULL;
 8000a1a:	2300      	movs	r3, #0
 8000a1c:	9305      	str	r3, [sp, #20]
  GPIO_InitStruct.Speed = GPIO_SPEED_FREQ_LOW;
 8000a1e:	9306      	str	r3, [sp, #24]
  HAL_GPIO_Init(MAX485_Selector_GPIO_Port, &GPIO_InitStruct);
 8000a20:	a903      	add	r1, sp, #12
 8000a22:	0028      	movs	r0, r5
 8000a24:	f000 fd1e 	bl	8001464 <HAL_GPIO_Init>

}
 8000a28:	b008      	add	sp, #32
 8000a2a:	bd70      	pop	{r4, r5, r6, pc}
 8000a2c:	40021000 	.word	0x40021000

08000a30 <MX_I2C2_Init>:

I2C_HandleTypeDef hi2c2;

/* I2C2 init function */
void MX_I2C2_Init(void)
{
 8000a30:	b510      	push	{r4, lr}
  /* USER CODE END I2C2_Init 0 */

  /* USER CODE BEGIN I2C2_Init 1 */

  /* USER CODE END I2C2_Init 1 */
  hi2c2.Instance = I2C2;
 8000a32:	4814      	ldr	r0, [pc, #80]	; (8000a84 <MX_I2C2_Init+0x54>)
 8000a34:	4b14      	ldr	r3, [pc, #80]	; (8000a88 <MX_I2C2_Init+0x58>)
 8000a36:	6003      	str	r3, [r0, #0]
  hi2c2.Init.Timing = 0x00303D5B;
 8000a38:	4b14      	ldr	r3, [pc, #80]	; (8000a8c <MX_I2C2_Init+0x5c>)
 8000a3a:	6043      	str	r3, [r0, #4]
  hi2c2.Init.OwnAddress1 = 0;
 8000a3c:	2300      	movs	r3, #0
 8000a3e:	6083      	str	r3, [r0, #8]
  hi2c2.Init.AddressingMode = I2C_ADDRESSINGMODE_7BIT;
 8000a40:	2201      	movs	r2, #1
 8000a42:	60c2      	str	r2, [r0, #12]
  hi2c2.Init.DualAddressMode = I2C_DUALADDRESS_DISABLE;
 8000a44:	6103      	str	r3, [r0, #16]
  hi2c2.Init.OwnAddress2 = 0;
 8000a46:	6143      	str	r3, [r0, #20]
  hi2c2.Init.OwnAddress2Masks = I2C_OA2_NOMASK;
 8000a48:	6183      	str	r3, [r0, #24]
  hi2c2.Init.GeneralCallMode = I2C_GENERALCALL_DISABLE;
 8000a4a:	61c3      	str	r3, [r0, #28]
  hi2c2.Init.NoStretchMode = I2C_NOSTRETCH_DISABLE;
 8000a4c:	6203      	str	r3, [r0, #32]
  if (HAL_I2C_Init(&hi2c2) != HAL_OK)
 8000a4e:	f000 ff45 	bl	80018dc <HAL_I2C_Init>
 8000a52:	2800      	cmp	r0, #0
 8000a54:	d10c      	bne.n	8000a70 <MX_I2C2_Init+0x40>
    Error_Handler();
  }

  /** Configure Analogue filter
  */
  if (HAL_I2CEx_ConfigAnalogFilter(&hi2c2, I2C_ANALOGFILTER_ENABLE) != HAL_OK)
 8000a56:	2100      	movs	r1, #0
 8000a58:	480a      	ldr	r0, [pc, #40]	; (8000a84 <MX_I2C2_Init+0x54>)
 8000a5a:	f001 f919 	bl	8001c90 <HAL_I2CEx_ConfigAnalogFilter>
 8000a5e:	2800      	cmp	r0, #0
 8000a60:	d109      	bne.n	8000a76 <MX_I2C2_Init+0x46>
    Error_Handler();
  }

  /** Configure Digital filter
  */
  if (HAL_I2CEx_ConfigDigitalFilter(&hi2c2, 0) != HAL_OK)
 8000a62:	2100      	movs	r1, #0
 8000a64:	4807      	ldr	r0, [pc, #28]	; (8000a84 <MX_I2C2_Init+0x54>)
 8000a66:	f001 f93f 	bl	8001ce8 <HAL_I2CEx_ConfigDigitalFilter>
 8000a6a:	2800      	cmp	r0, #0
 8000a6c:	d106      	bne.n	8000a7c <MX_I2C2_Init+0x4c>
  }
  /* USER CODE BEGIN I2C2_Init 2 */

  /* USER CODE END I2C2_Init 2 */

}
 8000a6e:	bd10      	pop	{r4, pc}
    Error_Handler();
 8000a70:	f000 f852 	bl	8000b18 <Error_Handler>
 8000a74:	e7ef      	b.n	8000a56 <MX_I2C2_Init+0x26>
    Error_Handler();
 8000a76:	f000 f84f 	bl	8000b18 <Error_Handler>
 8000a7a:	e7f2      	b.n	8000a62 <MX_I2C2_Init+0x32>
    Error_Handler();
 8000a7c:	f000 f84c 	bl	8000b18 <Error_Handler>
}
 8000a80:	e7f5      	b.n	8000a6e <MX_I2C2_Init+0x3e>
 8000a82:	46c0      	nop			; (mov r8, r8)
 8000a84:	2000018c 	.word	0x2000018c
 8000a88:	40005800 	.word	0x40005800
 8000a8c:	00303d5b 	.word	0x00303d5b

08000a90 <HAL_I2C_MspInit>:

void HAL_I2C_MspInit(I2C_HandleTypeDef* i2cHandle)
{
 8000a90:	b510      	push	{r4, lr}
 8000a92:	b088      	sub	sp, #32
 8000a94:	0004      	movs	r4, r0

  GPIO_InitTypeDef GPIO_InitStruct = {0};
 8000a96:	2214      	movs	r2, #20
 8000a98:	2100      	movs	r1, #0
 8000a9a:	a803      	add	r0, sp, #12
 8000a9c:	f002 fdfa 	bl	8003694 <memset>
  if(i2cHandle->Instance==I2C2)
 8000aa0:	6822      	ldr	r2, [r4, #0]
 8000aa2:	4b12      	ldr	r3, [pc, #72]	; (8000aec <HAL_I2C_MspInit+0x5c>)
 8000aa4:	429a      	cmp	r2, r3
 8000aa6:	d001      	beq.n	8000aac <HAL_I2C_MspInit+0x1c>
    __HAL_RCC_I2C2_CLK_ENABLE();
  /* USER CODE BEGIN I2C2_MspInit 1 */

  /* USER CODE END I2C2_MspInit 1 */
  }
}
 8000aa8:	b008      	add	sp, #32
 8000aaa:	bd10      	pop	{r4, pc}
    __HAL_RCC_GPIOA_CLK_ENABLE();
 8000aac:	4c10      	ldr	r4, [pc, #64]	; (8000af0 <HAL_I2C_MspInit+0x60>)
 8000aae:	6b62      	ldr	r2, [r4, #52]	; 0x34
 8000ab0:	2301      	movs	r3, #1
 8000ab2:	431a      	orrs	r2, r3
 8000ab4:	6362      	str	r2, [r4, #52]	; 0x34
 8000ab6:	6b62      	ldr	r2, [r4, #52]	; 0x34
 8000ab8:	4013      	ands	r3, r2
 8000aba:	9301      	str	r3, [sp, #4]
 8000abc:	9b01      	ldr	r3, [sp, #4]
    GPIO_InitStruct.Pin = GPIO_PIN_11|GPIO_PIN_12;
 8000abe:	23c0      	movs	r3, #192	; 0xc0
 8000ac0:	015b      	lsls	r3, r3, #5
 8000ac2:	9303      	str	r3, [sp, #12]
    GPIO_InitStruct.Mode = GPIO_MODE_AF_OD;
 8000ac4:	2312      	movs	r3, #18
 8000ac6:	9304      	str	r3, [sp, #16]
    GPIO_InitStruct.Alternate = GPIO_AF6_I2C2;
 8000ac8:	3b0c      	subs	r3, #12
 8000aca:	9307      	str	r3, [sp, #28]
    HAL_GPIO_Init(GPIOA, &GPIO_InitStruct);
 8000acc:	20a0      	movs	r0, #160	; 0xa0
 8000ace:	a903      	add	r1, sp, #12
 8000ad0:	05c0      	lsls	r0, r0, #23
 8000ad2:	f000 fcc7 	bl	8001464 <HAL_GPIO_Init>
    __HAL_RCC_I2C2_CLK_ENABLE();
 8000ad6:	6be2      	ldr	r2, [r4, #60]	; 0x3c
 8000ad8:	2180      	movs	r1, #128	; 0x80
 8000ada:	03c9      	lsls	r1, r1, #15
 8000adc:	430a      	orrs	r2, r1
 8000ade:	63e2      	str	r2, [r4, #60]	; 0x3c
 8000ae0:	6be3      	ldr	r3, [r4, #60]	; 0x3c
 8000ae2:	400b      	ands	r3, r1
 8000ae4:	9302      	str	r3, [sp, #8]
 8000ae6:	9b02      	ldr	r3, [sp, #8]
}
 8000ae8:	e7de      	b.n	8000aa8 <HAL_I2C_MspInit+0x18>
 8000aea:	46c0      	nop			; (mov r8, r8)
 8000aec:	40005800 	.word	0x40005800
 8000af0:	40021000 	.word	0x40021000

08000af4 <MX_NVIC_Init>:
/**
  * @brief NVIC Configuration.
  * @retval None
  */
static void MX_NVIC_Init(void)
{
 8000af4:	b510      	push	{r4, lr}
  /* USART1_IRQn interrupt configuration */
  HAL_NVIC_SetPriority(USART1_IRQn, 0, 0);
 8000af6:	2200      	movs	r2, #0
 8000af8:	2100      	movs	r1, #0
 8000afa:	201b      	movs	r0, #27
 8000afc:	f000 fa6c 	bl	8000fd8 <HAL_NVIC_SetPriority>
  HAL_NVIC_EnableIRQ(USART1_IRQn);
 8000b00:	201b      	movs	r0, #27
 8000b02:	f000 fa99 	bl	8001038 <HAL_NVIC_EnableIRQ>
  /* DMA1_Channel1_IRQn interrupt configuration */
  HAL_NVIC_SetPriority(DMA1_Channel1_IRQn, 0, 0);
 8000b06:	2200      	movs	r2, #0
 8000b08:	2100      	movs	r1, #0
 8000b0a:	2009      	movs	r0, #9
 8000b0c:	f000 fa64 	bl	8000fd8 <HAL_NVIC_SetPriority>
  HAL_NVIC_EnableIRQ(DMA1_Channel1_IRQn);
 8000b10:	2009      	movs	r0, #9
 8000b12:	f000 fa91 	bl	8001038 <HAL_NVIC_EnableIRQ>
}
 8000b16:	bd10      	pop	{r4, pc}

08000b18 <Error_Handler>:
  \details Disables IRQ interrupts by setting the I-bit in the CPSR.
           Can only be executed in Privileged modes.
 */
__STATIC_FORCEINLINE void __disable_irq(void)
{
  __ASM volatile ("cpsid i" : : : "memory");
 8000b18:	b672      	cpsid	i
void Error_Handler(void)
{
  /* USER CODE BEGIN Error_Handler_Debug */
   /* User can add his own implementation to report the HAL error return state */
   __disable_irq();
   while(1)
 8000b1a:	e7fe      	b.n	8000b1a <Error_Handler+0x2>

08000b1c <SystemClock_Config>:
{
 8000b1c:	b500      	push	{lr}
 8000b1e:	b093      	sub	sp, #76	; 0x4c
  RCC_OscInitTypeDef RCC_OscInitStruct = {0};
 8000b20:	2234      	movs	r2, #52	; 0x34
 8000b22:	2100      	movs	r1, #0
 8000b24:	a805      	add	r0, sp, #20
 8000b26:	f002 fdb5 	bl	8003694 <memset>
  RCC_ClkInitTypeDef RCC_ClkInitStruct = {0};
 8000b2a:	2210      	movs	r2, #16
 8000b2c:	2100      	movs	r1, #0
 8000b2e:	a801      	add	r0, sp, #4
 8000b30:	f002 fdb0 	bl	8003694 <memset>
  HAL_PWREx_ControlVoltageScaling(PWR_REGULATOR_VOLTAGE_SCALE1);
 8000b34:	2080      	movs	r0, #128	; 0x80
 8000b36:	0080      	lsls	r0, r0, #2
 8000b38:	f001 f926 	bl	8001d88 <HAL_PWREx_ControlVoltageScaling>
  RCC_OscInitStruct.OscillatorType = RCC_OSCILLATORTYPE_HSI|RCC_OSCILLATORTYPE_LSI;
 8000b3c:	230a      	movs	r3, #10
 8000b3e:	9305      	str	r3, [sp, #20]
  RCC_OscInitStruct.HSIState = RCC_HSI_ON;
 8000b40:	33f6      	adds	r3, #246	; 0xf6
 8000b42:	9308      	str	r3, [sp, #32]
  RCC_OscInitStruct.HSIDiv = RCC_HSI_DIV1;
 8000b44:	2300      	movs	r3, #0
 8000b46:	9309      	str	r3, [sp, #36]	; 0x24
  RCC_OscInitStruct.HSICalibrationValue = RCC_HSICALIBRATION_DEFAULT;
 8000b48:	2240      	movs	r2, #64	; 0x40
 8000b4a:	920a      	str	r2, [sp, #40]	; 0x28
  RCC_OscInitStruct.LSIState = RCC_LSI_ON;
 8000b4c:	3a3f      	subs	r2, #63	; 0x3f
 8000b4e:	920b      	str	r2, [sp, #44]	; 0x2c
  RCC_OscInitStruct.PLL.PLLState = RCC_PLL_NONE;
 8000b50:	930c      	str	r3, [sp, #48]	; 0x30
  if (HAL_RCC_OscConfig(&RCC_OscInitStruct) != HAL_OK)
 8000b52:	a805      	add	r0, sp, #20
 8000b54:	f001 f970 	bl	8001e38 <HAL_RCC_OscConfig>
 8000b58:	2800      	cmp	r0, #0
 8000b5a:	d10d      	bne.n	8000b78 <SystemClock_Config+0x5c>
  RCC_ClkInitStruct.ClockType = RCC_CLOCKTYPE_HCLK|RCC_CLOCKTYPE_SYSCLK
 8000b5c:	2307      	movs	r3, #7
 8000b5e:	9301      	str	r3, [sp, #4]
  RCC_ClkInitStruct.SYSCLKSource = RCC_SYSCLKSOURCE_HSI;
 8000b60:	2300      	movs	r3, #0
 8000b62:	9302      	str	r3, [sp, #8]
  RCC_ClkInitStruct.AHBCLKDivider = RCC_SYSCLK_DIV1;
 8000b64:	9303      	str	r3, [sp, #12]
  RCC_ClkInitStruct.APB1CLKDivider = RCC_HCLK_DIV1;
 8000b66:	9304      	str	r3, [sp, #16]
  if (HAL_RCC_ClockConfig(&RCC_ClkInitStruct, FLASH_LATENCY_0) != HAL_OK)
 8000b68:	2100      	movs	r1, #0
 8000b6a:	a801      	add	r0, sp, #4
 8000b6c:	f001 fc12 	bl	8002394 <HAL_RCC_ClockConfig>
 8000b70:	2800      	cmp	r0, #0
 8000b72:	d103      	bne.n	8000b7c <SystemClock_Config+0x60>
}
 8000b74:	b013      	add	sp, #76	; 0x4c
 8000b76:	bd00      	pop	{pc}
    Error_Handler();
 8000b78:	f7ff ffce 	bl	8000b18 <Error_Handler>
    Error_Handler();
 8000b7c:	f7ff ffcc 	bl	8000b18 <Error_Handler>

08000b80 <main>:
{
 8000b80:	b510      	push	{r4, lr}
  HAL_Init();
 8000b82:	f000 f9e1 	bl	8000f48 <HAL_Init>
  SystemClock_Config();
 8000b86:	f7ff ffc9 	bl	8000b1c <SystemClock_Config>
  MX_GPIO_Init();
 8000b8a:	f7ff ff23 	bl	80009d4 <MX_GPIO_Init>
  MX_DMA_Init();
 8000b8e:	f7ff ff13 	bl	80009b8 <MX_DMA_Init>
  MX_I2C2_Init();
 8000b92:	f7ff ff4d 	bl	8000a30 <MX_I2C2_Init>
  MX_RTC_Init();
 8000b96:	f000 f813 	bl	8000bc0 <MX_RTC_Init>
  MX_TIM17_Init();
 8000b9a:	f000 f8b5 	bl	8000d08 <MX_TIM17_Init>
  MX_USART1_UART_Init();
 8000b9e:	f000 f8e5 	bl	8000d6c <MX_USART1_UART_Init>
  MX_NVIC_Init();
 8000ba2:	f7ff ffa7 	bl	8000af4 <MX_NVIC_Init>
   HAL_TIM_Base_Start(&htim17);
 8000ba6:	4804      	ldr	r0, [pc, #16]	; (8000bb8 <main+0x38>)
 8000ba8:	f001 fe52 	bl	8002850 <HAL_TIM_Base_Start>
   HAL_Delay(5000);
 8000bac:	4803      	ldr	r0, [pc, #12]	; (8000bbc <main+0x3c>)
 8000bae:	f000 f9f1 	bl	8000f94 <HAL_Delay>
      SM_MainFunction();
 8000bb2:	f7ff fe25 	bl	8000800 <SM_MainFunction>
   while(1)
 8000bb6:	e7fc      	b.n	8000bb2 <main+0x32>
 8000bb8:	20000210 	.word	0x20000210
 8000bbc:	00001388 	.word	0x00001388

08000bc0 <MX_RTC_Init>:

RTC_HandleTypeDef hrtc;

/* RTC init function */
void MX_RTC_Init(void)
{
 8000bc0:	b510      	push	{r4, lr}

  /* USER CODE END RTC_Init 1 */

  /** Initialize RTC Only
  */
  hrtc.Instance = RTC;
 8000bc2:	480c      	ldr	r0, [pc, #48]	; (8000bf4 <MX_RTC_Init+0x34>)
 8000bc4:	4b0c      	ldr	r3, [pc, #48]	; (8000bf8 <MX_RTC_Init+0x38>)
 8000bc6:	6003      	str	r3, [r0, #0]
  hrtc.Init.HourFormat = RTC_HOURFORMAT_24;
 8000bc8:	2300      	movs	r3, #0
 8000bca:	6083      	str	r3, [r0, #8]
  hrtc.Init.AsynchPrediv = 127;
 8000bcc:	227f      	movs	r2, #127	; 0x7f
 8000bce:	60c2      	str	r2, [r0, #12]
  hrtc.Init.SynchPrediv = 255;
 8000bd0:	3280      	adds	r2, #128	; 0x80
 8000bd2:	6102      	str	r2, [r0, #16]
  hrtc.Init.OutPut = RTC_OUTPUT_DISABLE;
 8000bd4:	6143      	str	r3, [r0, #20]
  hrtc.Init.OutPutRemap = RTC_OUTPUT_REMAP_NONE;
 8000bd6:	6183      	str	r3, [r0, #24]
  hrtc.Init.OutPutPolarity = RTC_OUTPUT_POLARITY_HIGH;
 8000bd8:	61c3      	str	r3, [r0, #28]
  hrtc.Init.OutPutType = RTC_OUTPUT_TYPE_OPENDRAIN;
 8000bda:	2280      	movs	r2, #128	; 0x80
 8000bdc:	05d2      	lsls	r2, r2, #23
 8000bde:	6202      	str	r2, [r0, #32]
  hrtc.Init.OutPutPullUp = RTC_OUTPUT_PULLUP_NONE;
 8000be0:	6243      	str	r3, [r0, #36]	; 0x24
  if (HAL_RTC_Init(&hrtc) != HAL_OK)
 8000be2:	f001 fdd9 	bl	8002798 <HAL_RTC_Init>
 8000be6:	2800      	cmp	r0, #0
 8000be8:	d100      	bne.n	8000bec <MX_RTC_Init+0x2c>
  }
  /* USER CODE BEGIN RTC_Init 2 */

  /* USER CODE END RTC_Init 2 */

}
 8000bea:	bd10      	pop	{r4, pc}
    Error_Handler();
 8000bec:	f7ff ff94 	bl	8000b18 <Error_Handler>
}
 8000bf0:	e7fb      	b.n	8000bea <MX_RTC_Init+0x2a>
 8000bf2:	46c0      	nop			; (mov r8, r8)
 8000bf4:	200001e0 	.word	0x200001e0
 8000bf8:	40002800 	.word	0x40002800

08000bfc <HAL_RTC_MspInit>:

void HAL_RTC_MspInit(RTC_HandleTypeDef* rtcHandle)
{
 8000bfc:	b510      	push	{r4, lr}
 8000bfe:	b088      	sub	sp, #32
 8000c00:	0004      	movs	r4, r0

  RCC_PeriphCLKInitTypeDef PeriphClkInit = {0};
 8000c02:	2218      	movs	r2, #24
 8000c04:	2100      	movs	r1, #0
 8000c06:	a802      	add	r0, sp, #8
 8000c08:	f002 fd44 	bl	8003694 <memset>
  if(rtcHandle->Instance==RTC)
 8000c0c:	6822      	ldr	r2, [r4, #0]
 8000c0e:	4b11      	ldr	r3, [pc, #68]	; (8000c54 <HAL_RTC_MspInit+0x58>)
 8000c10:	429a      	cmp	r2, r3
 8000c12:	d001      	beq.n	8000c18 <HAL_RTC_MspInit+0x1c>
    __HAL_RCC_RTCAPB_CLK_ENABLE();
  /* USER CODE BEGIN RTC_MspInit 1 */

  /* USER CODE END RTC_MspInit 1 */
  }
}
 8000c14:	b008      	add	sp, #32
 8000c16:	bd10      	pop	{r4, pc}
    PeriphClkInit.PeriphClockSelection = RCC_PERIPHCLK_RTC;
 8000c18:	2380      	movs	r3, #128	; 0x80
 8000c1a:	029b      	lsls	r3, r3, #10
 8000c1c:	9302      	str	r3, [sp, #8]
    PeriphClkInit.RTCClockSelection = RCC_RTCCLKSOURCE_LSI;
 8000c1e:	2380      	movs	r3, #128	; 0x80
 8000c20:	009b      	lsls	r3, r3, #2
 8000c22:	9307      	str	r3, [sp, #28]
    if (HAL_RCCEx_PeriphCLKConfig(&PeriphClkInit) != HAL_OK)
 8000c24:	a802      	add	r0, sp, #8
 8000c26:	f001 fc95 	bl	8002554 <HAL_RCCEx_PeriphCLKConfig>
 8000c2a:	2800      	cmp	r0, #0
 8000c2c:	d10f      	bne.n	8000c4e <HAL_RTC_MspInit+0x52>
    __HAL_RCC_RTC_ENABLE();
 8000c2e:	4b0a      	ldr	r3, [pc, #40]	; (8000c58 <HAL_RTC_MspInit+0x5c>)
 8000c30:	6dd9      	ldr	r1, [r3, #92]	; 0x5c
 8000c32:	2280      	movs	r2, #128	; 0x80
 8000c34:	0212      	lsls	r2, r2, #8
 8000c36:	430a      	orrs	r2, r1
 8000c38:	65da      	str	r2, [r3, #92]	; 0x5c
    __HAL_RCC_RTCAPB_CLK_ENABLE();
 8000c3a:	6bda      	ldr	r2, [r3, #60]	; 0x3c
 8000c3c:	2180      	movs	r1, #128	; 0x80
 8000c3e:	00c9      	lsls	r1, r1, #3
 8000c40:	430a      	orrs	r2, r1
 8000c42:	63da      	str	r2, [r3, #60]	; 0x3c
 8000c44:	6bdb      	ldr	r3, [r3, #60]	; 0x3c
 8000c46:	400b      	ands	r3, r1
 8000c48:	9301      	str	r3, [sp, #4]
 8000c4a:	9b01      	ldr	r3, [sp, #4]
}
 8000c4c:	e7e2      	b.n	8000c14 <HAL_RTC_MspInit+0x18>
      Error_Handler();
 8000c4e:	f7ff ff63 	bl	8000b18 <Error_Handler>
 8000c52:	e7ec      	b.n	8000c2e <HAL_RTC_MspInit+0x32>
 8000c54:	40002800 	.word	0x40002800
 8000c58:	40021000 	.word	0x40021000

08000c5c <HAL_MspInit>:
/* USER CODE END 0 */
/**
  * Initializes the Global MSP.
  */
void HAL_MspInit(void)
{
 8000c5c:	b082      	sub	sp, #8
  /* USER CODE BEGIN MspInit 0 */

  /* USER CODE END MspInit 0 */

  __HAL_RCC_SYSCFG_CLK_ENABLE();
 8000c5e:	4b0a      	ldr	r3, [pc, #40]	; (8000c88 <HAL_MspInit+0x2c>)
 8000c60:	6c19      	ldr	r1, [r3, #64]	; 0x40
 8000c62:	2201      	movs	r2, #1
 8000c64:	4311      	orrs	r1, r2
 8000c66:	6419      	str	r1, [r3, #64]	; 0x40
 8000c68:	6c19      	ldr	r1, [r3, #64]	; 0x40
 8000c6a:	400a      	ands	r2, r1
 8000c6c:	9200      	str	r2, [sp, #0]
 8000c6e:	9a00      	ldr	r2, [sp, #0]
  __HAL_RCC_PWR_CLK_ENABLE();
 8000c70:	6bda      	ldr	r2, [r3, #60]	; 0x3c
 8000c72:	2180      	movs	r1, #128	; 0x80
 8000c74:	0549      	lsls	r1, r1, #21
 8000c76:	430a      	orrs	r2, r1
 8000c78:	63da      	str	r2, [r3, #60]	; 0x3c
 8000c7a:	6bdb      	ldr	r3, [r3, #60]	; 0x3c
 8000c7c:	400b      	ands	r3, r1
 8000c7e:	9301      	str	r3, [sp, #4]
 8000c80:	9b01      	ldr	r3, [sp, #4]
  /* System interrupt init*/

  /* USER CODE BEGIN MspInit 1 */

  /* USER CODE END MspInit 1 */
}
 8000c82:	b002      	add	sp, #8
 8000c84:	4770      	bx	lr
 8000c86:	46c0      	nop			; (mov r8, r8)
 8000c88:	40021000 	.word	0x40021000

08000c8c <NMI_Handler>:
{
  /* USER CODE BEGIN NonMaskableInt_IRQn 0 */

  /* USER CODE END NonMaskableInt_IRQn 0 */
  /* USER CODE BEGIN NonMaskableInt_IRQn 1 */
  while (1)
 8000c8c:	e7fe      	b.n	8000c8c <NMI_Handler>

08000c8e <HardFault_Handler>:
void HardFault_Handler(void)
{
  /* USER CODE BEGIN HardFault_IRQn 0 */

  /* USER CODE END HardFault_IRQn 0 */
  while (1)
 8000c8e:	e7fe      	b.n	8000c8e <HardFault_Handler>

08000c90 <SVC_Handler>:

  /* USER CODE END SVC_IRQn 0 */
  /* USER CODE BEGIN SVC_IRQn 1 */

  /* USER CODE END SVC_IRQn 1 */
}
 8000c90:	4770      	bx	lr

08000c92 <PendSV_Handler>:

  /* USER CODE END PendSV_IRQn 0 */
  /* USER CODE BEGIN PendSV_IRQn 1 */

  /* USER CODE END PendSV_IRQn 1 */
}
 8000c92:	4770      	bx	lr

08000c94 <SysTick_Handler>:

/**
  * @brief This function handles System tick timer.
  */
void SysTick_Handler(void)
{
 8000c94:	b510      	push	{r4, lr}
  /* USER CODE BEGIN SysTick_IRQn 0 */

  /* USER CODE END SysTick_IRQn 0 */
  HAL_IncTick();
 8000c96:	f000 f96b 	bl	8000f70 <HAL_IncTick>
  /* USER CODE BEGIN SysTick_IRQn 1 */

  /* USER CODE END SysTick_IRQn 1 */
}
 8000c9a:	bd10      	pop	{r4, pc}

08000c9c <DMA1_Channel1_IRQHandler>:

/**
  * @brief This function handles DMA1 channel 1 interrupt.
  */
void DMA1_Channel1_IRQHandler(void)
{
 8000c9c:	b510      	push	{r4, lr}
  /* USER CODE BEGIN DMA1_Channel1_IRQn 0 */

  /* USER CODE END DMA1_Channel1_IRQn 0 */
  HAL_DMA_IRQHandler(&hdma_usart1_rx);
 8000c9e:	4802      	ldr	r0, [pc, #8]	; (8000ca8 <DMA1_Channel1_IRQHandler+0xc>)
 8000ca0:	f000 fb7a 	bl	8001398 <HAL_DMA_IRQHandler>
  /* USER CODE BEGIN DMA1_Channel1_IRQn 1 */

  /* USER CODE END DMA1_Channel1_IRQn 1 */
}
 8000ca4:	bd10      	pop	{r4, pc}
 8000ca6:	46c0      	nop			; (mov r8, r8)
 8000ca8:	2000025c 	.word	0x2000025c

08000cac <USART1_IRQHandler>:

/**
  * @brief This function handles USART1 global interrupt / USART1 wake-up interrupt through EXTI line 25.
  */
void USART1_IRQHandler(void)
{
 8000cac:	b510      	push	{r4, lr}
  /* USER CODE BEGIN USART1_IRQn 0 */

  /* USER CODE END USART1_IRQn 0 */
  HAL_UART_IRQHandler(&huart1);
 8000cae:	4802      	ldr	r0, [pc, #8]	; (8000cb8 <USART1_IRQHandler+0xc>)
 8000cb0:	f001 ff0a 	bl	8002ac8 <HAL_UART_IRQHandler>
  /* USER CODE BEGIN USART1_IRQn 1 */

  /* USER CODE END USART1_IRQn 1 */
}
 8000cb4:	bd10      	pop	{r4, pc}
 8000cb6:	46c0      	nop			; (mov r8, r8)
 8000cb8:	200002b8 	.word	0x200002b8

08000cbc <_sbrk>:
 *
 * @param incr Memory size
 * @return Pointer to allocated memory
 */
void *_sbrk(ptrdiff_t incr)
{
 8000cbc:	b510      	push	{r4, lr}
 8000cbe:	0003      	movs	r3, r0
  extern uint8_t _end; /* Symbol defined in the linker script */
  extern uint8_t _estack; /* Symbol defined in the linker script */
  extern uint32_t _Min_Stack_Size; /* Symbol defined in the linker script */
  const uint32_t stack_limit = (uint32_t)&_estack - (uint32_t)&_Min_Stack_Size;
 8000cc0:	4a0c      	ldr	r2, [pc, #48]	; (8000cf4 <_sbrk+0x38>)
 8000cc2:	490d      	ldr	r1, [pc, #52]	; (8000cf8 <_sbrk+0x3c>)
 8000cc4:	1a52      	subs	r2, r2, r1
  const uint8_t *max_heap = (uint8_t *)stack_limit;
  uint8_t *prev_heap_end;

  /* Initialize heap end at first call */
  if (NULL == __sbrk_heap_end)
 8000cc6:	490d      	ldr	r1, [pc, #52]	; (8000cfc <_sbrk+0x40>)
 8000cc8:	6809      	ldr	r1, [r1, #0]
 8000cca:	2900      	cmp	r1, #0
 8000ccc:	d007      	beq.n	8000cde <_sbrk+0x22>
  {
    __sbrk_heap_end = &_end;
  }

  /* Protect heap from growing into the reserved MSP stack */
  if (__sbrk_heap_end + incr > max_heap)
 8000cce:	490b      	ldr	r1, [pc, #44]	; (8000cfc <_sbrk+0x40>)
 8000cd0:	6808      	ldr	r0, [r1, #0]
 8000cd2:	18c3      	adds	r3, r0, r3
 8000cd4:	4293      	cmp	r3, r2
 8000cd6:	d806      	bhi.n	8000ce6 <_sbrk+0x2a>
    errno = ENOMEM;
    return (void *)-1;
  }

  prev_heap_end = __sbrk_heap_end;
  __sbrk_heap_end += incr;
 8000cd8:	4a08      	ldr	r2, [pc, #32]	; (8000cfc <_sbrk+0x40>)
 8000cda:	6013      	str	r3, [r2, #0]

  return (void *)prev_heap_end;
}
 8000cdc:	bd10      	pop	{r4, pc}
    __sbrk_heap_end = &_end;
 8000cde:	4907      	ldr	r1, [pc, #28]	; (8000cfc <_sbrk+0x40>)
 8000ce0:	4807      	ldr	r0, [pc, #28]	; (8000d00 <_sbrk+0x44>)
 8000ce2:	6008      	str	r0, [r1, #0]
 8000ce4:	e7f3      	b.n	8000cce <_sbrk+0x12>
    errno = ENOMEM;
 8000ce6:	f002 fcab 	bl	8003640 <__errno>
 8000cea:	230c      	movs	r3, #12
 8000cec:	6003      	str	r3, [r0, #0]
    return (void *)-1;
 8000cee:	2001      	movs	r0, #1
 8000cf0:	4240      	negs	r0, r0
 8000cf2:	e7f3      	b.n	8000cdc <_sbrk+0x20>
 8000cf4:	20002000 	.word	0x20002000
 8000cf8:	00000800 	.word	0x00000800
 8000cfc:	2000020c 	.word	0x2000020c
 8000d00:	20000360 	.word	0x20000360

08000d04 <SystemInit>:
{
  /* Configure the Vector Table location -------------------------------------*/
#if defined(USER_VECT_TAB_ADDRESS)
  SCB->VTOR = VECT_TAB_BASE_ADDRESS | VECT_TAB_OFFSET; /* Vector Table Relocation */
#endif /* USER_VECT_TAB_ADDRESS */
}
 8000d04:	4770      	bx	lr
	...

08000d08 <MX_TIM17_Init>:

TIM_HandleTypeDef htim17;

/* TIM17 init function */
void MX_TIM17_Init(void)
{
 8000d08:	b510      	push	{r4, lr}
  /* USER CODE END TIM17_Init 0 */

  /* USER CODE BEGIN TIM17_Init 1 */

  /* USER CODE END TIM17_Init 1 */
  htim17.Instance = TIM17;
 8000d0a:	480a      	ldr	r0, [pc, #40]	; (8000d34 <MX_TIM17_Init+0x2c>)
 8000d0c:	4b0a      	ldr	r3, [pc, #40]	; (8000d38 <MX_TIM17_Init+0x30>)
 8000d0e:	6003      	str	r3, [r0, #0]
  htim17.Init.Prescaler = 15;
 8000d10:	230f      	movs	r3, #15
 8000d12:	6043      	str	r3, [r0, #4]
  htim17.Init.CounterMode = TIM_COUNTERMODE_UP;
 8000d14:	2300      	movs	r3, #0
 8000d16:	6083      	str	r3, [r0, #8]
  htim17.Init.Period = 65535;
 8000d18:	4a08      	ldr	r2, [pc, #32]	; (8000d3c <MX_TIM17_Init+0x34>)
 8000d1a:	60c2      	str	r2, [r0, #12]
  htim17.Init.ClockDivision = TIM_CLOCKDIVISION_DIV1;
 8000d1c:	6103      	str	r3, [r0, #16]
  htim17.Init.RepetitionCounter = 0;
 8000d1e:	6143      	str	r3, [r0, #20]
  htim17.Init.AutoReloadPreload = TIM_AUTORELOAD_PRELOAD_DISABLE;
 8000d20:	6183      	str	r3, [r0, #24]
  if (HAL_TIM_Base_Init(&htim17) != HAL_OK)
 8000d22:	f001 fe05 	bl	8002930 <HAL_TIM_Base_Init>
 8000d26:	2800      	cmp	r0, #0
 8000d28:	d100      	bne.n	8000d2c <MX_TIM17_Init+0x24>
  }
  /* USER CODE BEGIN TIM17_Init 2 */

  /* USER CODE END TIM17_Init 2 */

}
 8000d2a:	bd10      	pop	{r4, pc}
    Error_Handler();
 8000d2c:	f7ff fef4 	bl	8000b18 <Error_Handler>
}
 8000d30:	e7fb      	b.n	8000d2a <MX_TIM17_Init+0x22>
 8000d32:	46c0      	nop			; (mov r8, r8)
 8000d34:	20000210 	.word	0x20000210
 8000d38:	40014800 	.word	0x40014800
 8000d3c:	0000ffff 	.word	0x0000ffff

08000d40 <HAL_TIM_Base_MspInit>:

void HAL_TIM_Base_MspInit(TIM_HandleTypeDef* tim_baseHandle)
{
 8000d40:	b082      	sub	sp, #8

  if(tim_baseHandle->Instance==TIM17)
 8000d42:	6802      	ldr	r2, [r0, #0]
 8000d44:	4b07      	ldr	r3, [pc, #28]	; (8000d64 <HAL_TIM_Base_MspInit+0x24>)
 8000d46:	429a      	cmp	r2, r3
 8000d48:	d001      	beq.n	8000d4e <HAL_TIM_Base_MspInit+0xe>
    __HAL_RCC_TIM17_CLK_ENABLE();
  /* USER CODE BEGIN TIM17_MspInit 1 */

  /* USER CODE END TIM17_MspInit 1 */
  }
}
 8000d4a:	b002      	add	sp, #8
 8000d4c:	4770      	bx	lr
    __HAL_RCC_TIM17_CLK_ENABLE();
 8000d4e:	4a06      	ldr	r2, [pc, #24]	; (8000d68 <HAL_TIM_Base_MspInit+0x28>)
 8000d50:	6c11      	ldr	r1, [r2, #64]	; 0x40
 8000d52:	2080      	movs	r0, #128	; 0x80
 8000d54:	02c0      	lsls	r0, r0, #11
 8000d56:	4301      	orrs	r1, r0
 8000d58:	6411      	str	r1, [r2, #64]	; 0x40
 8000d5a:	6c13      	ldr	r3, [r2, #64]	; 0x40
 8000d5c:	4003      	ands	r3, r0
 8000d5e:	9301      	str	r3, [sp, #4]
 8000d60:	9b01      	ldr	r3, [sp, #4]
}
 8000d62:	e7f2      	b.n	8000d4a <HAL_TIM_Base_MspInit+0xa>
 8000d64:	40014800 	.word	0x40014800
 8000d68:	40021000 	.word	0x40021000

08000d6c <MX_USART1_UART_Init>:
DMA_HandleTypeDef hdma_usart1_rx;

/* USART1 init function */

void MX_USART1_UART_Init(void)
{
 8000d6c:	b510      	push	{r4, lr}
  /* USER CODE END USART1_Init 0 */

  /* USER CODE BEGIN USART1_Init 1 */

  /* USER CODE END USART1_Init 1 */
  huart1.Instance = USART1;
 8000d6e:	4819      	ldr	r0, [pc, #100]	; (8000dd4 <MX_USART1_UART_Init+0x68>)
 8000d70:	4b19      	ldr	r3, [pc, #100]	; (8000dd8 <MX_USART1_UART_Init+0x6c>)
 8000d72:	6003      	str	r3, [r0, #0]
  huart1.Init.BaudRate = 2400;
 8000d74:	2396      	movs	r3, #150	; 0x96
 8000d76:	011b      	lsls	r3, r3, #4
 8000d78:	6043      	str	r3, [r0, #4]
  huart1.Init.WordLength = UART_WORDLENGTH_8B;
 8000d7a:	2300      	movs	r3, #0
 8000d7c:	6083      	str	r3, [r0, #8]
  huart1.Init.StopBits = UART_STOPBITS_1;
 8000d7e:	60c3      	str	r3, [r0, #12]
  huart1.Init.Parity = UART_PARITY_NONE;
 8000d80:	6103      	str	r3, [r0, #16]
  huart1.Init.Mode = UART_MODE_TX_RX;
 8000d82:	220c      	movs	r2, #12
 8000d84:	6142      	str	r2, [r0, #20]
  huart1.Init.HwFlowCtl = UART_HWCONTROL_NONE;
 8000d86:	6183      	str	r3, [r0, #24]
  huart1.Init.OverSampling = UART_OVERSAMPLING_16;
 8000d88:	61c3      	str	r3, [r0, #28]
  huart1.Init.OneBitSampling = UART_ONE_BIT_SAMPLE_DISABLE;
 8000d8a:	6203      	str	r3, [r0, #32]
  huart1.Init.ClockPrescaler = UART_PRESCALER_DIV1;
 8000d8c:	6243      	str	r3, [r0, #36]	; 0x24
  huart1.AdvancedInit.AdvFeatureInit = UART_ADVFEATURE_NO_INIT;
 8000d8e:	6283      	str	r3, [r0, #40]	; 0x28
  if (HAL_UART_Init(&huart1) != HAL_OK)
 8000d90:	f002 faf0 	bl	8003374 <HAL_UART_Init>
 8000d94:	2800      	cmp	r0, #0
 8000d96:	d111      	bne.n	8000dbc <MX_USART1_UART_Init+0x50>
  {
    Error_Handler();
  }
  if (HAL_UARTEx_SetTxFifoThreshold(&huart1, UART_TXFIFO_THRESHOLD_1_8) != HAL_OK)
 8000d98:	2100      	movs	r1, #0
 8000d9a:	480e      	ldr	r0, [pc, #56]	; (8000dd4 <MX_USART1_UART_Init+0x68>)
 8000d9c:	f002 fbc8 	bl	8003530 <HAL_UARTEx_SetTxFifoThreshold>
 8000da0:	2800      	cmp	r0, #0
 8000da2:	d10e      	bne.n	8000dc2 <MX_USART1_UART_Init+0x56>
  {
    Error_Handler();
  }
  if (HAL_UARTEx_SetRxFifoThreshold(&huart1, UART_RXFIFO_THRESHOLD_1_8) != HAL_OK)
 8000da4:	2100      	movs	r1, #0
 8000da6:	480b      	ldr	r0, [pc, #44]	; (8000dd4 <MX_USART1_UART_Init+0x68>)
 8000da8:	f002 fbe8 	bl	800357c <HAL_UARTEx_SetRxFifoThreshold>
 8000dac:	2800      	cmp	r0, #0
 8000dae:	d10b      	bne.n	8000dc8 <MX_USART1_UART_Init+0x5c>
  {
    Error_Handler();
  }
  if (HAL_UARTEx_DisableFifoMode(&huart1) != HAL_OK)
 8000db0:	4808      	ldr	r0, [pc, #32]	; (8000dd4 <MX_USART1_UART_Init+0x68>)
 8000db2:	f002 fb9d 	bl	80034f0 <HAL_UARTEx_DisableFifoMode>
 8000db6:	2800      	cmp	r0, #0
 8000db8:	d109      	bne.n	8000dce <MX_USART1_UART_Init+0x62>
  }
  /* USER CODE BEGIN USART1_Init 2 */

  /* USER CODE END USART1_Init 2 */

}
 8000dba:	bd10      	pop	{r4, pc}
    Error_Handler();
 8000dbc:	f7ff feac 	bl	8000b18 <Error_Handler>
 8000dc0:	e7ea      	b.n	8000d98 <MX_USART1_UART_Init+0x2c>
    Error_Handler();
 8000dc2:	f7ff fea9 	bl	8000b18 <Error_Handler>
 8000dc6:	e7ed      	b.n	8000da4 <MX_USART1_UART_Init+0x38>
    Error_Handler();
 8000dc8:	f7ff fea6 	bl	8000b18 <Error_Handler>
 8000dcc:	e7f0      	b.n	8000db0 <MX_USART1_UART_Init+0x44>
    Error_Handler();
 8000dce:	f7ff fea3 	bl	8000b18 <Error_Handler>
}
 8000dd2:	e7f2      	b.n	8000dba <MX_USART1_UART_Init+0x4e>
 8000dd4:	200002b8 	.word	0x200002b8
 8000dd8:	40013800 	.word	0x40013800

08000ddc <HAL_UART_MspInit>:

void HAL_UART_MspInit(UART_HandleTypeDef* uartHandle)
{
 8000ddc:	b530      	push	{r4, r5, lr}
 8000dde:	b08f      	sub	sp, #60	; 0x3c
 8000de0:	0004      	movs	r4, r0

  GPIO_InitTypeDef GPIO_InitStruct = {0};
 8000de2:	2214      	movs	r2, #20
 8000de4:	2100      	movs	r1, #0
 8000de6:	a809      	add	r0, sp, #36	; 0x24
 8000de8:	f002 fc54 	bl	8003694 <memset>
  RCC_PeriphCLKInitTypeDef PeriphClkInit = {0};
 8000dec:	2218      	movs	r2, #24
 8000dee:	2100      	movs	r1, #0
 8000df0:	a803      	add	r0, sp, #12
 8000df2:	f002 fc4f 	bl	8003694 <memset>
  if(uartHandle->Instance==USART1)
 8000df6:	4b24      	ldr	r3, [pc, #144]	; (8000e88 <HAL_UART_MspInit+0xac>)
 8000df8:	6822      	ldr	r2, [r4, #0]
 8000dfa:	429a      	cmp	r2, r3
 8000dfc:	d001      	beq.n	8000e02 <HAL_UART_MspInit+0x26>

  /* USER CODE BEGIN USART1_MspInit 1 */

  /* USER CODE END USART1_MspInit 1 */
  }
}
 8000dfe:	b00f      	add	sp, #60	; 0x3c
 8000e00:	bd30      	pop	{r4, r5, pc}
    PeriphClkInit.PeriphClockSelection = RCC_PERIPHCLK_USART1;
 8000e02:	2301      	movs	r3, #1
 8000e04:	9303      	str	r3, [sp, #12]
    PeriphClkInit.Usart1ClockSelection = RCC_USART1CLKSOURCE_HSI;
 8000e06:	3301      	adds	r3, #1
 8000e08:	9304      	str	r3, [sp, #16]
    if (HAL_RCCEx_PeriphCLKConfig(&PeriphClkInit) != HAL_OK)
 8000e0a:	a803      	add	r0, sp, #12
 8000e0c:	f001 fba2 	bl	8002554 <HAL_RCCEx_PeriphCLKConfig>
 8000e10:	2800      	cmp	r0, #0
 8000e12:	d132      	bne.n	8000e7a <HAL_UART_MspInit+0x9e>
    __HAL_RCC_USART1_CLK_ENABLE();
 8000e14:	4b1d      	ldr	r3, [pc, #116]	; (8000e8c <HAL_UART_MspInit+0xb0>)
 8000e16:	6c19      	ldr	r1, [r3, #64]	; 0x40
 8000e18:	2080      	movs	r0, #128	; 0x80
 8000e1a:	01c0      	lsls	r0, r0, #7
 8000e1c:	4301      	orrs	r1, r0
 8000e1e:	6419      	str	r1, [r3, #64]	; 0x40
 8000e20:	6c1a      	ldr	r2, [r3, #64]	; 0x40
 8000e22:	4002      	ands	r2, r0
 8000e24:	9201      	str	r2, [sp, #4]
 8000e26:	9a01      	ldr	r2, [sp, #4]
    __HAL_RCC_GPIOB_CLK_ENABLE();
 8000e28:	6b59      	ldr	r1, [r3, #52]	; 0x34
 8000e2a:	2202      	movs	r2, #2
 8000e2c:	4311      	orrs	r1, r2
 8000e2e:	6359      	str	r1, [r3, #52]	; 0x34
 8000e30:	6b5b      	ldr	r3, [r3, #52]	; 0x34
 8000e32:	4013      	ands	r3, r2
 8000e34:	9302      	str	r3, [sp, #8]
 8000e36:	9b02      	ldr	r3, [sp, #8]
    GPIO_InitStruct.Pin = GPIO_PIN_7|GPIO_PIN_6;
 8000e38:	23c0      	movs	r3, #192	; 0xc0
 8000e3a:	9309      	str	r3, [sp, #36]	; 0x24
    GPIO_InitStruct.Mode = GPIO_MODE_AF_PP;
 8000e3c:	920a      	str	r2, [sp, #40]	; 0x28
    GPIO_InitStruct.Pull = GPIO_NOPULL;
 8000e3e:	2500      	movs	r5, #0
 8000e40:	950b      	str	r5, [sp, #44]	; 0x2c
    GPIO_InitStruct.Speed = GPIO_SPEED_FREQ_LOW;
 8000e42:	950c      	str	r5, [sp, #48]	; 0x30
    GPIO_InitStruct.Alternate = GPIO_AF0_USART1;
 8000e44:	950d      	str	r5, [sp, #52]	; 0x34
    HAL_GPIO_Init(GPIOB, &GPIO_InitStruct);
 8000e46:	a909      	add	r1, sp, #36	; 0x24
 8000e48:	4811      	ldr	r0, [pc, #68]	; (8000e90 <HAL_UART_MspInit+0xb4>)
 8000e4a:	f000 fb0b 	bl	8001464 <HAL_GPIO_Init>
    hdma_usart1_rx.Instance = DMA1_Channel1;
 8000e4e:	4811      	ldr	r0, [pc, #68]	; (8000e94 <HAL_UART_MspInit+0xb8>)
 8000e50:	4b11      	ldr	r3, [pc, #68]	; (8000e98 <HAL_UART_MspInit+0xbc>)
 8000e52:	6003      	str	r3, [r0, #0]
    hdma_usart1_rx.Init.Request = DMA_REQUEST_USART1_RX;
 8000e54:	2332      	movs	r3, #50	; 0x32
 8000e56:	6043      	str	r3, [r0, #4]
    hdma_usart1_rx.Init.Direction = DMA_PERIPH_TO_MEMORY;
 8000e58:	6085      	str	r5, [r0, #8]
    hdma_usart1_rx.Init.PeriphInc = DMA_PINC_DISABLE;
 8000e5a:	60c5      	str	r5, [r0, #12]
    hdma_usart1_rx.Init.MemInc = DMA_MINC_ENABLE;
 8000e5c:	334e      	adds	r3, #78	; 0x4e
 8000e5e:	6103      	str	r3, [r0, #16]
    hdma_usart1_rx.Init.PeriphDataAlignment = DMA_PDATAALIGN_BYTE;
 8000e60:	6145      	str	r5, [r0, #20]
    hdma_usart1_rx.Init.MemDataAlignment = DMA_MDATAALIGN_BYTE;
 8000e62:	6185      	str	r5, [r0, #24]
    hdma_usart1_rx.Init.Mode = DMA_NORMAL;
 8000e64:	61c5      	str	r5, [r0, #28]
    hdma_usart1_rx.Init.Priority = DMA_PRIORITY_LOW;
 8000e66:	6205      	str	r5, [r0, #32]
    if (HAL_DMA_Init(&hdma_usart1_rx) != HAL_OK)
 8000e68:	f000 f970 	bl	800114c <HAL_DMA_Init>
 8000e6c:	2800      	cmp	r0, #0
 8000e6e:	d107      	bne.n	8000e80 <HAL_UART_MspInit+0xa4>
    __HAL_LINKDMA(uartHandle,hdmarx,hdma_usart1_rx);
 8000e70:	4b08      	ldr	r3, [pc, #32]	; (8000e94 <HAL_UART_MspInit+0xb8>)
 8000e72:	2280      	movs	r2, #128	; 0x80
 8000e74:	50a3      	str	r3, [r4, r2]
 8000e76:	629c      	str	r4, [r3, #40]	; 0x28
}
 8000e78:	e7c1      	b.n	8000dfe <HAL_UART_MspInit+0x22>
      Error_Handler();
 8000e7a:	f7ff fe4d 	bl	8000b18 <Error_Handler>
 8000e7e:	e7c9      	b.n	8000e14 <HAL_UART_MspInit+0x38>
      Error_Handler();
 8000e80:	f7ff fe4a 	bl	8000b18 <Error_Handler>
 8000e84:	e7f4      	b.n	8000e70 <HAL_UART_MspInit+0x94>
 8000e86:	46c0      	nop			; (mov r8, r8)
 8000e88:	40013800 	.word	0x40013800
 8000e8c:	40021000 	.word	0x40021000
 8000e90:	50000400 	.word	0x50000400
 8000e94:	2000025c 	.word	0x2000025c
 8000e98:	40020008 	.word	0x40020008

08000e9c <Reset_Handler>:

  .section .text.Reset_Handler
  .weak Reset_Handler
  .type Reset_Handler, %function
Reset_Handler:
  ldr   r0, =_estack
 8000e9c:	480d      	ldr	r0, [pc, #52]	; (8000ed4 <LoopForever+0x2>)
  mov   sp, r0          /* set stack pointer */
 8000e9e:	4685      	mov	sp, r0

/* Call the clock system initialization function.*/
  bl  SystemInit
 8000ea0:	f7ff ff30 	bl	8000d04 <SystemInit>

/* Copy the data segment initializers from flash to SRAM */
  ldr r0, =_sdata
 8000ea4:	480c      	ldr	r0, [pc, #48]	; (8000ed8 <LoopForever+0x6>)
  ldr r1, =_edata
 8000ea6:	490d      	ldr	r1, [pc, #52]	; (8000edc <LoopForever+0xa>)
  ldr r2, =_sidata
 8000ea8:	4a0d      	ldr	r2, [pc, #52]	; (8000ee0 <LoopForever+0xe>)
  movs r3, #0
 8000eaa:	2300      	movs	r3, #0
  b LoopCopyDataInit
 8000eac:	e002      	b.n	8000eb4 <LoopCopyDataInit>

08000eae <CopyDataInit>:

CopyDataInit:
  ldr r4, [r2, r3]
 8000eae:	58d4      	ldr	r4, [r2, r3]
  str r4, [r0, r3]
 8000eb0:	50c4      	str	r4, [r0, r3]
  adds r3, r3, #4
 8000eb2:	3304      	adds	r3, #4

08000eb4 <LoopCopyDataInit>:

LoopCopyDataInit:
  adds r4, r0, r3
 8000eb4:	18c4      	adds	r4, r0, r3
  cmp r4, r1
 8000eb6:	428c      	cmp	r4, r1
  bcc CopyDataInit
 8000eb8:	d3f9      	bcc.n	8000eae <CopyDataInit>

/* Zero fill the bss segment. */
  ldr r2, =_sbss
 8000eba:	4a0a      	ldr	r2, [pc, #40]	; (8000ee4 <LoopForever+0x12>)
  ldr r4, =_ebss
 8000ebc:	4c0a      	ldr	r4, [pc, #40]	; (8000ee8 <LoopForever+0x16>)
  movs r3, #0
 8000ebe:	2300      	movs	r3, #0
  b LoopFillZerobss
 8000ec0:	e001      	b.n	8000ec6 <LoopFillZerobss>

08000ec2 <FillZerobss>:

FillZerobss:
  str  r3, [r2]
 8000ec2:	6013      	str	r3, [r2, #0]
  adds r2, r2, #4
 8000ec4:	3204      	adds	r2, #4

08000ec6 <LoopFillZerobss>:

LoopFillZerobss:
  cmp r2, r4
 8000ec6:	42a2      	cmp	r2, r4
  bcc FillZerobss
 8000ec8:	d3fb      	bcc.n	8000ec2 <FillZerobss>

/* Call static constructors */
  bl __libc_init_array
 8000eca:	f002 fbbf 	bl	800364c <__libc_init_array>
/* Call the application s entry point.*/
  bl main
 8000ece:	f7ff fe57 	bl	8000b80 <main>

08000ed2 <LoopForever>:

LoopForever:
  b LoopForever
 8000ed2:	e7fe      	b.n	8000ed2 <LoopForever>
  ldr   r0, =_estack
 8000ed4:	20002000 	.word	0x20002000
  ldr r0, =_sdata
 8000ed8:	20000000 	.word	0x20000000
  ldr r1, =_edata
 8000edc:	200000f4 	.word	0x200000f4
  ldr r2, =_sidata
 8000ee0:	0800418c 	.word	0x0800418c
  ldr r2, =_sbss
 8000ee4:	200000f4 	.word	0x200000f4
  ldr r4, =_ebss
 8000ee8:	20000360 	.word	0x20000360

08000eec <ADC1_IRQHandler>:
 * @retval None
*/
  .section .text.Default_Handler,"ax",%progbits
Default_Handler:
Infinite_Loop:
  b Infinite_Loop
 8000eec:	e7fe      	b.n	8000eec <ADC1_IRQHandler>
	...

08000ef0 <HAL_InitTick>:
  *       implementation  in user file.
  * @param TickPriority Tick interrupt priority.
  * @retval HAL status
  */
__weak HAL_StatusTypeDef HAL_InitTick(uint32_t TickPriority)
{
 8000ef0:	b510      	push	{r4, lr}
 8000ef2:	0004      	movs	r4, r0
  HAL_StatusTypeDef  status = HAL_OK;

  /* Check uwTickFreq for MisraC 2012 (even if uwTickFreq is a enum type that doesn't take the value zero)*/ 
  if ((uint32_t)uwTickFreq != 0U)
 8000ef4:	4b11      	ldr	r3, [pc, #68]	; (8000f3c <HAL_InitTick+0x4c>)
 8000ef6:	7819      	ldrb	r1, [r3, #0]
 8000ef8:	2900      	cmp	r1, #0
 8000efa:	d101      	bne.n	8000f00 <HAL_InitTick+0x10>
      status = HAL_ERROR;
    }
  }
  else
  {
    status = HAL_ERROR;
 8000efc:	2001      	movs	r0, #1
  }

  /* Return function status */
  return status;
}
 8000efe:	bd10      	pop	{r4, pc}
    if (HAL_SYSTICK_Config(SystemCoreClock / (1000U /(uint32_t)uwTickFreq)) == 0U)
 8000f00:	20fa      	movs	r0, #250	; 0xfa
 8000f02:	0080      	lsls	r0, r0, #2
 8000f04:	f7ff f906 	bl	8000114 <__udivsi3>
 8000f08:	0001      	movs	r1, r0
 8000f0a:	4b0d      	ldr	r3, [pc, #52]	; (8000f40 <HAL_InitTick+0x50>)
 8000f0c:	6818      	ldr	r0, [r3, #0]
 8000f0e:	f7ff f901 	bl	8000114 <__udivsi3>
 8000f12:	f000 f8ab 	bl	800106c <HAL_SYSTICK_Config>
 8000f16:	2800      	cmp	r0, #0
 8000f18:	d10d      	bne.n	8000f36 <HAL_InitTick+0x46>
      if (TickPriority < (1UL << __NVIC_PRIO_BITS))
 8000f1a:	2c03      	cmp	r4, #3
 8000f1c:	d901      	bls.n	8000f22 <HAL_InitTick+0x32>
        status = HAL_ERROR;
 8000f1e:	2001      	movs	r0, #1
 8000f20:	e7ed      	b.n	8000efe <HAL_InitTick+0xe>
        HAL_NVIC_SetPriority(SysTick_IRQn, TickPriority, 0U);
 8000f22:	3001      	adds	r0, #1
 8000f24:	2200      	movs	r2, #0
 8000f26:	0021      	movs	r1, r4
 8000f28:	4240      	negs	r0, r0
 8000f2a:	f000 f855 	bl	8000fd8 <HAL_NVIC_SetPriority>
        uwTickPrio = TickPriority;
 8000f2e:	4b05      	ldr	r3, [pc, #20]	; (8000f44 <HAL_InitTick+0x54>)
 8000f30:	601c      	str	r4, [r3, #0]
  HAL_StatusTypeDef  status = HAL_OK;
 8000f32:	2000      	movs	r0, #0
 8000f34:	e7e3      	b.n	8000efe <HAL_InitTick+0xe>
      status = HAL_ERROR;
 8000f36:	2001      	movs	r0, #1
 8000f38:	e7e1      	b.n	8000efe <HAL_InitTick+0xe>
 8000f3a:	46c0      	nop			; (mov r8, r8)
 8000f3c:	20000088 	.word	0x20000088
 8000f40:	20000084 	.word	0x20000084
 8000f44:	2000008c 	.word	0x2000008c

08000f48 <HAL_Init>:
{
 8000f48:	b510      	push	{r4, lr}
  __HAL_FLASH_PREFETCH_BUFFER_ENABLE();
 8000f4a:	4a08      	ldr	r2, [pc, #32]	; (8000f6c <HAL_Init+0x24>)
 8000f4c:	6811      	ldr	r1, [r2, #0]
 8000f4e:	2380      	movs	r3, #128	; 0x80
 8000f50:	005b      	lsls	r3, r3, #1
 8000f52:	430b      	orrs	r3, r1
 8000f54:	6013      	str	r3, [r2, #0]
  if (HAL_InitTick(TICK_INT_PRIORITY) != HAL_OK)
 8000f56:	2003      	movs	r0, #3
 8000f58:	f7ff ffca 	bl	8000ef0 <HAL_InitTick>
 8000f5c:	1e04      	subs	r4, r0, #0
 8000f5e:	d002      	beq.n	8000f66 <HAL_Init+0x1e>
    status = HAL_ERROR;
 8000f60:	2401      	movs	r4, #1
}
 8000f62:	0020      	movs	r0, r4
 8000f64:	bd10      	pop	{r4, pc}
  HAL_MspInit();
 8000f66:	f7ff fe79 	bl	8000c5c <HAL_MspInit>
 8000f6a:	e7fa      	b.n	8000f62 <HAL_Init+0x1a>
 8000f6c:	40022000 	.word	0x40022000

08000f70 <HAL_IncTick>:
  *      implementations in user file.
  * @retval None
  */
__weak void HAL_IncTick(void)
{
  uwTick += (uint32_t)uwTickFreq;
 8000f70:	4b03      	ldr	r3, [pc, #12]	; (8000f80 <HAL_IncTick+0x10>)
 8000f72:	781b      	ldrb	r3, [r3, #0]
 8000f74:	4a03      	ldr	r2, [pc, #12]	; (8000f84 <HAL_IncTick+0x14>)
 8000f76:	6811      	ldr	r1, [r2, #0]
 8000f78:	185b      	adds	r3, r3, r1
 8000f7a:	6013      	str	r3, [r2, #0]
}
 8000f7c:	4770      	bx	lr
 8000f7e:	46c0      	nop			; (mov r8, r8)
 8000f80:	20000088 	.word	0x20000088
 8000f84:	2000034c 	.word	0x2000034c

08000f88 <HAL_GetTick>:
  *       implementations in user file.
  * @retval tick value
  */
__weak uint32_t HAL_GetTick(void)
{
  return uwTick;
 8000f88:	4b01      	ldr	r3, [pc, #4]	; (8000f90 <HAL_GetTick+0x8>)
 8000f8a:	6818      	ldr	r0, [r3, #0]
}
 8000f8c:	4770      	bx	lr
 8000f8e:	46c0      	nop			; (mov r8, r8)
 8000f90:	2000034c 	.word	0x2000034c

08000f94 <HAL_Delay>:
  *       implementations in user file.
  * @param Delay  specifies the delay time length, in milliseconds.
  * @retval None
  */
__weak void HAL_Delay(uint32_t Delay)
{
 8000f94:	b570      	push	{r4, r5, r6, lr}
 8000f96:	0004      	movs	r4, r0
  uint32_t tickstart = HAL_GetTick();
 8000f98:	f7ff fff6 	bl	8000f88 <HAL_GetTick>
 8000f9c:	0005      	movs	r5, r0
  uint32_t wait = Delay;

  /* Add a freq to guarantee minimum wait */
  if (wait < HAL_MAX_DELAY)
 8000f9e:	1c63      	adds	r3, r4, #1
 8000fa0:	d002      	beq.n	8000fa8 <HAL_Delay+0x14>
  {
    wait += (uint32_t)(uwTickFreq);
 8000fa2:	4b04      	ldr	r3, [pc, #16]	; (8000fb4 <HAL_Delay+0x20>)
 8000fa4:	781b      	ldrb	r3, [r3, #0]
 8000fa6:	18e4      	adds	r4, r4, r3
  }

  while ((HAL_GetTick() - tickstart) < wait)
 8000fa8:	f7ff ffee 	bl	8000f88 <HAL_GetTick>
 8000fac:	1b40      	subs	r0, r0, r5
 8000fae:	42a0      	cmp	r0, r4
 8000fb0:	d3fa      	bcc.n	8000fa8 <HAL_Delay+0x14>
  {
  }
}
 8000fb2:	bd70      	pop	{r4, r5, r6, pc}
 8000fb4:	20000088 	.word	0x20000088

08000fb8 <HAL_SuspendTick>:
  * @retval None
  */
__weak void HAL_SuspendTick(void)
{
  /* Disable SysTick Interrupt */
  CLEAR_BIT(SysTick->CTRL,SysTick_CTRL_TICKINT_Msk);
 8000fb8:	4a02      	ldr	r2, [pc, #8]	; (8000fc4 <HAL_SuspendTick+0xc>)
 8000fba:	6813      	ldr	r3, [r2, #0]
 8000fbc:	2102      	movs	r1, #2
 8000fbe:	438b      	bics	r3, r1
 8000fc0:	6013      	str	r3, [r2, #0]
}
 8000fc2:	4770      	bx	lr
 8000fc4:	e000e010 	.word	0xe000e010

08000fc8 <HAL_ResumeTick>:
  * @retval None
  */
__weak void HAL_ResumeTick(void)
{
  /* Enable SysTick Interrupt */
  SET_BIT(SysTick->CTRL, SysTick_CTRL_TICKINT_Msk);
 8000fc8:	4a02      	ldr	r2, [pc, #8]	; (8000fd4 <HAL_ResumeTick+0xc>)
 8000fca:	6813      	ldr	r3, [r2, #0]
 8000fcc:	2102      	movs	r1, #2
 8000fce:	430b      	orrs	r3, r1
 8000fd0:	6013      	str	r3, [r2, #0]
}
 8000fd2:	4770      	bx	lr
 8000fd4:	e000e010 	.word	0xe000e010

08000fd8 <HAL_NVIC_SetPriority>:
  *         with stm32g0xx devices, this parameter is a dummy value and it is ignored, because
  *         no subpriority supported in Cortex M0+ based products.
  * @retval None
  */
void HAL_NVIC_SetPriority(IRQn_Type IRQn, uint32_t PreemptPriority, uint32_t SubPriority)
{
 8000fd8:	b570      	push	{r4, r5, r6, lr}
  \param [in]  priority  Priority to set.
  \note    The priority cannot be set for every processor exception.
 */
__STATIC_INLINE void __NVIC_SetPriority(IRQn_Type IRQn, uint32_t priority)
{
  if ((int32_t)(IRQn) >= 0)
 8000fda:	2800      	cmp	r0, #0
 8000fdc:	db11      	blt.n	8001002 <HAL_NVIC_SetPriority+0x2a>
  {
    NVIC->IP[_IP_IDX(IRQn)]  = ((uint32_t)(NVIC->IP[_IP_IDX(IRQn)]  & ~(0xFFUL << _BIT_SHIFT(IRQn))) |
 8000fde:	0883      	lsrs	r3, r0, #2
 8000fe0:	4e13      	ldr	r6, [pc, #76]	; (8001030 <HAL_NVIC_SetPriority+0x58>)
 8000fe2:	33c0      	adds	r3, #192	; 0xc0
 8000fe4:	009b      	lsls	r3, r3, #2
 8000fe6:	599d      	ldr	r5, [r3, r6]
 8000fe8:	2403      	movs	r4, #3
 8000fea:	4020      	ands	r0, r4
 8000fec:	00c0      	lsls	r0, r0, #3
 8000fee:	22ff      	movs	r2, #255	; 0xff
 8000ff0:	0014      	movs	r4, r2
 8000ff2:	4084      	lsls	r4, r0
 8000ff4:	43a5      	bics	r5, r4
       (((priority << (8U - __NVIC_PRIO_BITS)) & (uint32_t)0xFFUL) << _BIT_SHIFT(IRQn)));
 8000ff6:	0189      	lsls	r1, r1, #6
 8000ff8:	400a      	ands	r2, r1
 8000ffa:	4082      	lsls	r2, r0
    NVIC->IP[_IP_IDX(IRQn)]  = ((uint32_t)(NVIC->IP[_IP_IDX(IRQn)]  & ~(0xFFUL << _BIT_SHIFT(IRQn))) |
 8000ffc:	432a      	orrs	r2, r5
 8000ffe:	519a      	str	r2, [r3, r6]
  UNUSED(SubPriority);

  /* Check the parameters */
  assert_param(IS_NVIC_PREEMPTION_PRIORITY(PreemptPriority));
  NVIC_SetPriority(IRQn, PreemptPriority);
}
 8001000:	bd70      	pop	{r4, r5, r6, pc}
  }
  else
  {
    SCB->SHP[_SHP_IDX(IRQn)] = ((uint32_t)(SCB->SHP[_SHP_IDX(IRQn)] & ~(0xFFUL << _BIT_SHIFT(IRQn))) |
 8001002:	230f      	movs	r3, #15
 8001004:	4003      	ands	r3, r0
 8001006:	3b08      	subs	r3, #8
 8001008:	089b      	lsrs	r3, r3, #2
 800100a:	3306      	adds	r3, #6
 800100c:	009b      	lsls	r3, r3, #2
 800100e:	4a09      	ldr	r2, [pc, #36]	; (8001034 <HAL_NVIC_SetPriority+0x5c>)
 8001010:	4694      	mov	ip, r2
 8001012:	4463      	add	r3, ip
 8001014:	685c      	ldr	r4, [r3, #4]
 8001016:	2203      	movs	r2, #3
 8001018:	4010      	ands	r0, r2
 800101a:	00c0      	lsls	r0, r0, #3
 800101c:	32fc      	adds	r2, #252	; 0xfc
 800101e:	0015      	movs	r5, r2
 8001020:	4085      	lsls	r5, r0
 8001022:	43ac      	bics	r4, r5
       (((priority << (8U - __NVIC_PRIO_BITS)) & (uint32_t)0xFFUL) << _BIT_SHIFT(IRQn)));
 8001024:	0189      	lsls	r1, r1, #6
 8001026:	400a      	ands	r2, r1
 8001028:	4082      	lsls	r2, r0
    SCB->SHP[_SHP_IDX(IRQn)] = ((uint32_t)(SCB->SHP[_SHP_IDX(IRQn)] & ~(0xFFUL << _BIT_SHIFT(IRQn))) |
 800102a:	4322      	orrs	r2, r4
 800102c:	605a      	str	r2, [r3, #4]
 800102e:	e7e7      	b.n	8001000 <HAL_NVIC_SetPriority+0x28>
 8001030:	e000e100 	.word	0xe000e100
 8001034:	e000ed00 	.word	0xe000ed00

08001038 <HAL_NVIC_EnableIRQ>:
  if ((int32_t)(IRQn) >= 0)
 8001038:	2800      	cmp	r0, #0
 800103a:	db05      	blt.n	8001048 <HAL_NVIC_EnableIRQ+0x10>
    NVIC->ISER[0U] = (uint32_t)(1UL << (((uint32_t)IRQn) & 0x1FUL));
 800103c:	231f      	movs	r3, #31
 800103e:	4018      	ands	r0, r3
 8001040:	3b1e      	subs	r3, #30
 8001042:	4083      	lsls	r3, r0
 8001044:	4a01      	ldr	r2, [pc, #4]	; (800104c <HAL_NVIC_EnableIRQ+0x14>)
 8001046:	6013      	str	r3, [r2, #0]
  /* Check the parameters */
  assert_param(IS_NVIC_DEVICE_IRQ(IRQn));

  /* Enable interrupt */
  NVIC_EnableIRQ(IRQn);
}
 8001048:	4770      	bx	lr
 800104a:	46c0      	nop			; (mov r8, r8)
 800104c:	e000e100 	.word	0xe000e100

08001050 <HAL_NVIC_SystemReset>:
  \details Acts as a special kind of Data Memory Barrier.
           It completes when all explicit memory accesses before this instruction complete.
 */
__STATIC_FORCEINLINE void __DSB(void)
{
  __ASM volatile ("dsb 0xF":::"memory");
 8001050:	f3bf 8f4f 	dsb	sy
 */
__NO_RETURN __STATIC_INLINE void __NVIC_SystemReset(void)
{
  __DSB();                                                          /* Ensure all outstanding memory accesses included
                                                                       buffered write are completed before reset */
  SCB->AIRCR  = ((0x5FAUL << SCB_AIRCR_VECTKEY_Pos) |
 8001054:	4b03      	ldr	r3, [pc, #12]	; (8001064 <HAL_NVIC_SystemReset+0x14>)
 8001056:	4a04      	ldr	r2, [pc, #16]	; (8001068 <HAL_NVIC_SystemReset+0x18>)
 8001058:	60da      	str	r2, [r3, #12]
 800105a:	f3bf 8f4f 	dsb	sy
                 SCB_AIRCR_SYSRESETREQ_Msk);
  __DSB();                                                          /* Ensure completion of memory access */

  for(;;)                                                           /* wait until reset */
  {
    __NOP();
 800105e:	46c0      	nop			; (mov r8, r8)
  for(;;)                                                           /* wait until reset */
 8001060:	e7fd      	b.n	800105e <HAL_NVIC_SystemReset+0xe>
 8001062:	46c0      	nop			; (mov r8, r8)
 8001064:	e000ed00 	.word	0xe000ed00
 8001068:	05fa0004 	.word	0x05fa0004

0800106c <HAL_SYSTICK_Config>:
           function <b>SysTick_Config</b> is not included. In this case, the file <b><i>device</i>.h</b>
           must contain a vendor-specific implementation of this function.
 */
__STATIC_INLINE uint32_t SysTick_Config(uint32_t ticks)
{
  if ((ticks - 1UL) > SysTick_LOAD_RELOAD_Msk)
 800106c:	3801      	subs	r0, #1
 800106e:	2380      	movs	r3, #128	; 0x80
 8001070:	045b      	lsls	r3, r3, #17
 8001072:	4298      	cmp	r0, r3
 8001074:	d20f      	bcs.n	8001096 <HAL_SYSTICK_Config+0x2a>
  {
    return (1UL);                                                   /* Reload value impossible */
  }

  SysTick->LOAD  = (uint32_t)(ticks - 1UL);                         /* set reload register */
 8001076:	4a09      	ldr	r2, [pc, #36]	; (800109c <HAL_SYSTICK_Config+0x30>)
 8001078:	6050      	str	r0, [r2, #4]
    SCB->SHP[_SHP_IDX(IRQn)] = ((uint32_t)(SCB->SHP[_SHP_IDX(IRQn)] & ~(0xFFUL << _BIT_SHIFT(IRQn))) |
 800107a:	4809      	ldr	r0, [pc, #36]	; (80010a0 <HAL_SYSTICK_Config+0x34>)
 800107c:	6a03      	ldr	r3, [r0, #32]
 800107e:	021b      	lsls	r3, r3, #8
 8001080:	0a1b      	lsrs	r3, r3, #8
 8001082:	21c0      	movs	r1, #192	; 0xc0
 8001084:	0609      	lsls	r1, r1, #24
 8001086:	430b      	orrs	r3, r1
 8001088:	6203      	str	r3, [r0, #32]
  NVIC_SetPriority (SysTick_IRQn, (1UL << __NVIC_PRIO_BITS) - 1UL); /* set Priority for Systick Interrupt */
  SysTick->VAL   = 0UL;                                             /* Load the SysTick Counter Value */
 800108a:	2300      	movs	r3, #0
 800108c:	6093      	str	r3, [r2, #8]
  SysTick->CTRL  = SysTick_CTRL_CLKSOURCE_Msk |
 800108e:	3307      	adds	r3, #7
 8001090:	6013      	str	r3, [r2, #0]
                   SysTick_CTRL_TICKINT_Msk   |
                   SysTick_CTRL_ENABLE_Msk;                         /* Enable SysTick IRQ and SysTick Timer */
  return (0UL);                                                     /* Function successful */
 8001092:	2000      	movs	r0, #0
  *                  - 1  Function failed.
  */
uint32_t HAL_SYSTICK_Config(uint32_t TicksNumb)
{
  return SysTick_Config(TicksNumb);
}
 8001094:	4770      	bx	lr
    return (1UL);                                                   /* Reload value impossible */
 8001096:	2001      	movs	r0, #1
  return SysTick_Config(TicksNumb);
 8001098:	e7fc      	b.n	8001094 <HAL_SYSTICK_Config+0x28>
 800109a:	46c0      	nop			; (mov r8, r8)
 800109c:	e000e010 	.word	0xe000e010
 80010a0:	e000ed00 	.word	0xe000ed00

080010a4 <DMA_SetConfig>:
  * @param DstAddress The destination memory Buffer address
  * @param DataLength The length of data to be transferred from source to destination
  * @retval HAL status
  */
static void DMA_SetConfig(DMA_HandleTypeDef *hdma, uint32_t SrcAddress, uint32_t DstAddress, uint32_t DataLength)
{
 80010a4:	b5f0      	push	{r4, r5, r6, r7, lr}
  /* Clear the DMAMUX synchro overrun flag */
  hdma->DMAmuxChannelStatus->CFR = hdma->DMAmuxChannelStatusMask;
 80010a6:	6c84      	ldr	r4, [r0, #72]	; 0x48
 80010a8:	6cc5      	ldr	r5, [r0, #76]	; 0x4c
 80010aa:	6065      	str	r5, [r4, #4]

  if (hdma->DMAmuxRequestGen != 0U)
 80010ac:	6d04      	ldr	r4, [r0, #80]	; 0x50
 80010ae:	2c00      	cmp	r4, #0
 80010b0:	d002      	beq.n	80010b8 <DMA_SetConfig+0x14>
  {
    /* Clear the DMAMUX request generator overrun flag */
    hdma->DMAmuxRequestGenStatus->RGCFR = hdma->DMAmuxRequestGenStatusMask;
 80010b2:	6d44      	ldr	r4, [r0, #84]	; 0x54
 80010b4:	6d85      	ldr	r5, [r0, #88]	; 0x58
 80010b6:	6065      	str	r5, [r4, #4]

  /* Clear all flags */
#if defined(DMA2)
  hdma->DmaBaseAddress->IFCR = (DMA_ISR_GIF1 << (hdma->ChannelIndex & 0x1CU));
#else
  __HAL_DMA_CLEAR_FLAG(hdma, (DMA_FLAG_GI1 << (hdma->ChannelIndex & 0x1CU)));
 80010b8:	4f0b      	ldr	r7, [pc, #44]	; (80010e8 <DMA_SetConfig+0x44>)
 80010ba:	687c      	ldr	r4, [r7, #4]
 80010bc:	261c      	movs	r6, #28
 80010be:	6c05      	ldr	r5, [r0, #64]	; 0x40
 80010c0:	402e      	ands	r6, r5
 80010c2:	2501      	movs	r5, #1
 80010c4:	40b5      	lsls	r5, r6
 80010c6:	432c      	orrs	r4, r5
 80010c8:	607c      	str	r4, [r7, #4]
#endif /* DMA2 */

  /* Configure DMA Channel data length */
  hdma->Instance->CNDTR = DataLength;
 80010ca:	6804      	ldr	r4, [r0, #0]
 80010cc:	6063      	str	r3, [r4, #4]

  /* Memory to Peripheral */
  if ((hdma->Init.Direction) == DMA_MEMORY_TO_PERIPH)
 80010ce:	6883      	ldr	r3, [r0, #8]
 80010d0:	2b10      	cmp	r3, #16
 80010d2:	d004      	beq.n	80010de <DMA_SetConfig+0x3a>
  }
  /* Peripheral to Memory */
  else
  {
    /* Configure DMA Channel source address */
    hdma->Instance->CPAR = SrcAddress;
 80010d4:	6803      	ldr	r3, [r0, #0]
 80010d6:	6099      	str	r1, [r3, #8]

    /* Configure DMA Channel destination address */
    hdma->Instance->CMAR = DstAddress;
 80010d8:	6803      	ldr	r3, [r0, #0]
 80010da:	60da      	str	r2, [r3, #12]
  }
}
 80010dc:	bdf0      	pop	{r4, r5, r6, r7, pc}
    hdma->Instance->CPAR = DstAddress;
 80010de:	6803      	ldr	r3, [r0, #0]
 80010e0:	609a      	str	r2, [r3, #8]
    hdma->Instance->CMAR = SrcAddress;
 80010e2:	6803      	ldr	r3, [r0, #0]
 80010e4:	60d9      	str	r1, [r3, #12]
 80010e6:	e7f9      	b.n	80010dc <DMA_SetConfig+0x38>
 80010e8:	40020000 	.word	0x40020000

080010ec <DMA_CalcDMAMUXChannelBaseAndMask>:
  * @param hdma Pointer to a DMA_HandleTypeDef structure that contains
  *             the configuration information for the specified DMA Channel.
  * @retval None
  */
static void DMA_CalcDMAMUXChannelBaseAndMask(DMA_HandleTypeDef *hdma)
{
 80010ec:	b510      	push	{r4, lr}
 80010ee:	0004      	movs	r4, r0
    /* Prepare channel_number used for DMAmuxChannelStatusMask computation */
    channel_number = (((((uint32_t)hdma->Instance & 0xFFU) - 8U) / 20U) + 7U);
  }
#else
  /* Associate a DMA Channel to a DMAMUX channel */
  hdma->DMAmuxChannel = (DMAMUX_Channel_TypeDef *)(uint32_t)((uint32_t)DMAMUX1_Channel0 + ((hdma->ChannelIndex >> 2U) * ((uint32_t)DMAMUX1_Channel1 - (uint32_t)DMAMUX1_Channel0)));
 80010f0:	6c03      	ldr	r3, [r0, #64]	; 0x40
 80010f2:	089b      	lsrs	r3, r3, #2
 80010f4:	4a09      	ldr	r2, [pc, #36]	; (800111c <DMA_CalcDMAMUXChannelBaseAndMask+0x30>)
 80010f6:	4694      	mov	ip, r2
 80010f8:	4463      	add	r3, ip
 80010fa:	009b      	lsls	r3, r3, #2
 80010fc:	6443      	str	r3, [r0, #68]	; 0x44

  /* Prepare channel_number used for DMAmuxChannelStatusMask computation */
  channel_number = (((uint32_t)hdma->Instance & 0xFFU) - 8U) / 20U;
 80010fe:	20ff      	movs	r0, #255	; 0xff
 8001100:	6823      	ldr	r3, [r4, #0]
 8001102:	4018      	ands	r0, r3
 8001104:	3808      	subs	r0, #8
 8001106:	2114      	movs	r1, #20
 8001108:	f7ff f804 	bl	8000114 <__udivsi3>
#endif /* DMA2 */

  /* Initialize the field DMAmuxChannelStatus to DMAMUX1_ChannelStatus base */
  hdma->DMAmuxChannelStatus = DMAMUX1_ChannelStatus;
 800110c:	4b04      	ldr	r3, [pc, #16]	; (8001120 <DMA_CalcDMAMUXChannelBaseAndMask+0x34>)
 800110e:	64a3      	str	r3, [r4, #72]	; 0x48

  /* Initialize the field DMAmuxChannelStatusMask with the corresponding index of the DMAMUX channel selected for the current ChannelIndex */
  hdma->DMAmuxChannelStatusMask = 1UL << (channel_number & 0x1FU);
 8001110:	231f      	movs	r3, #31
 8001112:	4018      	ands	r0, r3
 8001114:	3b1e      	subs	r3, #30
 8001116:	4083      	lsls	r3, r0
 8001118:	64e3      	str	r3, [r4, #76]	; 0x4c
}
 800111a:	bd10      	pop	{r4, pc}
 800111c:	10008200 	.word	0x10008200
 8001120:	40020880 	.word	0x40020880

08001124 <DMA_CalcDMAMUXRequestGenBaseAndMask>:
  * @retval None
  */

static void DMA_CalcDMAMUXRequestGenBaseAndMask(DMA_HandleTypeDef *hdma)
{
  uint32_t request =  hdma->Init.Request & DMAMUX_CxCR_DMAREQ_ID;
 8001124:	233f      	movs	r3, #63	; 0x3f
 8001126:	6842      	ldr	r2, [r0, #4]
 8001128:	4013      	ands	r3, r2

  /* DMA Channels are connected to DMAMUX1 request generator blocks*/
  hdma->DMAmuxRequestGen = (DMAMUX_RequestGen_TypeDef *)((uint32_t)(((uint32_t)DMAMUX1_RequestGenerator0) + ((request - 1U) * 4U)));
 800112a:	4a06      	ldr	r2, [pc, #24]	; (8001144 <DMA_CalcDMAMUXRequestGenBaseAndMask+0x20>)
 800112c:	189a      	adds	r2, r3, r2
 800112e:	0092      	lsls	r2, r2, #2
 8001130:	6502      	str	r2, [r0, #80]	; 0x50

  hdma->DMAmuxRequestGenStatus = DMAMUX1_RequestGenStatus;
 8001132:	4a05      	ldr	r2, [pc, #20]	; (8001148 <DMA_CalcDMAMUXRequestGenBaseAndMask+0x24>)
 8001134:	6542      	str	r2, [r0, #84]	; 0x54

  /* here "Request" is either DMA_REQUEST_GENERATOR0 to DMA_REQUEST_GENERATOR3, i.e. <= 4*/
  hdma->DMAmuxRequestGenStatusMask = 1UL << ((request - 1U) & 0x3U);
 8001136:	3b01      	subs	r3, #1
 8001138:	2203      	movs	r2, #3
 800113a:	401a      	ands	r2, r3
 800113c:	2301      	movs	r3, #1
 800113e:	4093      	lsls	r3, r2
 8001140:	6583      	str	r3, [r0, #88]	; 0x58
}
 8001142:	4770      	bx	lr
 8001144:	1000823f 	.word	0x1000823f
 8001148:	40020940 	.word	0x40020940

0800114c <HAL_DMA_Init>:
{
 800114c:	b570      	push	{r4, r5, r6, lr}
 800114e:	1e04      	subs	r4, r0, #0
  if (hdma == NULL)
 8001150:	d04d      	beq.n	80011ee <HAL_DMA_Init+0xa2>
  hdma->ChannelIndex = (((uint32_t)hdma->Instance - (uint32_t)DMA1_Channel1) / ((uint32_t)DMA1_Channel2 - (uint32_t)DMA1_Channel1)) << 2U;
 8001152:	6805      	ldr	r5, [r0, #0]
 8001154:	4b27      	ldr	r3, [pc, #156]	; (80011f4 <HAL_DMA_Init+0xa8>)
 8001156:	18e8      	adds	r0, r5, r3
 8001158:	2114      	movs	r1, #20
 800115a:	f7fe ffdb 	bl	8000114 <__udivsi3>
 800115e:	0080      	lsls	r0, r0, #2
 8001160:	6420      	str	r0, [r4, #64]	; 0x40
  hdma->State = HAL_DMA_STATE_BUSY;
 8001162:	2325      	movs	r3, #37	; 0x25
 8001164:	2202      	movs	r2, #2
 8001166:	54e2      	strb	r2, [r4, r3]
  CLEAR_BIT(hdma->Instance->CCR, (DMA_CCR_PL    | DMA_CCR_MSIZE  | DMA_CCR_PSIZE  | \
 8001168:	682b      	ldr	r3, [r5, #0]
 800116a:	4a23      	ldr	r2, [pc, #140]	; (80011f8 <HAL_DMA_Init+0xac>)
 800116c:	4013      	ands	r3, r2
 800116e:	602b      	str	r3, [r5, #0]
  SET_BIT(hdma->Instance->CCR, (hdma->Init.Direction           |                               \
 8001170:	6821      	ldr	r1, [r4, #0]
 8001172:	680a      	ldr	r2, [r1, #0]
 8001174:	68a3      	ldr	r3, [r4, #8]
 8001176:	68e0      	ldr	r0, [r4, #12]
 8001178:	4303      	orrs	r3, r0
 800117a:	6920      	ldr	r0, [r4, #16]
 800117c:	4303      	orrs	r3, r0
 800117e:	6960      	ldr	r0, [r4, #20]
 8001180:	4303      	orrs	r3, r0
 8001182:	69a0      	ldr	r0, [r4, #24]
 8001184:	4303      	orrs	r3, r0
 8001186:	69e0      	ldr	r0, [r4, #28]
 8001188:	4303      	orrs	r3, r0
 800118a:	6a20      	ldr	r0, [r4, #32]
 800118c:	4303      	orrs	r3, r0
 800118e:	4313      	orrs	r3, r2
 8001190:	600b      	str	r3, [r1, #0]
  DMA_CalcDMAMUXChannelBaseAndMask(hdma);
 8001192:	0020      	movs	r0, r4
 8001194:	f7ff ffaa 	bl	80010ec <DMA_CalcDMAMUXChannelBaseAndMask>
  if (hdma->Init.Direction == DMA_MEMORY_TO_MEMORY)
 8001198:	2380      	movs	r3, #128	; 0x80
 800119a:	01db      	lsls	r3, r3, #7
 800119c:	68a2      	ldr	r2, [r4, #8]
 800119e:	429a      	cmp	r2, r3
 80011a0:	d018      	beq.n	80011d4 <HAL_DMA_Init+0x88>
  hdma->DMAmuxChannel->CCR = (hdma->Init.Request & DMAMUX_CxCR_DMAREQ_ID);
 80011a2:	6c62      	ldr	r2, [r4, #68]	; 0x44
 80011a4:	233f      	movs	r3, #63	; 0x3f
 80011a6:	6861      	ldr	r1, [r4, #4]
 80011a8:	400b      	ands	r3, r1
 80011aa:	6013      	str	r3, [r2, #0]
  hdma->DMAmuxChannelStatus->CFR = hdma->DMAmuxChannelStatusMask;
 80011ac:	6ca3      	ldr	r3, [r4, #72]	; 0x48
 80011ae:	6ce2      	ldr	r2, [r4, #76]	; 0x4c
 80011b0:	605a      	str	r2, [r3, #4]
  if (((hdma->Init.Request >  0UL) && (hdma->Init.Request <= DMA_REQUEST_GENERATOR3)))
 80011b2:	6863      	ldr	r3, [r4, #4]
 80011b4:	3b01      	subs	r3, #1
 80011b6:	2b03      	cmp	r3, #3
 80011b8:	d90f      	bls.n	80011da <HAL_DMA_Init+0x8e>
    hdma->DMAmuxRequestGen = 0U;
 80011ba:	2300      	movs	r3, #0
 80011bc:	6523      	str	r3, [r4, #80]	; 0x50
    hdma->DMAmuxRequestGenStatus = 0U;
 80011be:	6563      	str	r3, [r4, #84]	; 0x54
    hdma->DMAmuxRequestGenStatusMask = 0U;
 80011c0:	65a3      	str	r3, [r4, #88]	; 0x58
  hdma->ErrorCode = HAL_DMA_ERROR_NONE;
 80011c2:	2300      	movs	r3, #0
 80011c4:	63e3      	str	r3, [r4, #60]	; 0x3c
  hdma->State = HAL_DMA_STATE_READY;
 80011c6:	2225      	movs	r2, #37	; 0x25
 80011c8:	2101      	movs	r1, #1
 80011ca:	54a1      	strb	r1, [r4, r2]
  __HAL_UNLOCK(hdma);
 80011cc:	3a01      	subs	r2, #1
 80011ce:	54a3      	strb	r3, [r4, r2]
  return HAL_OK;
 80011d0:	2000      	movs	r0, #0
}
 80011d2:	bd70      	pop	{r4, r5, r6, pc}
    hdma->Init.Request = DMA_REQUEST_MEM2MEM;
 80011d4:	2300      	movs	r3, #0
 80011d6:	6063      	str	r3, [r4, #4]
 80011d8:	e7e3      	b.n	80011a2 <HAL_DMA_Init+0x56>
    DMA_CalcDMAMUXRequestGenBaseAndMask(hdma);
 80011da:	0020      	movs	r0, r4
 80011dc:	f7ff ffa2 	bl	8001124 <DMA_CalcDMAMUXRequestGenBaseAndMask>
    hdma->DMAmuxRequestGen->RGCR = 0U;
 80011e0:	6d23      	ldr	r3, [r4, #80]	; 0x50
 80011e2:	2200      	movs	r2, #0
 80011e4:	601a      	str	r2, [r3, #0]
    hdma->DMAmuxRequestGenStatus->RGCFR = hdma->DMAmuxRequestGenStatusMask;
 80011e6:	6d63      	ldr	r3, [r4, #84]	; 0x54
 80011e8:	6da2      	ldr	r2, [r4, #88]	; 0x58
 80011ea:	605a      	str	r2, [r3, #4]
 80011ec:	e7e9      	b.n	80011c2 <HAL_DMA_Init+0x76>
    return HAL_ERROR;
 80011ee:	2001      	movs	r0, #1
 80011f0:	e7ef      	b.n	80011d2 <HAL_DMA_Init+0x86>
 80011f2:	46c0      	nop			; (mov r8, r8)
 80011f4:	bffdfff8 	.word	0xbffdfff8
 80011f8:	ffff800f 	.word	0xffff800f

080011fc <HAL_DMA_Start_IT>:
{
 80011fc:	b570      	push	{r4, r5, r6, lr}
 80011fe:	0004      	movs	r4, r0
  __HAL_LOCK(hdma);
 8001200:	2024      	movs	r0, #36	; 0x24
 8001202:	5c20      	ldrb	r0, [r4, r0]
 8001204:	2801      	cmp	r0, #1
 8001206:	d045      	beq.n	8001294 <HAL_DMA_Start_IT+0x98>
 8001208:	2024      	movs	r0, #36	; 0x24
 800120a:	2501      	movs	r5, #1
 800120c:	5425      	strb	r5, [r4, r0]
  if (hdma->State == HAL_DMA_STATE_READY)
 800120e:	3001      	adds	r0, #1
 8001210:	5c20      	ldrb	r0, [r4, r0]
 8001212:	2801      	cmp	r0, #1
 8001214:	d006      	beq.n	8001224 <HAL_DMA_Start_IT+0x28>
    hdma->ErrorCode = HAL_DMA_ERROR_BUSY;
 8001216:	2380      	movs	r3, #128	; 0x80
 8001218:	63e3      	str	r3, [r4, #60]	; 0x3c
    __HAL_UNLOCK(hdma);
 800121a:	3b5c      	subs	r3, #92	; 0x5c
 800121c:	2200      	movs	r2, #0
 800121e:	54e2      	strb	r2, [r4, r3]
    status = HAL_ERROR;
 8001220:	2001      	movs	r0, #1
}
 8001222:	bd70      	pop	{r4, r5, r6, pc}
    hdma->State = HAL_DMA_STATE_BUSY;
 8001224:	3024      	adds	r0, #36	; 0x24
 8001226:	3501      	adds	r5, #1
 8001228:	5425      	strb	r5, [r4, r0]
    hdma->ErrorCode = HAL_DMA_ERROR_NONE;
 800122a:	2000      	movs	r0, #0
 800122c:	63e0      	str	r0, [r4, #60]	; 0x3c
    __HAL_DMA_DISABLE(hdma);
 800122e:	6825      	ldr	r5, [r4, #0]
 8001230:	6828      	ldr	r0, [r5, #0]
 8001232:	2601      	movs	r6, #1
 8001234:	43b0      	bics	r0, r6
 8001236:	6028      	str	r0, [r5, #0]
    DMA_SetConfig(hdma, SrcAddress, DstAddress, DataLength);
 8001238:	0020      	movs	r0, r4
 800123a:	f7ff ff33 	bl	80010a4 <DMA_SetConfig>
    if (NULL != hdma->XferHalfCpltCallback)
 800123e:	6b23      	ldr	r3, [r4, #48]	; 0x30
 8001240:	2b00      	cmp	r3, #0
 8001242:	d01c      	beq.n	800127e <HAL_DMA_Start_IT+0x82>
      __HAL_DMA_ENABLE_IT(hdma, (DMA_IT_TC | DMA_IT_HT | DMA_IT_TE));
 8001244:	6822      	ldr	r2, [r4, #0]
 8001246:	6813      	ldr	r3, [r2, #0]
 8001248:	210e      	movs	r1, #14
 800124a:	430b      	orrs	r3, r1
 800124c:	6013      	str	r3, [r2, #0]
    if ((hdma->DMAmuxChannel->CCR & DMAMUX_CxCR_SE) != 0U)
 800124e:	6c63      	ldr	r3, [r4, #68]	; 0x44
 8001250:	681a      	ldr	r2, [r3, #0]
 8001252:	03d2      	lsls	r2, r2, #15
 8001254:	d504      	bpl.n	8001260 <HAL_DMA_Start_IT+0x64>
      hdma->DMAmuxChannel->CCR |= DMAMUX_CxCR_SOIE;
 8001256:	6819      	ldr	r1, [r3, #0]
 8001258:	2280      	movs	r2, #128	; 0x80
 800125a:	0052      	lsls	r2, r2, #1
 800125c:	430a      	orrs	r2, r1
 800125e:	601a      	str	r2, [r3, #0]
    if (hdma->DMAmuxRequestGen != 0U)
 8001260:	6d23      	ldr	r3, [r4, #80]	; 0x50
 8001262:	2b00      	cmp	r3, #0
 8001264:	d004      	beq.n	8001270 <HAL_DMA_Start_IT+0x74>
      hdma->DMAmuxRequestGen->RGCR |= DMAMUX_RGxCR_OIE;
 8001266:	6819      	ldr	r1, [r3, #0]
 8001268:	2280      	movs	r2, #128	; 0x80
 800126a:	0052      	lsls	r2, r2, #1
 800126c:	430a      	orrs	r2, r1
 800126e:	601a      	str	r2, [r3, #0]
    __HAL_DMA_ENABLE(hdma);
 8001270:	6822      	ldr	r2, [r4, #0]
 8001272:	6813      	ldr	r3, [r2, #0]
 8001274:	2101      	movs	r1, #1
 8001276:	430b      	orrs	r3, r1
 8001278:	6013      	str	r3, [r2, #0]
  HAL_StatusTypeDef status = HAL_OK;
 800127a:	2000      	movs	r0, #0
 800127c:	e7d1      	b.n	8001222 <HAL_DMA_Start_IT+0x26>
      __HAL_DMA_DISABLE_IT(hdma, DMA_IT_HT);
 800127e:	6822      	ldr	r2, [r4, #0]
 8001280:	6813      	ldr	r3, [r2, #0]
 8001282:	2104      	movs	r1, #4
 8001284:	438b      	bics	r3, r1
 8001286:	6013      	str	r3, [r2, #0]
      __HAL_DMA_ENABLE_IT(hdma, (DMA_IT_TC | DMA_IT_TE));
 8001288:	6822      	ldr	r2, [r4, #0]
 800128a:	6813      	ldr	r3, [r2, #0]
 800128c:	3106      	adds	r1, #6
 800128e:	430b      	orrs	r3, r1
 8001290:	6013      	str	r3, [r2, #0]
 8001292:	e7dc      	b.n	800124e <HAL_DMA_Start_IT+0x52>
  __HAL_LOCK(hdma);
 8001294:	2002      	movs	r0, #2
 8001296:	e7c4      	b.n	8001222 <HAL_DMA_Start_IT+0x26>

08001298 <HAL_DMA_Abort>:
{
 8001298:	b530      	push	{r4, r5, lr}
  if (NULL == hdma)
 800129a:	2800      	cmp	r0, #0
 800129c:	d036      	beq.n	800130c <HAL_DMA_Abort+0x74>
  if (hdma->State != HAL_DMA_STATE_BUSY)
 800129e:	2325      	movs	r3, #37	; 0x25
 80012a0:	5cc3      	ldrb	r3, [r0, r3]
 80012a2:	2b02      	cmp	r3, #2
 80012a4:	d006      	beq.n	80012b4 <HAL_DMA_Abort+0x1c>
    hdma->ErrorCode = HAL_DMA_ERROR_NO_XFER;
 80012a6:	2304      	movs	r3, #4
 80012a8:	63c3      	str	r3, [r0, #60]	; 0x3c
    __HAL_UNLOCK(hdma);
 80012aa:	3320      	adds	r3, #32
 80012ac:	2200      	movs	r2, #0
 80012ae:	54c2      	strb	r2, [r0, r3]
    return HAL_ERROR;
 80012b0:	2001      	movs	r0, #1
}
 80012b2:	bd30      	pop	{r4, r5, pc}
    __HAL_DMA_DISABLE_IT(hdma, (DMA_IT_TC | DMA_IT_HT | DMA_IT_TE));
 80012b4:	6802      	ldr	r2, [r0, #0]
 80012b6:	6813      	ldr	r3, [r2, #0]
 80012b8:	210e      	movs	r1, #14
 80012ba:	438b      	bics	r3, r1
 80012bc:	6013      	str	r3, [r2, #0]
    hdma->DMAmuxChannel->CCR &= ~DMAMUX_CxCR_SOIE;
 80012be:	6c42      	ldr	r2, [r0, #68]	; 0x44
 80012c0:	6813      	ldr	r3, [r2, #0]
 80012c2:	4913      	ldr	r1, [pc, #76]	; (8001310 <HAL_DMA_Abort+0x78>)
 80012c4:	400b      	ands	r3, r1
 80012c6:	6013      	str	r3, [r2, #0]
    __HAL_DMA_DISABLE(hdma);
 80012c8:	6801      	ldr	r1, [r0, #0]
 80012ca:	680a      	ldr	r2, [r1, #0]
 80012cc:	2301      	movs	r3, #1
 80012ce:	439a      	bics	r2, r3
 80012d0:	600a      	str	r2, [r1, #0]
    __HAL_DMA_CLEAR_FLAG(hdma, ((DMA_FLAG_GI1) << (hdma->ChannelIndex  & 0x1CU)));
 80012d2:	4c10      	ldr	r4, [pc, #64]	; (8001314 <HAL_DMA_Abort+0x7c>)
 80012d4:	6862      	ldr	r2, [r4, #4]
 80012d6:	211c      	movs	r1, #28
 80012d8:	6c05      	ldr	r5, [r0, #64]	; 0x40
 80012da:	4029      	ands	r1, r5
 80012dc:	408b      	lsls	r3, r1
 80012de:	4313      	orrs	r3, r2
 80012e0:	6063      	str	r3, [r4, #4]
    hdma->DMAmuxChannelStatus->CFR = hdma->DMAmuxChannelStatusMask;
 80012e2:	6c83      	ldr	r3, [r0, #72]	; 0x48
 80012e4:	6cc2      	ldr	r2, [r0, #76]	; 0x4c
 80012e6:	605a      	str	r2, [r3, #4]
    if (hdma->DMAmuxRequestGen != 0U)
 80012e8:	6d03      	ldr	r3, [r0, #80]	; 0x50
 80012ea:	2b00      	cmp	r3, #0
 80012ec:	d006      	beq.n	80012fc <HAL_DMA_Abort+0x64>
      hdma->DMAmuxRequestGen->RGCR &= ~DMAMUX_RGxCR_OIE;
 80012ee:	681a      	ldr	r2, [r3, #0]
 80012f0:	4907      	ldr	r1, [pc, #28]	; (8001310 <HAL_DMA_Abort+0x78>)
 80012f2:	400a      	ands	r2, r1
 80012f4:	601a      	str	r2, [r3, #0]
      hdma->DMAmuxRequestGenStatus->RGCFR = hdma->DMAmuxRequestGenStatusMask;
 80012f6:	6d43      	ldr	r3, [r0, #84]	; 0x54
 80012f8:	6d82      	ldr	r2, [r0, #88]	; 0x58
 80012fa:	605a      	str	r2, [r3, #4]
    hdma->State = HAL_DMA_STATE_READY;
 80012fc:	2325      	movs	r3, #37	; 0x25
 80012fe:	2201      	movs	r2, #1
 8001300:	54c2      	strb	r2, [r0, r3]
    __HAL_UNLOCK(hdma);
 8001302:	3b01      	subs	r3, #1
 8001304:	2200      	movs	r2, #0
 8001306:	54c2      	strb	r2, [r0, r3]
  return HAL_OK;
 8001308:	2000      	movs	r0, #0
 800130a:	e7d2      	b.n	80012b2 <HAL_DMA_Abort+0x1a>
    return HAL_ERROR;
 800130c:	2001      	movs	r0, #1
 800130e:	e7d0      	b.n	80012b2 <HAL_DMA_Abort+0x1a>
 8001310:	fffffeff 	.word	0xfffffeff
 8001314:	40020000 	.word	0x40020000

08001318 <HAL_DMA_Abort_IT>:
{
 8001318:	b570      	push	{r4, r5, r6, lr}
  if (hdma->State != HAL_DMA_STATE_BUSY)
 800131a:	2325      	movs	r3, #37	; 0x25
 800131c:	5cc3      	ldrb	r3, [r0, r3]
 800131e:	2b02      	cmp	r3, #2
 8001320:	d003      	beq.n	800132a <HAL_DMA_Abort_IT+0x12>
    hdma->ErrorCode = HAL_DMA_ERROR_NO_XFER;
 8001322:	2304      	movs	r3, #4
 8001324:	63c3      	str	r3, [r0, #60]	; 0x3c
    status = HAL_ERROR;
 8001326:	2001      	movs	r0, #1
}
 8001328:	bd70      	pop	{r4, r5, r6, pc}
    __HAL_DMA_DISABLE_IT(hdma, (DMA_IT_TC | DMA_IT_HT | DMA_IT_TE));
 800132a:	6802      	ldr	r2, [r0, #0]
 800132c:	6813      	ldr	r3, [r2, #0]
 800132e:	210e      	movs	r1, #14
 8001330:	438b      	bics	r3, r1
 8001332:	6013      	str	r3, [r2, #0]
    __HAL_DMA_DISABLE(hdma);
 8001334:	6801      	ldr	r1, [r0, #0]
 8001336:	680a      	ldr	r2, [r1, #0]
 8001338:	2301      	movs	r3, #1
 800133a:	439a      	bics	r2, r3
 800133c:	600a      	str	r2, [r1, #0]
    hdma->DMAmuxChannel->CCR &= ~DMAMUX_CxCR_SOIE;
 800133e:	6c41      	ldr	r1, [r0, #68]	; 0x44
 8001340:	680a      	ldr	r2, [r1, #0]
 8001342:	4c13      	ldr	r4, [pc, #76]	; (8001390 <HAL_DMA_Abort_IT+0x78>)
 8001344:	4022      	ands	r2, r4
 8001346:	600a      	str	r2, [r1, #0]
    __HAL_DMA_CLEAR_FLAG(hdma, ((DMA_FLAG_GI1) << (hdma->ChannelIndex & 0x1CU)));
 8001348:	4c12      	ldr	r4, [pc, #72]	; (8001394 <HAL_DMA_Abort_IT+0x7c>)
 800134a:	6862      	ldr	r2, [r4, #4]
 800134c:	211c      	movs	r1, #28
 800134e:	6c05      	ldr	r5, [r0, #64]	; 0x40
 8001350:	4029      	ands	r1, r5
 8001352:	408b      	lsls	r3, r1
 8001354:	4313      	orrs	r3, r2
 8001356:	6063      	str	r3, [r4, #4]
    hdma->DMAmuxChannelStatus->CFR = hdma->DMAmuxChannelStatusMask;
 8001358:	6c83      	ldr	r3, [r0, #72]	; 0x48
 800135a:	6cc2      	ldr	r2, [r0, #76]	; 0x4c
 800135c:	605a      	str	r2, [r3, #4]
    if (hdma->DMAmuxRequestGen != 0U)
 800135e:	6d03      	ldr	r3, [r0, #80]	; 0x50
 8001360:	2b00      	cmp	r3, #0
 8001362:	d006      	beq.n	8001372 <HAL_DMA_Abort_IT+0x5a>
      hdma->DMAmuxRequestGen->RGCR &= ~DMAMUX_RGxCR_OIE;
 8001364:	681a      	ldr	r2, [r3, #0]
 8001366:	490a      	ldr	r1, [pc, #40]	; (8001390 <HAL_DMA_Abort_IT+0x78>)
 8001368:	400a      	ands	r2, r1
 800136a:	601a      	str	r2, [r3, #0]
      hdma->DMAmuxRequestGenStatus->RGCFR = hdma->DMAmuxRequestGenStatusMask;
 800136c:	6d43      	ldr	r3, [r0, #84]	; 0x54
 800136e:	6d82      	ldr	r2, [r0, #88]	; 0x58
 8001370:	605a      	str	r2, [r3, #4]
    hdma->State = HAL_DMA_STATE_READY;
 8001372:	2325      	movs	r3, #37	; 0x25
 8001374:	2201      	movs	r2, #1
 8001376:	54c2      	strb	r2, [r0, r3]
    __HAL_UNLOCK(hdma);
 8001378:	3b01      	subs	r3, #1
 800137a:	2200      	movs	r2, #0
 800137c:	54c2      	strb	r2, [r0, r3]
    if (hdma->XferAbortCallback != NULL)
 800137e:	6b83      	ldr	r3, [r0, #56]	; 0x38
 8001380:	2b00      	cmp	r3, #0
 8001382:	d002      	beq.n	800138a <HAL_DMA_Abort_IT+0x72>
      hdma->XferAbortCallback(hdma);
 8001384:	4798      	blx	r3
  HAL_StatusTypeDef status = HAL_OK;
 8001386:	2000      	movs	r0, #0
 8001388:	e7ce      	b.n	8001328 <HAL_DMA_Abort_IT+0x10>
 800138a:	2000      	movs	r0, #0
 800138c:	e7cc      	b.n	8001328 <HAL_DMA_Abort_IT+0x10>
 800138e:	46c0      	nop			; (mov r8, r8)
 8001390:	fffffeff 	.word	0xfffffeff
 8001394:	40020000 	.word	0x40020000

08001398 <HAL_DMA_IRQHandler>:
{
 8001398:	b570      	push	{r4, r5, r6, lr}
  uint32_t flag_it = DMA1->ISR;
 800139a:	4b31      	ldr	r3, [pc, #196]	; (8001460 <HAL_DMA_IRQHandler+0xc8>)
 800139c:	6819      	ldr	r1, [r3, #0]
  uint32_t source_it = hdma->Instance->CCR;
 800139e:	6804      	ldr	r4, [r0, #0]
 80013a0:	6825      	ldr	r5, [r4, #0]
  if (((flag_it & (DMA_FLAG_HT1 << (hdma->ChannelIndex & 0x1CU))) != 0U) && ((source_it & DMA_IT_HT) != 0U))
 80013a2:	231c      	movs	r3, #28
 80013a4:	6c02      	ldr	r2, [r0, #64]	; 0x40
 80013a6:	4013      	ands	r3, r2
 80013a8:	2204      	movs	r2, #4
 80013aa:	409a      	lsls	r2, r3
 80013ac:	4211      	tst	r1, r2
 80013ae:	d016      	beq.n	80013de <HAL_DMA_IRQHandler+0x46>
 80013b0:	076a      	lsls	r2, r5, #29
 80013b2:	d514      	bpl.n	80013de <HAL_DMA_IRQHandler+0x46>
      if ((hdma->Instance->CCR & DMA_CCR_CIRC) == 0U)
 80013b4:	6823      	ldr	r3, [r4, #0]
 80013b6:	069b      	lsls	r3, r3, #26
 80013b8:	d403      	bmi.n	80013c2 <HAL_DMA_IRQHandler+0x2a>
        __HAL_DMA_DISABLE_IT(hdma, DMA_IT_HT);
 80013ba:	6823      	ldr	r3, [r4, #0]
 80013bc:	2204      	movs	r2, #4
 80013be:	4393      	bics	r3, r2
 80013c0:	6023      	str	r3, [r4, #0]
      __HAL_DMA_CLEAR_FLAG(hdma, (DMA_FLAG_HT1 << (hdma->ChannelIndex & 0x1CU)));
 80013c2:	4c27      	ldr	r4, [pc, #156]	; (8001460 <HAL_DMA_IRQHandler+0xc8>)
 80013c4:	6863      	ldr	r3, [r4, #4]
 80013c6:	211c      	movs	r1, #28
 80013c8:	6c02      	ldr	r2, [r0, #64]	; 0x40
 80013ca:	4011      	ands	r1, r2
 80013cc:	2204      	movs	r2, #4
 80013ce:	408a      	lsls	r2, r1
 80013d0:	4313      	orrs	r3, r2
 80013d2:	6063      	str	r3, [r4, #4]
      if (hdma->XferHalfCpltCallback != NULL)
 80013d4:	6b03      	ldr	r3, [r0, #48]	; 0x30
 80013d6:	2b00      	cmp	r3, #0
 80013d8:	d000      	beq.n	80013dc <HAL_DMA_IRQHandler+0x44>
        hdma->XferHalfCpltCallback(hdma);
 80013da:	4798      	blx	r3
}
 80013dc:	bd70      	pop	{r4, r5, r6, pc}
  else if ((0U != (flag_it & (DMA_FLAG_TC1 << (hdma->ChannelIndex & 0x1CU)))) && (0U != (source_it & DMA_IT_TC)))
 80013de:	2202      	movs	r2, #2
 80013e0:	409a      	lsls	r2, r3
 80013e2:	4211      	tst	r1, r2
 80013e4:	d01c      	beq.n	8001420 <HAL_DMA_IRQHandler+0x88>
 80013e6:	07aa      	lsls	r2, r5, #30
 80013e8:	d51a      	bpl.n	8001420 <HAL_DMA_IRQHandler+0x88>
      if ((hdma->Instance->CCR & DMA_CCR_CIRC) == 0U)
 80013ea:	6823      	ldr	r3, [r4, #0]
 80013ec:	069b      	lsls	r3, r3, #26
 80013ee:	d406      	bmi.n	80013fe <HAL_DMA_IRQHandler+0x66>
        __HAL_DMA_DISABLE_IT(hdma, DMA_IT_TE | DMA_IT_TC);
 80013f0:	6823      	ldr	r3, [r4, #0]
 80013f2:	220a      	movs	r2, #10
 80013f4:	4393      	bics	r3, r2
 80013f6:	6023      	str	r3, [r4, #0]
        hdma->State = HAL_DMA_STATE_READY;
 80013f8:	2325      	movs	r3, #37	; 0x25
 80013fa:	3a09      	subs	r2, #9
 80013fc:	54c2      	strb	r2, [r0, r3]
      __HAL_DMA_CLEAR_FLAG(hdma, (DMA_FLAG_TC1 << (hdma->ChannelIndex & 0x1CU)));
 80013fe:	4c18      	ldr	r4, [pc, #96]	; (8001460 <HAL_DMA_IRQHandler+0xc8>)
 8001400:	6863      	ldr	r3, [r4, #4]
 8001402:	211c      	movs	r1, #28
 8001404:	6c02      	ldr	r2, [r0, #64]	; 0x40
 8001406:	4011      	ands	r1, r2
 8001408:	2202      	movs	r2, #2
 800140a:	408a      	lsls	r2, r1
 800140c:	4313      	orrs	r3, r2
 800140e:	6063      	str	r3, [r4, #4]
      __HAL_UNLOCK(hdma);
 8001410:	2324      	movs	r3, #36	; 0x24
 8001412:	2200      	movs	r2, #0
 8001414:	54c2      	strb	r2, [r0, r3]
      if (hdma->XferCpltCallback != NULL)
 8001416:	6ac3      	ldr	r3, [r0, #44]	; 0x2c
 8001418:	2b00      	cmp	r3, #0
 800141a:	d0df      	beq.n	80013dc <HAL_DMA_IRQHandler+0x44>
        hdma->XferCpltCallback(hdma);
 800141c:	4798      	blx	r3
 800141e:	e7dd      	b.n	80013dc <HAL_DMA_IRQHandler+0x44>
  else if (((flag_it & (DMA_FLAG_TE1 << (hdma->ChannelIndex & 0x1CU))) != 0U) && ((source_it & DMA_IT_TE) != 0U))
 8001420:	2208      	movs	r2, #8
 8001422:	409a      	lsls	r2, r3
 8001424:	4211      	tst	r1, r2
 8001426:	d0d9      	beq.n	80013dc <HAL_DMA_IRQHandler+0x44>
 8001428:	072b      	lsls	r3, r5, #28
 800142a:	d5d7      	bpl.n	80013dc <HAL_DMA_IRQHandler+0x44>
    __HAL_DMA_DISABLE_IT(hdma, (DMA_IT_TC | DMA_IT_HT | DMA_IT_TE));
 800142c:	6823      	ldr	r3, [r4, #0]
 800142e:	220e      	movs	r2, #14
 8001430:	4393      	bics	r3, r2
 8001432:	6023      	str	r3, [r4, #0]
    __HAL_DMA_CLEAR_FLAG(hdma, (DMA_FLAG_GI1 << (hdma->ChannelIndex & 0x1CU)));
 8001434:	4c0a      	ldr	r4, [pc, #40]	; (8001460 <HAL_DMA_IRQHandler+0xc8>)
 8001436:	6862      	ldr	r2, [r4, #4]
 8001438:	211c      	movs	r1, #28
 800143a:	6c03      	ldr	r3, [r0, #64]	; 0x40
 800143c:	4019      	ands	r1, r3
 800143e:	2301      	movs	r3, #1
 8001440:	001d      	movs	r5, r3
 8001442:	408d      	lsls	r5, r1
 8001444:	432a      	orrs	r2, r5
 8001446:	6062      	str	r2, [r4, #4]
    hdma->ErrorCode = HAL_DMA_ERROR_TE;
 8001448:	63c3      	str	r3, [r0, #60]	; 0x3c
    hdma->State = HAL_DMA_STATE_READY;
 800144a:	2225      	movs	r2, #37	; 0x25
 800144c:	5483      	strb	r3, [r0, r2]
    __HAL_UNLOCK(hdma);
 800144e:	3323      	adds	r3, #35	; 0x23
 8001450:	2200      	movs	r2, #0
 8001452:	54c2      	strb	r2, [r0, r3]
    if (hdma->XferErrorCallback != NULL)
 8001454:	6b43      	ldr	r3, [r0, #52]	; 0x34
 8001456:	2b00      	cmp	r3, #0
 8001458:	d0c0      	beq.n	80013dc <HAL_DMA_IRQHandler+0x44>
      hdma->XferErrorCallback(hdma);
 800145a:	4798      	blx	r3
  return;
 800145c:	e7be      	b.n	80013dc <HAL_DMA_IRQHandler+0x44>
 800145e:	46c0      	nop			; (mov r8, r8)
 8001460:	40020000 	.word	0x40020000

08001464 <HAL_GPIO_Init>:
  * @param  GPIO_Init pointer to a GPIO_InitTypeDef structure that contains
  *         the configuration information for the specified GPIO peripheral.
  * @retval None
  */
void HAL_GPIO_Init(GPIO_TypeDef  *GPIOx, GPIO_InitTypeDef *GPIO_Init)
{
 8001464:	b5f0      	push	{r4, r5, r6, r7, lr}
  uint32_t position = 0x00u;
 8001466:	2300      	movs	r3, #0
  assert_param(IS_GPIO_ALL_INSTANCE(GPIOx));
  assert_param(IS_GPIO_PIN(GPIO_Init->Pin));
  assert_param(IS_GPIO_MODE(GPIO_Init->Mode));

  /* Configure the port pins */
  while (((GPIO_Init->Pin) >> position) != 0x00u)
 8001468:	e05a      	b.n	8001520 <HAL_GPIO_Init+0xbc>
      {
        /* Check the Speed parameter */
        assert_param(IS_GPIO_SPEED(GPIO_Init->Speed));

        /* Configure the IO Speed */
        temp = GPIOx->OSPEEDR;
 800146a:	6884      	ldr	r4, [r0, #8]
        temp &= ~(GPIO_OSPEEDR_OSPEED0 << (position * 2u));
 800146c:	005f      	lsls	r7, r3, #1
 800146e:	2603      	movs	r6, #3
 8001470:	40be      	lsls	r6, r7
 8001472:	43b4      	bics	r4, r6
 8001474:	0026      	movs	r6, r4
        temp |= (GPIO_Init->Speed << (position * 2u));
 8001476:	68cc      	ldr	r4, [r1, #12]
 8001478:	40bc      	lsls	r4, r7
 800147a:	4334      	orrs	r4, r6
        GPIOx->OSPEEDR = temp;
 800147c:	6084      	str	r4, [r0, #8]

        /* Configure the IO Output Type */
        temp = GPIOx->OTYPER;
 800147e:	6844      	ldr	r4, [r0, #4]
        temp &= ~(GPIO_OTYPER_OT0 << position) ;
 8001480:	4394      	bics	r4, r2
        temp |= (((GPIO_Init->Mode & OUTPUT_TYPE) >> OUTPUT_TYPE_Pos) << position);
 8001482:	684a      	ldr	r2, [r1, #4]
 8001484:	0916      	lsrs	r6, r2, #4
 8001486:	2201      	movs	r2, #1
 8001488:	4032      	ands	r2, r6
 800148a:	409a      	lsls	r2, r3
 800148c:	4322      	orrs	r2, r4
        GPIOx->OTYPER = temp;
 800148e:	6042      	str	r2, [r0, #4]
 8001490:	e056      	b.n	8001540 <HAL_GPIO_Init+0xdc>
        /* Check the Alternate function parameters */
        assert_param(IS_GPIO_AF_INSTANCE(GPIOx));
        assert_param(IS_GPIO_AF(GPIO_Init->Alternate));

        /* Configure Alternate function mapped with the current IO */
        temp = GPIOx->AFR[position >> 3u];
 8001492:	08dc      	lsrs	r4, r3, #3
 8001494:	3408      	adds	r4, #8
 8001496:	00a4      	lsls	r4, r4, #2
 8001498:	5826      	ldr	r6, [r4, r0]
        temp &= ~(0xFu << ((position & 0x07u) * 4u));
 800149a:	3205      	adds	r2, #5
 800149c:	401a      	ands	r2, r3
 800149e:	0092      	lsls	r2, r2, #2
 80014a0:	270f      	movs	r7, #15
 80014a2:	4097      	lsls	r7, r2
 80014a4:	43be      	bics	r6, r7
        temp |= ((GPIO_Init->Alternate) << ((position & 0x07u) * 4u));
 80014a6:	690f      	ldr	r7, [r1, #16]
 80014a8:	4097      	lsls	r7, r2
 80014aa:	003a      	movs	r2, r7
 80014ac:	4332      	orrs	r2, r6
        GPIOx->AFR[position >> 3u] = temp;
 80014ae:	5022      	str	r2, [r4, r0]
 80014b0:	e05a      	b.n	8001568 <HAL_GPIO_Init+0x104>
      /* Configure the External Interrupt or event for the current IO */
      if ((GPIO_Init->Mode & EXTI_MODE) != 0x00u)
      {
        temp = EXTI->EXTICR[position >> 2u];
        temp &= ~(0x0FuL << (8u * (position & 0x03u)));
        temp |= (GPIO_GET_INDEX(GPIOx) << (8u * (position & 0x03u)));
 80014b2:	2603      	movs	r6, #3
 80014b4:	e000      	b.n	80014b8 <HAL_GPIO_Init+0x54>
 80014b6:	2600      	movs	r6, #0
 80014b8:	40a6      	lsls	r6, r4
 80014ba:	0034      	movs	r4, r6
 80014bc:	433c      	orrs	r4, r7
        EXTI->EXTICR[position >> 2u] = temp;
 80014be:	4e43      	ldr	r6, [pc, #268]	; (80015cc <HAL_GPIO_Init+0x168>)
 80014c0:	3218      	adds	r2, #24
 80014c2:	0092      	lsls	r2, r2, #2
 80014c4:	5194      	str	r4, [r2, r6]

        /* Clear Rising Falling edge configuration */
        temp = EXTI->RTSR1;
 80014c6:	6834      	ldr	r4, [r6, #0]
        temp &= ~(iocurrent);
 80014c8:	43ea      	mvns	r2, r5
 80014ca:	0026      	movs	r6, r4
 80014cc:	43ae      	bics	r6, r5
        if ((GPIO_Init->Mode & TRIGGER_RISING) != 0x00u)
 80014ce:	684f      	ldr	r7, [r1, #4]
 80014d0:	02ff      	lsls	r7, r7, #11
 80014d2:	d501      	bpl.n	80014d8 <HAL_GPIO_Init+0x74>
        {
          temp |= iocurrent;
 80014d4:	432c      	orrs	r4, r5
 80014d6:	0026      	movs	r6, r4
        }
        EXTI->RTSR1 = temp;
 80014d8:	4c3c      	ldr	r4, [pc, #240]	; (80015cc <HAL_GPIO_Init+0x168>)
 80014da:	6026      	str	r6, [r4, #0]

        temp = EXTI->FTSR1;
 80014dc:	6864      	ldr	r4, [r4, #4]
        temp &= ~(iocurrent);
 80014de:	0026      	movs	r6, r4
 80014e0:	4016      	ands	r6, r2
        if ((GPIO_Init->Mode & TRIGGER_FALLING) != 0x00u)
 80014e2:	684f      	ldr	r7, [r1, #4]
 80014e4:	02bf      	lsls	r7, r7, #10
 80014e6:	d501      	bpl.n	80014ec <HAL_GPIO_Init+0x88>
        {
          temp |= iocurrent;
 80014e8:	432c      	orrs	r4, r5
 80014ea:	0026      	movs	r6, r4
        }
        EXTI->FTSR1 = temp;
 80014ec:	4c37      	ldr	r4, [pc, #220]	; (80015cc <HAL_GPIO_Init+0x168>)
 80014ee:	6066      	str	r6, [r4, #4]

        /* Clear EXTI line configuration */
        temp = EXTI->EMR1;
 80014f0:	2684      	movs	r6, #132	; 0x84
 80014f2:	59a4      	ldr	r4, [r4, r6]
        temp &= ~(iocurrent);
 80014f4:	0026      	movs	r6, r4
 80014f6:	4016      	ands	r6, r2
        if ((GPIO_Init->Mode & EXTI_EVT) != 0x00u)
 80014f8:	684f      	ldr	r7, [r1, #4]
 80014fa:	03bf      	lsls	r7, r7, #14
 80014fc:	d501      	bpl.n	8001502 <HAL_GPIO_Init+0x9e>
        {
          temp |= iocurrent;
 80014fe:	432c      	orrs	r4, r5
 8001500:	0026      	movs	r6, r4
        }
        EXTI->EMR1 = temp;
 8001502:	4c32      	ldr	r4, [pc, #200]	; (80015cc <HAL_GPIO_Init+0x168>)
 8001504:	2784      	movs	r7, #132	; 0x84
 8001506:	51e6      	str	r6, [r4, r7]

        temp = EXTI->IMR1;
 8001508:	2680      	movs	r6, #128	; 0x80
 800150a:	59a4      	ldr	r4, [r4, r6]
        temp &= ~(iocurrent);
 800150c:	4022      	ands	r2, r4
        if ((GPIO_Init->Mode & EXTI_IT) != 0x00u)
 800150e:	684e      	ldr	r6, [r1, #4]
 8001510:	03f6      	lsls	r6, r6, #15
 8001512:	d501      	bpl.n	8001518 <HAL_GPIO_Init+0xb4>
        {
          temp |= iocurrent;
 8001514:	002a      	movs	r2, r5
 8001516:	4322      	orrs	r2, r4
        }
        EXTI->IMR1 = temp;
 8001518:	4d2c      	ldr	r5, [pc, #176]	; (80015cc <HAL_GPIO_Init+0x168>)
 800151a:	2480      	movs	r4, #128	; 0x80
 800151c:	512a      	str	r2, [r5, r4]
      }
    }

    position++;
 800151e:	3301      	adds	r3, #1
  while (((GPIO_Init->Pin) >> position) != 0x00u)
 8001520:	680c      	ldr	r4, [r1, #0]
 8001522:	0022      	movs	r2, r4
 8001524:	40da      	lsrs	r2, r3
 8001526:	d04f      	beq.n	80015c8 <HAL_GPIO_Init+0x164>
    iocurrent = (GPIO_Init->Pin) & (1uL << position);
 8001528:	2201      	movs	r2, #1
 800152a:	409a      	lsls	r2, r3
 800152c:	0025      	movs	r5, r4
 800152e:	4015      	ands	r5, r2
    if (iocurrent != 0x00u)
 8001530:	4214      	tst	r4, r2
 8001532:	d0f4      	beq.n	800151e <HAL_GPIO_Init+0xba>
      if (((GPIO_Init->Mode & GPIO_MODE) == MODE_OUTPUT) || ((GPIO_Init->Mode & GPIO_MODE) == MODE_AF))
 8001534:	2403      	movs	r4, #3
 8001536:	684e      	ldr	r6, [r1, #4]
 8001538:	4034      	ands	r4, r6
 800153a:	3c01      	subs	r4, #1
 800153c:	2c01      	cmp	r4, #1
 800153e:	d994      	bls.n	800146a <HAL_GPIO_Init+0x6>
      if ((GPIO_Init->Mode & GPIO_MODE) != MODE_ANALOG)
 8001540:	2203      	movs	r2, #3
 8001542:	684c      	ldr	r4, [r1, #4]
 8001544:	4022      	ands	r2, r4
 8001546:	2a03      	cmp	r2, #3
 8001548:	d009      	beq.n	800155e <HAL_GPIO_Init+0xfa>
        temp = GPIOx->PUPDR;
 800154a:	68c2      	ldr	r2, [r0, #12]
        temp &= ~(GPIO_PUPDR_PUPD0 << (position * 2u));
 800154c:	005e      	lsls	r6, r3, #1
 800154e:	2403      	movs	r4, #3
 8001550:	40b4      	lsls	r4, r6
 8001552:	43a2      	bics	r2, r4
 8001554:	0014      	movs	r4, r2
        temp |= ((GPIO_Init->Pull) << (position * 2u));
 8001556:	688a      	ldr	r2, [r1, #8]
 8001558:	40b2      	lsls	r2, r6
 800155a:	4322      	orrs	r2, r4
        GPIOx->PUPDR = temp;
 800155c:	60c2      	str	r2, [r0, #12]
      if ((GPIO_Init->Mode & GPIO_MODE) == MODE_AF)
 800155e:	2203      	movs	r2, #3
 8001560:	684c      	ldr	r4, [r1, #4]
 8001562:	4022      	ands	r2, r4
 8001564:	2a02      	cmp	r2, #2
 8001566:	d094      	beq.n	8001492 <HAL_GPIO_Init+0x2e>
      temp = GPIOx->MODER;
 8001568:	6804      	ldr	r4, [r0, #0]
      temp &= ~(GPIO_MODER_MODE0 << (position * 2u));
 800156a:	005e      	lsls	r6, r3, #1
 800156c:	2203      	movs	r2, #3
 800156e:	0017      	movs	r7, r2
 8001570:	40b7      	lsls	r7, r6
 8001572:	43bc      	bics	r4, r7
      temp |= ((GPIO_Init->Mode & GPIO_MODE) << (position * 2u));
 8001574:	684f      	ldr	r7, [r1, #4]
 8001576:	403a      	ands	r2, r7
 8001578:	40b2      	lsls	r2, r6
 800157a:	4322      	orrs	r2, r4
      GPIOx->MODER = temp;
 800157c:	6002      	str	r2, [r0, #0]
      if ((GPIO_Init->Mode & EXTI_MODE) != 0x00u)
 800157e:	22c0      	movs	r2, #192	; 0xc0
 8001580:	0292      	lsls	r2, r2, #10
 8001582:	684c      	ldr	r4, [r1, #4]
 8001584:	4214      	tst	r4, r2
 8001586:	d0ca      	beq.n	800151e <HAL_GPIO_Init+0xba>
        temp = EXTI->EXTICR[position >> 2u];
 8001588:	089a      	lsrs	r2, r3, #2
 800158a:	0014      	movs	r4, r2
 800158c:	3418      	adds	r4, #24
 800158e:	00a4      	lsls	r4, r4, #2
 8001590:	4e0e      	ldr	r6, [pc, #56]	; (80015cc <HAL_GPIO_Init+0x168>)
 8001592:	59a7      	ldr	r7, [r4, r6]
        temp &= ~(0x0FuL << (8u * (position & 0x03u)));
 8001594:	2403      	movs	r4, #3
 8001596:	401c      	ands	r4, r3
 8001598:	00e4      	lsls	r4, r4, #3
 800159a:	260f      	movs	r6, #15
 800159c:	40a6      	lsls	r6, r4
 800159e:	43b7      	bics	r7, r6
        temp |= (GPIO_GET_INDEX(GPIOx) << (8u * (position & 0x03u)));
 80015a0:	26a0      	movs	r6, #160	; 0xa0
 80015a2:	05f6      	lsls	r6, r6, #23
 80015a4:	42b0      	cmp	r0, r6
 80015a6:	d086      	beq.n	80014b6 <HAL_GPIO_Init+0x52>
 80015a8:	4e09      	ldr	r6, [pc, #36]	; (80015d0 <HAL_GPIO_Init+0x16c>)
 80015aa:	42b0      	cmp	r0, r6
 80015ac:	d008      	beq.n	80015c0 <HAL_GPIO_Init+0x15c>
 80015ae:	4e09      	ldr	r6, [pc, #36]	; (80015d4 <HAL_GPIO_Init+0x170>)
 80015b0:	42b0      	cmp	r0, r6
 80015b2:	d007      	beq.n	80015c4 <HAL_GPIO_Init+0x160>
 80015b4:	4e08      	ldr	r6, [pc, #32]	; (80015d8 <HAL_GPIO_Init+0x174>)
 80015b6:	42b0      	cmp	r0, r6
 80015b8:	d100      	bne.n	80015bc <HAL_GPIO_Init+0x158>
 80015ba:	e77a      	b.n	80014b2 <HAL_GPIO_Init+0x4e>
 80015bc:	2605      	movs	r6, #5
 80015be:	e77b      	b.n	80014b8 <HAL_GPIO_Init+0x54>
 80015c0:	2601      	movs	r6, #1
 80015c2:	e779      	b.n	80014b8 <HAL_GPIO_Init+0x54>
 80015c4:	2602      	movs	r6, #2
 80015c6:	e777      	b.n	80014b8 <HAL_GPIO_Init+0x54>
  }
}
 80015c8:	bdf0      	pop	{r4, r5, r6, r7, pc}
 80015ca:	46c0      	nop			; (mov r8, r8)
 80015cc:	40021800 	.word	0x40021800
 80015d0:	50000400 	.word	0x50000400
 80015d4:	50000800 	.word	0x50000800
 80015d8:	50000c00 	.word	0x50000c00

080015dc <HAL_GPIO_WritePin>:
{
  /* Check the parameters */
  assert_param(IS_GPIO_PIN(GPIO_Pin));
  assert_param(IS_GPIO_PIN_ACTION(PinState));

  if (PinState != GPIO_PIN_RESET)
 80015dc:	2a00      	cmp	r2, #0
 80015de:	d001      	beq.n	80015e4 <HAL_GPIO_WritePin+0x8>
  {
    GPIOx->BSRR = (uint32_t)GPIO_Pin;
 80015e0:	6181      	str	r1, [r0, #24]
  }
  else
  {
    GPIOx->BRR = (uint32_t)GPIO_Pin;
  }
}
 80015e2:	4770      	bx	lr
    GPIOx->BRR = (uint32_t)GPIO_Pin;
 80015e4:	6281      	str	r1, [r0, #40]	; 0x28
}
 80015e6:	e7fc      	b.n	80015e2 <HAL_GPIO_WritePin+0x6>

080015e8 <I2C_Flush_TXDR>:
  */
static void I2C_Flush_TXDR(I2C_HandleTypeDef *hi2c)
{
  /* If a pending TXIS flag is set */
  /* Write a dummy data in TXDR to clear it */
  if (__HAL_I2C_GET_FLAG(hi2c, I2C_FLAG_TXIS) != RESET)
 80015e8:	6803      	ldr	r3, [r0, #0]
 80015ea:	699a      	ldr	r2, [r3, #24]
 80015ec:	0792      	lsls	r2, r2, #30
 80015ee:	d501      	bpl.n	80015f4 <I2C_Flush_TXDR+0xc>
  {
    hi2c->Instance->TXDR = 0x00U;
 80015f0:	2200      	movs	r2, #0
 80015f2:	629a      	str	r2, [r3, #40]	; 0x28
  }

  /* Flush TX register if not empty */
  if (__HAL_I2C_GET_FLAG(hi2c, I2C_FLAG_TXE) == RESET)
 80015f4:	6803      	ldr	r3, [r0, #0]
 80015f6:	699a      	ldr	r2, [r3, #24]
 80015f8:	07d2      	lsls	r2, r2, #31
 80015fa:	d403      	bmi.n	8001604 <I2C_Flush_TXDR+0x1c>
  {
    __HAL_I2C_CLEAR_FLAG(hi2c, I2C_FLAG_TXE);
 80015fc:	699a      	ldr	r2, [r3, #24]
 80015fe:	2101      	movs	r1, #1
 8001600:	430a      	orrs	r2, r1
 8001602:	619a      	str	r2, [r3, #24]
  }
}
 8001604:	4770      	bx	lr
	...

08001608 <I2C_TransferConfig>:
  *     @arg @ref I2C_GENERATE_START_WRITE Generate Restart for write request.
  * @retval None
  */
static void I2C_TransferConfig(I2C_HandleTypeDef *hi2c, uint16_t DevAddress, uint8_t Size, uint32_t Mode,
                               uint32_t Request)
{
 8001608:	b510      	push	{r4, lr}
  assert_param(IS_I2C_ALL_INSTANCE(hi2c->Instance));
  assert_param(IS_TRANSFER_MODE(Mode));
  assert_param(IS_TRANSFER_REQUEST(Request));

  /* Declaration of tmp to prevent undefined behavior of volatile usage */
  uint32_t tmp = ((uint32_t)(((uint32_t)DevAddress & I2C_CR2_SADD) | \
 800160a:	0589      	lsls	r1, r1, #22
 800160c:	0d89      	lsrs	r1, r1, #22
                             (((uint32_t)Size << I2C_CR2_NBYTES_Pos) & I2C_CR2_NBYTES) | \
 800160e:	0412      	lsls	r2, r2, #16
  uint32_t tmp = ((uint32_t)(((uint32_t)DevAddress & I2C_CR2_SADD) | \
 8001610:	4311      	orrs	r1, r2
                             (((uint32_t)Size << I2C_CR2_NBYTES_Pos) & I2C_CR2_NBYTES) | \
 8001612:	4319      	orrs	r1, r3
  uint32_t tmp = ((uint32_t)(((uint32_t)DevAddress & I2C_CR2_SADD) | \
 8001614:	9b02      	ldr	r3, [sp, #8]
 8001616:	4319      	orrs	r1, r3
 8001618:	0049      	lsls	r1, r1, #1
 800161a:	0849      	lsrs	r1, r1, #1
                             (uint32_t)Mode | (uint32_t)Request) & (~0x80000000U));

  /* update CR2 register */
  MODIFY_REG(hi2c->Instance->CR2, \
 800161c:	6804      	ldr	r4, [r0, #0]
 800161e:	6862      	ldr	r2, [r4, #4]
 8001620:	0d5b      	lsrs	r3, r3, #21
 8001622:	2080      	movs	r0, #128	; 0x80
 8001624:	00c0      	lsls	r0, r0, #3
 8001626:	4003      	ands	r3, r0
 8001628:	4802      	ldr	r0, [pc, #8]	; (8001634 <I2C_TransferConfig+0x2c>)
 800162a:	4303      	orrs	r3, r0
 800162c:	439a      	bics	r2, r3
 800162e:	4311      	orrs	r1, r2
 8001630:	6061      	str	r1, [r4, #4]
             ((I2C_CR2_SADD | I2C_CR2_NBYTES | I2C_CR2_RELOAD | I2C_CR2_AUTOEND | \
               (I2C_CR2_RD_WRN & (uint32_t)(Request >> (31U - I2C_CR2_RD_WRN_Pos))) | \
               I2C_CR2_START | I2C_CR2_STOP)), tmp);
}
 8001632:	bd10      	pop	{r4, pc}
 8001634:	03ff63ff 	.word	0x03ff63ff

08001638 <I2C_IsErrorOccurred>:
{
 8001638:	b5f0      	push	{r4, r5, r6, r7, lr}
 800163a:	46c6      	mov	lr, r8
 800163c:	b500      	push	{lr}
 800163e:	0004      	movs	r4, r0
 8001640:	000d      	movs	r5, r1
 8001642:	0017      	movs	r7, r2
  uint32_t itflag   = hi2c->Instance->ISR;
 8001644:	6801      	ldr	r1, [r0, #0]
 8001646:	698b      	ldr	r3, [r1, #24]
  if (HAL_IS_BIT_SET(itflag, I2C_FLAG_AF))
 8001648:	2210      	movs	r2, #16
 800164a:	0016      	movs	r6, r2
 800164c:	401e      	ands	r6, r3
 800164e:	421a      	tst	r2, r3
 8001650:	d100      	bne.n	8001654 <I2C_IsErrorOccurred+0x1c>
 8001652:	e075      	b.n	8001740 <I2C_IsErrorOccurred+0x108>
    __HAL_I2C_CLEAR_FLAG(hi2c, I2C_FLAG_AF);
 8001654:	2310      	movs	r3, #16
 8001656:	61cb      	str	r3, [r1, #28]
  uint32_t error_code = 0;
 8001658:	2300      	movs	r3, #0
 800165a:	4698      	mov	r8, r3
  HAL_StatusTypeDef status = HAL_OK;
 800165c:	2600      	movs	r6, #0
    while ((__HAL_I2C_GET_FLAG(hi2c, I2C_FLAG_STOPF) == RESET) && (status == HAL_OK))
 800165e:	6823      	ldr	r3, [r4, #0]
 8001660:	6998      	ldr	r0, [r3, #24]
 8001662:	0682      	lsls	r2, r0, #26
 8001664:	d431      	bmi.n	80016ca <I2C_IsErrorOccurred+0x92>
 8001666:	2e00      	cmp	r6, #0
 8001668:	d12f      	bne.n	80016ca <I2C_IsErrorOccurred+0x92>
      if (Timeout != HAL_MAX_DELAY)
 800166a:	1c6b      	adds	r3, r5, #1
 800166c:	d0f7      	beq.n	800165e <I2C_IsErrorOccurred+0x26>
        if (((HAL_GetTick() - tickstart) > Timeout) || (Timeout == 0U))
 800166e:	f7ff fc8b 	bl	8000f88 <HAL_GetTick>
 8001672:	1bc0      	subs	r0, r0, r7
 8001674:	42a8      	cmp	r0, r5
 8001676:	d801      	bhi.n	800167c <I2C_IsErrorOccurred+0x44>
 8001678:	2d00      	cmp	r5, #0
 800167a:	d1f0      	bne.n	800165e <I2C_IsErrorOccurred+0x26>
          tmp1 = (uint32_t)(hi2c->Instance->CR2 & I2C_CR2_STOP);
 800167c:	6821      	ldr	r1, [r4, #0]
 800167e:	684b      	ldr	r3, [r1, #4]
 8001680:	2280      	movs	r2, #128	; 0x80
 8001682:	01d2      	lsls	r2, r2, #7
 8001684:	4013      	ands	r3, r2
          tmp2 = hi2c->Mode;
 8001686:	2242      	movs	r2, #66	; 0x42
 8001688:	5ca2      	ldrb	r2, [r4, r2]
 800168a:	b2d2      	uxtb	r2, r2
          if ((__HAL_I2C_GET_FLAG(hi2c, I2C_FLAG_BUSY) != RESET) && \
 800168c:	6988      	ldr	r0, [r1, #24]
 800168e:	0400      	lsls	r0, r0, #16
 8001690:	d503      	bpl.n	800169a <I2C_IsErrorOccurred+0x62>
 8001692:	2b00      	cmp	r3, #0
 8001694:	d101      	bne.n	800169a <I2C_IsErrorOccurred+0x62>
              (tmp1 != I2C_CR2_STOP) && \
 8001696:	2a20      	cmp	r2, #32
 8001698:	d10e      	bne.n	80016b8 <I2C_IsErrorOccurred+0x80>
          while (__HAL_I2C_GET_FLAG(hi2c, I2C_FLAG_STOPF) == RESET)
 800169a:	6823      	ldr	r3, [r4, #0]
 800169c:	699b      	ldr	r3, [r3, #24]
 800169e:	069b      	lsls	r3, r3, #26
 80016a0:	d4dd      	bmi.n	800165e <I2C_IsErrorOccurred+0x26>
            if ((HAL_GetTick() - tickstart) > I2C_TIMEOUT_STOPF)
 80016a2:	f7ff fc71 	bl	8000f88 <HAL_GetTick>
 80016a6:	1bc0      	subs	r0, r0, r7
 80016a8:	2819      	cmp	r0, #25
 80016aa:	d9f6      	bls.n	800169a <I2C_IsErrorOccurred+0x62>
              error_code |=HAL_I2C_ERROR_TIMEOUT;
 80016ac:	2320      	movs	r3, #32
 80016ae:	4642      	mov	r2, r8
 80016b0:	431a      	orrs	r2, r3
 80016b2:	4690      	mov	r8, r2
              status = HAL_ERROR;
 80016b4:	2601      	movs	r6, #1
              break;
 80016b6:	e7d2      	b.n	800165e <I2C_IsErrorOccurred+0x26>
            hi2c->Instance->CR2 |= I2C_CR2_STOP;
 80016b8:	684a      	ldr	r2, [r1, #4]
 80016ba:	2380      	movs	r3, #128	; 0x80
 80016bc:	01db      	lsls	r3, r3, #7
 80016be:	4313      	orrs	r3, r2
 80016c0:	604b      	str	r3, [r1, #4]
            tickstart = HAL_GetTick();
 80016c2:	f7ff fc61 	bl	8000f88 <HAL_GetTick>
 80016c6:	0007      	movs	r7, r0
 80016c8:	e7e7      	b.n	800169a <I2C_IsErrorOccurred+0x62>
    if (status == HAL_OK)
 80016ca:	2e00      	cmp	r6, #0
 80016cc:	d101      	bne.n	80016d2 <I2C_IsErrorOccurred+0x9a>
      __HAL_I2C_CLEAR_FLAG(hi2c, I2C_FLAG_STOPF);
 80016ce:	2220      	movs	r2, #32
 80016d0:	61da      	str	r2, [r3, #28]
    error_code |= HAL_I2C_ERROR_AF;
 80016d2:	2604      	movs	r6, #4
 80016d4:	4643      	mov	r3, r8
 80016d6:	4333      	orrs	r3, r6
 80016d8:	001e      	movs	r6, r3
    status = HAL_ERROR;
 80016da:	2501      	movs	r5, #1
  itflag = hi2c->Instance->ISR;
 80016dc:	6822      	ldr	r2, [r4, #0]
 80016de:	6993      	ldr	r3, [r2, #24]
  if (HAL_IS_BIT_SET(itflag, I2C_FLAG_BERR))
 80016e0:	05d9      	lsls	r1, r3, #23
 80016e2:	d504      	bpl.n	80016ee <I2C_IsErrorOccurred+0xb6>
    error_code |= HAL_I2C_ERROR_BERR;
 80016e4:	2101      	movs	r1, #1
 80016e6:	430e      	orrs	r6, r1
    __HAL_I2C_CLEAR_FLAG(hi2c, I2C_FLAG_BERR);
 80016e8:	31ff      	adds	r1, #255	; 0xff
 80016ea:	61d1      	str	r1, [r2, #28]
    status = HAL_ERROR;
 80016ec:	2501      	movs	r5, #1
  if (HAL_IS_BIT_SET(itflag, I2C_FLAG_OVR))
 80016ee:	055a      	lsls	r2, r3, #21
 80016f0:	d506      	bpl.n	8001700 <I2C_IsErrorOccurred+0xc8>
    error_code |= HAL_I2C_ERROR_OVR;
 80016f2:	2208      	movs	r2, #8
 80016f4:	4316      	orrs	r6, r2
    __HAL_I2C_CLEAR_FLAG(hi2c, I2C_FLAG_OVR);
 80016f6:	6822      	ldr	r2, [r4, #0]
 80016f8:	2180      	movs	r1, #128	; 0x80
 80016fa:	00c9      	lsls	r1, r1, #3
 80016fc:	61d1      	str	r1, [r2, #28]
    status = HAL_ERROR;
 80016fe:	2501      	movs	r5, #1
  if (HAL_IS_BIT_SET(itflag, I2C_FLAG_ARLO))
 8001700:	059b      	lsls	r3, r3, #22
 8001702:	d51f      	bpl.n	8001744 <I2C_IsErrorOccurred+0x10c>
    error_code |= HAL_I2C_ERROR_ARLO;
 8001704:	2302      	movs	r3, #2
 8001706:	431e      	orrs	r6, r3
    __HAL_I2C_CLEAR_FLAG(hi2c, I2C_FLAG_ARLO);
 8001708:	6823      	ldr	r3, [r4, #0]
 800170a:	2280      	movs	r2, #128	; 0x80
 800170c:	0092      	lsls	r2, r2, #2
 800170e:	61da      	str	r2, [r3, #28]
    status = HAL_ERROR;
 8001710:	2501      	movs	r5, #1
    I2C_Flush_TXDR(hi2c);
 8001712:	0020      	movs	r0, r4
 8001714:	f7ff ff68 	bl	80015e8 <I2C_Flush_TXDR>
    I2C_RESET_CR2(hi2c);
 8001718:	6822      	ldr	r2, [r4, #0]
 800171a:	6853      	ldr	r3, [r2, #4]
 800171c:	490b      	ldr	r1, [pc, #44]	; (800174c <I2C_IsErrorOccurred+0x114>)
 800171e:	400b      	ands	r3, r1
 8001720:	6053      	str	r3, [r2, #4]
    hi2c->ErrorCode |= error_code;
 8001722:	6c63      	ldr	r3, [r4, #68]	; 0x44
 8001724:	431e      	orrs	r6, r3
 8001726:	6466      	str	r6, [r4, #68]	; 0x44
    hi2c->State = HAL_I2C_STATE_READY;
 8001728:	2341      	movs	r3, #65	; 0x41
 800172a:	2220      	movs	r2, #32
 800172c:	54e2      	strb	r2, [r4, r3]
    hi2c->Mode = HAL_I2C_MODE_NONE;
 800172e:	2300      	movs	r3, #0
 8001730:	3222      	adds	r2, #34	; 0x22
 8001732:	54a3      	strb	r3, [r4, r2]
    __HAL_UNLOCK(hi2c);
 8001734:	3a02      	subs	r2, #2
 8001736:	54a3      	strb	r3, [r4, r2]
}
 8001738:	0028      	movs	r0, r5
 800173a:	bc80      	pop	{r7}
 800173c:	46b8      	mov	r8, r7
 800173e:	bdf0      	pop	{r4, r5, r6, r7, pc}
  HAL_StatusTypeDef status = HAL_OK;
 8001740:	2500      	movs	r5, #0
 8001742:	e7cb      	b.n	80016dc <I2C_IsErrorOccurred+0xa4>
  if (status != HAL_OK)
 8001744:	2d00      	cmp	r5, #0
 8001746:	d0f7      	beq.n	8001738 <I2C_IsErrorOccurred+0x100>
 8001748:	e7e3      	b.n	8001712 <I2C_IsErrorOccurred+0xda>
 800174a:	46c0      	nop			; (mov r8, r8)
 800174c:	fe00e800 	.word	0xfe00e800

08001750 <I2C_WaitOnTXISFlagUntilTimeout>:
{
 8001750:	b570      	push	{r4, r5, r6, lr}
 8001752:	0004      	movs	r4, r0
 8001754:	000d      	movs	r5, r1
 8001756:	0016      	movs	r6, r2
  while (__HAL_I2C_GET_FLAG(hi2c, I2C_FLAG_TXIS) == RESET)
 8001758:	6823      	ldr	r3, [r4, #0]
 800175a:	699b      	ldr	r3, [r3, #24]
 800175c:	079b      	lsls	r3, r3, #30
 800175e:	d41c      	bmi.n	800179a <I2C_WaitOnTXISFlagUntilTimeout+0x4a>
    if (I2C_IsErrorOccurred(hi2c, Timeout, Tickstart) != HAL_OK)
 8001760:	0032      	movs	r2, r6
 8001762:	0029      	movs	r1, r5
 8001764:	0020      	movs	r0, r4
 8001766:	f7ff ff67 	bl	8001638 <I2C_IsErrorOccurred>
 800176a:	2800      	cmp	r0, #0
 800176c:	d117      	bne.n	800179e <I2C_WaitOnTXISFlagUntilTimeout+0x4e>
    if (Timeout != HAL_MAX_DELAY)
 800176e:	1c6b      	adds	r3, r5, #1
 8001770:	d0f2      	beq.n	8001758 <I2C_WaitOnTXISFlagUntilTimeout+0x8>
      if (((HAL_GetTick() - Tickstart) > Timeout) || (Timeout == 0U))
 8001772:	f7ff fc09 	bl	8000f88 <HAL_GetTick>
 8001776:	1b80      	subs	r0, r0, r6
 8001778:	42a8      	cmp	r0, r5
 800177a:	d801      	bhi.n	8001780 <I2C_WaitOnTXISFlagUntilTimeout+0x30>
 800177c:	2d00      	cmp	r5, #0
 800177e:	d1eb      	bne.n	8001758 <I2C_WaitOnTXISFlagUntilTimeout+0x8>
        hi2c->ErrorCode |= HAL_I2C_ERROR_TIMEOUT;
 8001780:	6c63      	ldr	r3, [r4, #68]	; 0x44
 8001782:	2220      	movs	r2, #32
 8001784:	4313      	orrs	r3, r2
 8001786:	6463      	str	r3, [r4, #68]	; 0x44
        hi2c->State = HAL_I2C_STATE_READY;
 8001788:	2341      	movs	r3, #65	; 0x41
 800178a:	54e2      	strb	r2, [r4, r3]
        hi2c->Mode = HAL_I2C_MODE_NONE;
 800178c:	2300      	movs	r3, #0
 800178e:	3222      	adds	r2, #34	; 0x22
 8001790:	54a3      	strb	r3, [r4, r2]
        __HAL_UNLOCK(hi2c);
 8001792:	3a02      	subs	r2, #2
 8001794:	54a3      	strb	r3, [r4, r2]
        return HAL_ERROR;
 8001796:	2001      	movs	r0, #1
 8001798:	e000      	b.n	800179c <I2C_WaitOnTXISFlagUntilTimeout+0x4c>
  return HAL_OK;
 800179a:	2000      	movs	r0, #0
}
 800179c:	bd70      	pop	{r4, r5, r6, pc}
      return HAL_ERROR;
 800179e:	2001      	movs	r0, #1
 80017a0:	e7fc      	b.n	800179c <I2C_WaitOnTXISFlagUntilTimeout+0x4c>

080017a2 <I2C_WaitOnFlagUntilTimeout>:
{
 80017a2:	b5f0      	push	{r4, r5, r6, r7, lr}
 80017a4:	46c6      	mov	lr, r8
 80017a6:	b500      	push	{lr}
 80017a8:	0007      	movs	r7, r0
 80017aa:	000d      	movs	r5, r1
 80017ac:	4690      	mov	r8, r2
 80017ae:	001e      	movs	r6, r3
  while (__HAL_I2C_GET_FLAG(hi2c, Flag) == Status)
 80017b0:	683b      	ldr	r3, [r7, #0]
 80017b2:	699c      	ldr	r4, [r3, #24]
 80017b4:	402c      	ands	r4, r5
 80017b6:	1b64      	subs	r4, r4, r5
 80017b8:	4263      	negs	r3, r4
 80017ba:	415c      	adcs	r4, r3
 80017bc:	4544      	cmp	r4, r8
 80017be:	d116      	bne.n	80017ee <I2C_WaitOnFlagUntilTimeout+0x4c>
    if (Timeout != HAL_MAX_DELAY)
 80017c0:	1c73      	adds	r3, r6, #1
 80017c2:	d0f5      	beq.n	80017b0 <I2C_WaitOnFlagUntilTimeout+0xe>
      if (((HAL_GetTick() - Tickstart) > Timeout) || (Timeout == 0U))
 80017c4:	f7ff fbe0 	bl	8000f88 <HAL_GetTick>
 80017c8:	9b06      	ldr	r3, [sp, #24]
 80017ca:	1ac0      	subs	r0, r0, r3
 80017cc:	42b0      	cmp	r0, r6
 80017ce:	d801      	bhi.n	80017d4 <I2C_WaitOnFlagUntilTimeout+0x32>
 80017d0:	2e00      	cmp	r6, #0
 80017d2:	d1ed      	bne.n	80017b0 <I2C_WaitOnFlagUntilTimeout+0xe>
        hi2c->ErrorCode |= HAL_I2C_ERROR_TIMEOUT;
 80017d4:	6c7b      	ldr	r3, [r7, #68]	; 0x44
 80017d6:	2220      	movs	r2, #32
 80017d8:	4313      	orrs	r3, r2
 80017da:	647b      	str	r3, [r7, #68]	; 0x44
        hi2c->State = HAL_I2C_STATE_READY;
 80017dc:	2341      	movs	r3, #65	; 0x41
 80017de:	54fa      	strb	r2, [r7, r3]
        hi2c->Mode = HAL_I2C_MODE_NONE;
 80017e0:	2300      	movs	r3, #0
 80017e2:	3222      	adds	r2, #34	; 0x22
 80017e4:	54bb      	strb	r3, [r7, r2]
        __HAL_UNLOCK(hi2c);
 80017e6:	3a02      	subs	r2, #2
 80017e8:	54bb      	strb	r3, [r7, r2]
        return HAL_ERROR;
 80017ea:	2001      	movs	r0, #1
 80017ec:	e000      	b.n	80017f0 <I2C_WaitOnFlagUntilTimeout+0x4e>
  return HAL_OK;
 80017ee:	2000      	movs	r0, #0
}
 80017f0:	bc80      	pop	{r7}
 80017f2:	46b8      	mov	r8, r7
 80017f4:	bdf0      	pop	{r4, r5, r6, r7, pc}

080017f6 <I2C_WaitOnSTOPFlagUntilTimeout>:
{
 80017f6:	b570      	push	{r4, r5, r6, lr}
 80017f8:	0005      	movs	r5, r0
 80017fa:	000c      	movs	r4, r1
 80017fc:	0016      	movs	r6, r2
  while (__HAL_I2C_GET_FLAG(hi2c, I2C_FLAG_STOPF) == RESET)
 80017fe:	682b      	ldr	r3, [r5, #0]
 8001800:	699b      	ldr	r3, [r3, #24]
 8001802:	069b      	lsls	r3, r3, #26
 8001804:	d41a      	bmi.n	800183c <I2C_WaitOnSTOPFlagUntilTimeout+0x46>
    if (I2C_IsErrorOccurred(hi2c, Timeout, Tickstart) != HAL_OK)
 8001806:	0032      	movs	r2, r6
 8001808:	0021      	movs	r1, r4
 800180a:	0028      	movs	r0, r5
 800180c:	f7ff ff14 	bl	8001638 <I2C_IsErrorOccurred>
 8001810:	2800      	cmp	r0, #0
 8001812:	d115      	bne.n	8001840 <I2C_WaitOnSTOPFlagUntilTimeout+0x4a>
    if (((HAL_GetTick() - Tickstart) > Timeout) || (Timeout == 0U))
 8001814:	f7ff fbb8 	bl	8000f88 <HAL_GetTick>
 8001818:	1b80      	subs	r0, r0, r6
 800181a:	42a0      	cmp	r0, r4
 800181c:	d801      	bhi.n	8001822 <I2C_WaitOnSTOPFlagUntilTimeout+0x2c>
 800181e:	2c00      	cmp	r4, #0
 8001820:	d1ed      	bne.n	80017fe <I2C_WaitOnSTOPFlagUntilTimeout+0x8>
      hi2c->ErrorCode |= HAL_I2C_ERROR_TIMEOUT;
 8001822:	6c6b      	ldr	r3, [r5, #68]	; 0x44
 8001824:	2220      	movs	r2, #32
 8001826:	4313      	orrs	r3, r2
 8001828:	646b      	str	r3, [r5, #68]	; 0x44
      hi2c->State = HAL_I2C_STATE_READY;
 800182a:	2341      	movs	r3, #65	; 0x41
 800182c:	54ea      	strb	r2, [r5, r3]
      hi2c->Mode = HAL_I2C_MODE_NONE;
 800182e:	2300      	movs	r3, #0
 8001830:	3222      	adds	r2, #34	; 0x22
 8001832:	54ab      	strb	r3, [r5, r2]
      __HAL_UNLOCK(hi2c);
 8001834:	3a02      	subs	r2, #2
 8001836:	54ab      	strb	r3, [r5, r2]
      return HAL_ERROR;
 8001838:	2001      	movs	r0, #1
}
 800183a:	bd70      	pop	{r4, r5, r6, pc}
  return HAL_OK;
 800183c:	2000      	movs	r0, #0
 800183e:	e7fc      	b.n	800183a <I2C_WaitOnSTOPFlagUntilTimeout+0x44>
      return HAL_ERROR;
 8001840:	2001      	movs	r0, #1
 8001842:	e7fa      	b.n	800183a <I2C_WaitOnSTOPFlagUntilTimeout+0x44>

08001844 <I2C_WaitOnRXNEFlagUntilTimeout>:
{
 8001844:	b570      	push	{r4, r5, r6, lr}
 8001846:	0004      	movs	r4, r0
 8001848:	000d      	movs	r5, r1
 800184a:	0016      	movs	r6, r2
  while (__HAL_I2C_GET_FLAG(hi2c, I2C_FLAG_RXNE) == RESET)
 800184c:	6823      	ldr	r3, [r4, #0]
 800184e:	699b      	ldr	r3, [r3, #24]
 8001850:	075b      	lsls	r3, r3, #29
 8001852:	d43d      	bmi.n	80018d0 <I2C_WaitOnRXNEFlagUntilTimeout+0x8c>
    if (I2C_IsErrorOccurred(hi2c, Timeout, Tickstart) != HAL_OK)
 8001854:	0032      	movs	r2, r6
 8001856:	0029      	movs	r1, r5
 8001858:	0020      	movs	r0, r4
 800185a:	f7ff feed 	bl	8001638 <I2C_IsErrorOccurred>
 800185e:	2800      	cmp	r0, #0
 8001860:	d138      	bne.n	80018d4 <I2C_WaitOnRXNEFlagUntilTimeout+0x90>
    if (__HAL_I2C_GET_FLAG(hi2c, I2C_FLAG_STOPF) == SET)
 8001862:	6823      	ldr	r3, [r4, #0]
 8001864:	699a      	ldr	r2, [r3, #24]
 8001866:	0692      	lsls	r2, r2, #26
 8001868:	d411      	bmi.n	800188e <I2C_WaitOnRXNEFlagUntilTimeout+0x4a>
    if (((HAL_GetTick() - Tickstart) > Timeout) || (Timeout == 0U))
 800186a:	f7ff fb8d 	bl	8000f88 <HAL_GetTick>
 800186e:	1b80      	subs	r0, r0, r6
 8001870:	42a8      	cmp	r0, r5
 8001872:	d801      	bhi.n	8001878 <I2C_WaitOnRXNEFlagUntilTimeout+0x34>
 8001874:	2d00      	cmp	r5, #0
 8001876:	d1e9      	bne.n	800184c <I2C_WaitOnRXNEFlagUntilTimeout+0x8>
      hi2c->ErrorCode |= HAL_I2C_ERROR_TIMEOUT;
 8001878:	6c63      	ldr	r3, [r4, #68]	; 0x44
 800187a:	2220      	movs	r2, #32
 800187c:	4313      	orrs	r3, r2
 800187e:	6463      	str	r3, [r4, #68]	; 0x44
      hi2c->State = HAL_I2C_STATE_READY;
 8001880:	2341      	movs	r3, #65	; 0x41
 8001882:	54e2      	strb	r2, [r4, r3]
      __HAL_UNLOCK(hi2c);
 8001884:	3b01      	subs	r3, #1
 8001886:	2200      	movs	r2, #0
 8001888:	54e2      	strb	r2, [r4, r3]
      return HAL_ERROR;
 800188a:	2001      	movs	r0, #1
}
 800188c:	bd70      	pop	{r4, r5, r6, pc}
      if ((__HAL_I2C_GET_FLAG(hi2c, I2C_FLAG_RXNE) == SET) && (hi2c->XferSize > 0U))
 800188e:	699a      	ldr	r2, [r3, #24]
 8001890:	0752      	lsls	r2, r2, #29
 8001892:	d502      	bpl.n	800189a <I2C_WaitOnRXNEFlagUntilTimeout+0x56>
 8001894:	8d22      	ldrh	r2, [r4, #40]	; 0x28
 8001896:	2a00      	cmp	r2, #0
 8001898:	d1f8      	bne.n	800188c <I2C_WaitOnRXNEFlagUntilTimeout+0x48>
        if (__HAL_I2C_GET_FLAG(hi2c, I2C_FLAG_AF) == SET)
 800189a:	699a      	ldr	r2, [r3, #24]
 800189c:	06d2      	lsls	r2, r2, #27
 800189e:	d514      	bpl.n	80018ca <I2C_WaitOnRXNEFlagUntilTimeout+0x86>
          __HAL_I2C_CLEAR_FLAG(hi2c, I2C_FLAG_AF);
 80018a0:	2210      	movs	r2, #16
 80018a2:	61da      	str	r2, [r3, #28]
          hi2c->ErrorCode = HAL_I2C_ERROR_AF;
 80018a4:	2304      	movs	r3, #4
 80018a6:	6463      	str	r3, [r4, #68]	; 0x44
        __HAL_I2C_CLEAR_FLAG(hi2c, I2C_FLAG_STOPF);
 80018a8:	6823      	ldr	r3, [r4, #0]
 80018aa:	2220      	movs	r2, #32
 80018ac:	61da      	str	r2, [r3, #28]
        I2C_RESET_CR2(hi2c);
 80018ae:	6821      	ldr	r1, [r4, #0]
 80018b0:	684b      	ldr	r3, [r1, #4]
 80018b2:	4809      	ldr	r0, [pc, #36]	; (80018d8 <I2C_WaitOnRXNEFlagUntilTimeout+0x94>)
 80018b4:	4003      	ands	r3, r0
 80018b6:	604b      	str	r3, [r1, #4]
        hi2c->State = HAL_I2C_STATE_READY;
 80018b8:	2341      	movs	r3, #65	; 0x41
 80018ba:	54e2      	strb	r2, [r4, r3]
        hi2c->Mode = HAL_I2C_MODE_NONE;
 80018bc:	2300      	movs	r3, #0
 80018be:	3222      	adds	r2, #34	; 0x22
 80018c0:	54a3      	strb	r3, [r4, r2]
        __HAL_UNLOCK(hi2c);
 80018c2:	3a02      	subs	r2, #2
 80018c4:	54a3      	strb	r3, [r4, r2]
        return HAL_ERROR;
 80018c6:	2001      	movs	r0, #1
 80018c8:	e7e0      	b.n	800188c <I2C_WaitOnRXNEFlagUntilTimeout+0x48>
          hi2c->ErrorCode = HAL_I2C_ERROR_NONE;
 80018ca:	2300      	movs	r3, #0
 80018cc:	6463      	str	r3, [r4, #68]	; 0x44
 80018ce:	e7eb      	b.n	80018a8 <I2C_WaitOnRXNEFlagUntilTimeout+0x64>
  return HAL_OK;
 80018d0:	2000      	movs	r0, #0
 80018d2:	e7db      	b.n	800188c <I2C_WaitOnRXNEFlagUntilTimeout+0x48>
      return HAL_ERROR;
 80018d4:	2001      	movs	r0, #1
 80018d6:	e7d9      	b.n	800188c <I2C_WaitOnRXNEFlagUntilTimeout+0x48>
 80018d8:	fe00e800 	.word	0xfe00e800

080018dc <HAL_I2C_Init>:
{
 80018dc:	b510      	push	{r4, lr}
 80018de:	1e04      	subs	r4, r0, #0
  if (hi2c == NULL)
 80018e0:	d059      	beq.n	8001996 <HAL_I2C_Init+0xba>
  if (hi2c->State == HAL_I2C_STATE_RESET)
 80018e2:	2341      	movs	r3, #65	; 0x41
 80018e4:	5cc3      	ldrb	r3, [r0, r3]
 80018e6:	2b00      	cmp	r3, #0
 80018e8:	d043      	beq.n	8001972 <HAL_I2C_Init+0x96>
  hi2c->State = HAL_I2C_STATE_BUSY;
 80018ea:	2341      	movs	r3, #65	; 0x41
 80018ec:	2224      	movs	r2, #36	; 0x24
 80018ee:	54e2      	strb	r2, [r4, r3]
  __HAL_I2C_DISABLE(hi2c);
 80018f0:	6822      	ldr	r2, [r4, #0]
 80018f2:	6813      	ldr	r3, [r2, #0]
 80018f4:	2101      	movs	r1, #1
 80018f6:	438b      	bics	r3, r1
 80018f8:	6013      	str	r3, [r2, #0]
  hi2c->Instance->TIMINGR = hi2c->Init.Timing & TIMING_CLEAR_MASK;
 80018fa:	6822      	ldr	r2, [r4, #0]
 80018fc:	4b27      	ldr	r3, [pc, #156]	; (800199c <HAL_I2C_Init+0xc0>)
 80018fe:	6861      	ldr	r1, [r4, #4]
 8001900:	400b      	ands	r3, r1
 8001902:	6113      	str	r3, [r2, #16]
  hi2c->Instance->OAR1 &= ~I2C_OAR1_OA1EN;
 8001904:	6822      	ldr	r2, [r4, #0]
 8001906:	6893      	ldr	r3, [r2, #8]
 8001908:	4925      	ldr	r1, [pc, #148]	; (80019a0 <HAL_I2C_Init+0xc4>)
 800190a:	400b      	ands	r3, r1
 800190c:	6093      	str	r3, [r2, #8]
  if (hi2c->Init.AddressingMode == I2C_ADDRESSINGMODE_7BIT)
 800190e:	68e3      	ldr	r3, [r4, #12]
 8001910:	2b01      	cmp	r3, #1
 8001912:	d034      	beq.n	800197e <HAL_I2C_Init+0xa2>
    hi2c->Instance->OAR1 = (I2C_OAR1_OA1EN | I2C_OAR1_OA1MODE | hi2c->Init.OwnAddress1);
 8001914:	6822      	ldr	r2, [r4, #0]
 8001916:	2384      	movs	r3, #132	; 0x84
 8001918:	021b      	lsls	r3, r3, #8
 800191a:	68a1      	ldr	r1, [r4, #8]
 800191c:	430b      	orrs	r3, r1
 800191e:	6093      	str	r3, [r2, #8]
  if (hi2c->Init.AddressingMode == I2C_ADDRESSINGMODE_10BIT)
 8001920:	68e3      	ldr	r3, [r4, #12]
 8001922:	2b02      	cmp	r3, #2
 8001924:	d032      	beq.n	800198c <HAL_I2C_Init+0xb0>
  hi2c->Instance->CR2 |= (I2C_CR2_AUTOEND | I2C_CR2_NACK);
 8001926:	6822      	ldr	r2, [r4, #0]
 8001928:	6851      	ldr	r1, [r2, #4]
 800192a:	4b1e      	ldr	r3, [pc, #120]	; (80019a4 <HAL_I2C_Init+0xc8>)
 800192c:	430b      	orrs	r3, r1
 800192e:	6053      	str	r3, [r2, #4]
  hi2c->Instance->OAR2 &= ~I2C_DUALADDRESS_ENABLE;
 8001930:	6822      	ldr	r2, [r4, #0]
 8001932:	68d3      	ldr	r3, [r2, #12]
 8001934:	491a      	ldr	r1, [pc, #104]	; (80019a0 <HAL_I2C_Init+0xc4>)
 8001936:	400b      	ands	r3, r1
 8001938:	60d3      	str	r3, [r2, #12]
  hi2c->Instance->OAR2 = (hi2c->Init.DualAddressMode | hi2c->Init.OwnAddress2 | \
 800193a:	6923      	ldr	r3, [r4, #16]
 800193c:	6962      	ldr	r2, [r4, #20]
 800193e:	4313      	orrs	r3, r2
                          (hi2c->Init.OwnAddress2Masks << 8));
 8001940:	69a2      	ldr	r2, [r4, #24]
 8001942:	0212      	lsls	r2, r2, #8
  hi2c->Instance->OAR2 = (hi2c->Init.DualAddressMode | hi2c->Init.OwnAddress2 | \
 8001944:	6821      	ldr	r1, [r4, #0]
 8001946:	4313      	orrs	r3, r2
 8001948:	60cb      	str	r3, [r1, #12]
  hi2c->Instance->CR1 = (hi2c->Init.GeneralCallMode | hi2c->Init.NoStretchMode);
 800194a:	6822      	ldr	r2, [r4, #0]
 800194c:	69e3      	ldr	r3, [r4, #28]
 800194e:	6a21      	ldr	r1, [r4, #32]
 8001950:	430b      	orrs	r3, r1
 8001952:	6013      	str	r3, [r2, #0]
  __HAL_I2C_ENABLE(hi2c);
 8001954:	6822      	ldr	r2, [r4, #0]
 8001956:	6813      	ldr	r3, [r2, #0]
 8001958:	2101      	movs	r1, #1
 800195a:	430b      	orrs	r3, r1
 800195c:	6013      	str	r3, [r2, #0]
  hi2c->ErrorCode = HAL_I2C_ERROR_NONE;
 800195e:	2300      	movs	r3, #0
 8001960:	6463      	str	r3, [r4, #68]	; 0x44
  hi2c->State = HAL_I2C_STATE_READY;
 8001962:	2241      	movs	r2, #65	; 0x41
 8001964:	311f      	adds	r1, #31
 8001966:	54a1      	strb	r1, [r4, r2]
  hi2c->PreviousState = I2C_STATE_NONE;
 8001968:	6323      	str	r3, [r4, #48]	; 0x30
  hi2c->Mode = HAL_I2C_MODE_NONE;
 800196a:	3201      	adds	r2, #1
 800196c:	54a3      	strb	r3, [r4, r2]
  return HAL_OK;
 800196e:	2000      	movs	r0, #0
}
 8001970:	bd10      	pop	{r4, pc}
    hi2c->Lock = HAL_UNLOCKED;
 8001972:	3340      	adds	r3, #64	; 0x40
 8001974:	2200      	movs	r2, #0
 8001976:	54c2      	strb	r2, [r0, r3]
    HAL_I2C_MspInit(hi2c);
 8001978:	f7ff f88a 	bl	8000a90 <HAL_I2C_MspInit>
 800197c:	e7b5      	b.n	80018ea <HAL_I2C_Init+0xe>
    hi2c->Instance->OAR1 = (I2C_OAR1_OA1EN | hi2c->Init.OwnAddress1);
 800197e:	6822      	ldr	r2, [r4, #0]
 8001980:	2380      	movs	r3, #128	; 0x80
 8001982:	021b      	lsls	r3, r3, #8
 8001984:	68a1      	ldr	r1, [r4, #8]
 8001986:	430b      	orrs	r3, r1
 8001988:	6093      	str	r3, [r2, #8]
 800198a:	e7c9      	b.n	8001920 <HAL_I2C_Init+0x44>
    hi2c->Instance->CR2 = (I2C_CR2_ADD10);
 800198c:	6823      	ldr	r3, [r4, #0]
 800198e:	2280      	movs	r2, #128	; 0x80
 8001990:	0112      	lsls	r2, r2, #4
 8001992:	605a      	str	r2, [r3, #4]
 8001994:	e7c7      	b.n	8001926 <HAL_I2C_Init+0x4a>
    return HAL_ERROR;
 8001996:	2001      	movs	r0, #1
 8001998:	e7ea      	b.n	8001970 <HAL_I2C_Init+0x94>
 800199a:	46c0      	nop			; (mov r8, r8)
 800199c:	f0ffffff 	.word	0xf0ffffff
 80019a0:	ffff7fff 	.word	0xffff7fff
 80019a4:	02008000 	.word	0x02008000

080019a8 <HAL_I2C_Master_Transmit>:
{
 80019a8:	b5f0      	push	{r4, r5, r6, r7, lr}
 80019aa:	b085      	sub	sp, #20
 80019ac:	0004      	movs	r4, r0
 80019ae:	000f      	movs	r7, r1
 80019b0:	9202      	str	r2, [sp, #8]
 80019b2:	9303      	str	r3, [sp, #12]
 80019b4:	9d0a      	ldr	r5, [sp, #40]	; 0x28
  if (hi2c->State == HAL_I2C_STATE_READY)
 80019b6:	2341      	movs	r3, #65	; 0x41
 80019b8:	5cc3      	ldrb	r3, [r0, r3]
 80019ba:	2b20      	cmp	r3, #32
 80019bc:	d000      	beq.n	80019c0 <HAL_I2C_Master_Transmit+0x18>
 80019be:	e09b      	b.n	8001af8 <HAL_I2C_Master_Transmit+0x150>
    __HAL_LOCK(hi2c);
 80019c0:	3320      	adds	r3, #32
 80019c2:	5cc3      	ldrb	r3, [r0, r3]
 80019c4:	2b01      	cmp	r3, #1
 80019c6:	d100      	bne.n	80019ca <HAL_I2C_Master_Transmit+0x22>
 80019c8:	e099      	b.n	8001afe <HAL_I2C_Master_Transmit+0x156>
 80019ca:	2340      	movs	r3, #64	; 0x40
 80019cc:	2201      	movs	r2, #1
 80019ce:	54c2      	strb	r2, [r0, r3]
    tickstart = HAL_GetTick();
 80019d0:	f7ff fada 	bl	8000f88 <HAL_GetTick>
 80019d4:	0006      	movs	r6, r0
    if (I2C_WaitOnFlagUntilTimeout(hi2c, I2C_FLAG_BUSY, SET, I2C_TIMEOUT_BUSY, tickstart) != HAL_OK)
 80019d6:	2180      	movs	r1, #128	; 0x80
 80019d8:	9000      	str	r0, [sp, #0]
 80019da:	2319      	movs	r3, #25
 80019dc:	2201      	movs	r2, #1
 80019de:	0209      	lsls	r1, r1, #8
 80019e0:	0020      	movs	r0, r4
 80019e2:	f7ff fede 	bl	80017a2 <I2C_WaitOnFlagUntilTimeout>
 80019e6:	2800      	cmp	r0, #0
 80019e8:	d000      	beq.n	80019ec <HAL_I2C_Master_Transmit+0x44>
 80019ea:	e08a      	b.n	8001b02 <HAL_I2C_Master_Transmit+0x15a>
    hi2c->State     = HAL_I2C_STATE_BUSY_TX;
 80019ec:	2341      	movs	r3, #65	; 0x41
 80019ee:	2221      	movs	r2, #33	; 0x21
 80019f0:	54e2      	strb	r2, [r4, r3]
    hi2c->Mode      = HAL_I2C_MODE_MASTER;
 80019f2:	3301      	adds	r3, #1
 80019f4:	3a11      	subs	r2, #17
 80019f6:	54e2      	strb	r2, [r4, r3]
    hi2c->ErrorCode = HAL_I2C_ERROR_NONE;
 80019f8:	2300      	movs	r3, #0
 80019fa:	6463      	str	r3, [r4, #68]	; 0x44
    hi2c->pBuffPtr  = pData;
 80019fc:	9a02      	ldr	r2, [sp, #8]
 80019fe:	6262      	str	r2, [r4, #36]	; 0x24
    hi2c->XferCount = Size;
 8001a00:	9a03      	ldr	r2, [sp, #12]
 8001a02:	8562      	strh	r2, [r4, #42]	; 0x2a
    hi2c->XferISR   = NULL;
 8001a04:	6363      	str	r3, [r4, #52]	; 0x34
    if (hi2c->XferCount > MAX_NBYTE_SIZE)
 8001a06:	8d63      	ldrh	r3, [r4, #42]	; 0x2a
 8001a08:	b29b      	uxth	r3, r3
 8001a0a:	2bff      	cmp	r3, #255	; 0xff
 8001a0c:	d90b      	bls.n	8001a26 <HAL_I2C_Master_Transmit+0x7e>
      hi2c->XferSize = MAX_NBYTE_SIZE;
 8001a0e:	23ff      	movs	r3, #255	; 0xff
 8001a10:	8523      	strh	r3, [r4, #40]	; 0x28
      I2C_TransferConfig(hi2c, DevAddress, (uint8_t)hi2c->XferSize, I2C_RELOAD_MODE,
 8001a12:	3b7f      	subs	r3, #127	; 0x7f
 8001a14:	4a3f      	ldr	r2, [pc, #252]	; (8001b14 <HAL_I2C_Master_Transmit+0x16c>)
 8001a16:	9200      	str	r2, [sp, #0]
 8001a18:	045b      	lsls	r3, r3, #17
 8001a1a:	22ff      	movs	r2, #255	; 0xff
 8001a1c:	0039      	movs	r1, r7
 8001a1e:	0020      	movs	r0, r4
 8001a20:	f7ff fdf2 	bl	8001608 <I2C_TransferConfig>
 8001a24:	e018      	b.n	8001a58 <HAL_I2C_Master_Transmit+0xb0>
      hi2c->XferSize = hi2c->XferCount;
 8001a26:	8d62      	ldrh	r2, [r4, #42]	; 0x2a
 8001a28:	b292      	uxth	r2, r2
 8001a2a:	8522      	strh	r2, [r4, #40]	; 0x28
      I2C_TransferConfig(hi2c, DevAddress, (uint8_t)hi2c->XferSize, I2C_AUTOEND_MODE,
 8001a2c:	2380      	movs	r3, #128	; 0x80
 8001a2e:	b2d2      	uxtb	r2, r2
 8001a30:	4938      	ldr	r1, [pc, #224]	; (8001b14 <HAL_I2C_Master_Transmit+0x16c>)
 8001a32:	9100      	str	r1, [sp, #0]
 8001a34:	049b      	lsls	r3, r3, #18
 8001a36:	0039      	movs	r1, r7
 8001a38:	0020      	movs	r0, r4
 8001a3a:	f7ff fde5 	bl	8001608 <I2C_TransferConfig>
 8001a3e:	e00b      	b.n	8001a58 <HAL_I2C_Master_Transmit+0xb0>
          hi2c->XferSize = hi2c->XferCount;
 8001a40:	8d62      	ldrh	r2, [r4, #42]	; 0x2a
 8001a42:	b292      	uxth	r2, r2
 8001a44:	8522      	strh	r2, [r4, #40]	; 0x28
          I2C_TransferConfig(hi2c, DevAddress, (uint8_t)hi2c->XferSize, I2C_AUTOEND_MODE,
 8001a46:	2380      	movs	r3, #128	; 0x80
 8001a48:	b2d2      	uxtb	r2, r2
 8001a4a:	2100      	movs	r1, #0
 8001a4c:	9100      	str	r1, [sp, #0]
 8001a4e:	049b      	lsls	r3, r3, #18
 8001a50:	0039      	movs	r1, r7
 8001a52:	0020      	movs	r0, r4
 8001a54:	f7ff fdd8 	bl	8001608 <I2C_TransferConfig>
    while (hi2c->XferCount > 0U)
 8001a58:	8d63      	ldrh	r3, [r4, #42]	; 0x2a
 8001a5a:	b29b      	uxth	r3, r3
 8001a5c:	2b00      	cmp	r3, #0
 8001a5e:	d034      	beq.n	8001aca <HAL_I2C_Master_Transmit+0x122>
      if (I2C_WaitOnTXISFlagUntilTimeout(hi2c, Timeout, tickstart) != HAL_OK)
 8001a60:	0032      	movs	r2, r6
 8001a62:	0029      	movs	r1, r5
 8001a64:	0020      	movs	r0, r4
 8001a66:	f7ff fe73 	bl	8001750 <I2C_WaitOnTXISFlagUntilTimeout>
 8001a6a:	2800      	cmp	r0, #0
 8001a6c:	d14b      	bne.n	8001b06 <HAL_I2C_Master_Transmit+0x15e>
      hi2c->Instance->TXDR = *hi2c->pBuffPtr;
 8001a6e:	6823      	ldr	r3, [r4, #0]
 8001a70:	6a62      	ldr	r2, [r4, #36]	; 0x24
 8001a72:	7812      	ldrb	r2, [r2, #0]
 8001a74:	629a      	str	r2, [r3, #40]	; 0x28
      hi2c->pBuffPtr++;
 8001a76:	6a63      	ldr	r3, [r4, #36]	; 0x24
 8001a78:	3301      	adds	r3, #1
 8001a7a:	6263      	str	r3, [r4, #36]	; 0x24
      hi2c->XferCount--;
 8001a7c:	8d63      	ldrh	r3, [r4, #42]	; 0x2a
 8001a7e:	3b01      	subs	r3, #1
 8001a80:	b29b      	uxth	r3, r3
 8001a82:	8563      	strh	r3, [r4, #42]	; 0x2a
      hi2c->XferSize--;
 8001a84:	8d23      	ldrh	r3, [r4, #40]	; 0x28
 8001a86:	3b01      	subs	r3, #1
 8001a88:	b29b      	uxth	r3, r3
 8001a8a:	8523      	strh	r3, [r4, #40]	; 0x28
      if ((hi2c->XferCount != 0U) && (hi2c->XferSize == 0U))
 8001a8c:	8d62      	ldrh	r2, [r4, #42]	; 0x2a
 8001a8e:	b292      	uxth	r2, r2
 8001a90:	2a00      	cmp	r2, #0
 8001a92:	d0e1      	beq.n	8001a58 <HAL_I2C_Master_Transmit+0xb0>
 8001a94:	2b00      	cmp	r3, #0
 8001a96:	d1df      	bne.n	8001a58 <HAL_I2C_Master_Transmit+0xb0>
        if (I2C_WaitOnFlagUntilTimeout(hi2c, I2C_FLAG_TCR, RESET, Timeout, tickstart) != HAL_OK)
 8001a98:	9600      	str	r6, [sp, #0]
 8001a9a:	002b      	movs	r3, r5
 8001a9c:	2200      	movs	r2, #0
 8001a9e:	2180      	movs	r1, #128	; 0x80
 8001aa0:	0020      	movs	r0, r4
 8001aa2:	f7ff fe7e 	bl	80017a2 <I2C_WaitOnFlagUntilTimeout>
 8001aa6:	2800      	cmp	r0, #0
 8001aa8:	d12f      	bne.n	8001b0a <HAL_I2C_Master_Transmit+0x162>
        if (hi2c->XferCount > MAX_NBYTE_SIZE)
 8001aaa:	8d63      	ldrh	r3, [r4, #42]	; 0x2a
 8001aac:	b29b      	uxth	r3, r3
 8001aae:	2bff      	cmp	r3, #255	; 0xff
 8001ab0:	d9c6      	bls.n	8001a40 <HAL_I2C_Master_Transmit+0x98>
          hi2c->XferSize = MAX_NBYTE_SIZE;
 8001ab2:	23ff      	movs	r3, #255	; 0xff
 8001ab4:	8523      	strh	r3, [r4, #40]	; 0x28
          I2C_TransferConfig(hi2c, DevAddress, (uint8_t)hi2c->XferSize, I2C_RELOAD_MODE,
 8001ab6:	3b7f      	subs	r3, #127	; 0x7f
 8001ab8:	2200      	movs	r2, #0
 8001aba:	9200      	str	r2, [sp, #0]
 8001abc:	045b      	lsls	r3, r3, #17
 8001abe:	32ff      	adds	r2, #255	; 0xff
 8001ac0:	0039      	movs	r1, r7
 8001ac2:	0020      	movs	r0, r4
 8001ac4:	f7ff fda0 	bl	8001608 <I2C_TransferConfig>
 8001ac8:	e7c6      	b.n	8001a58 <HAL_I2C_Master_Transmit+0xb0>
    if (I2C_WaitOnSTOPFlagUntilTimeout(hi2c, Timeout, tickstart) != HAL_OK)
 8001aca:	0032      	movs	r2, r6
 8001acc:	0029      	movs	r1, r5
 8001ace:	0020      	movs	r0, r4
 8001ad0:	f7ff fe91 	bl	80017f6 <I2C_WaitOnSTOPFlagUntilTimeout>
 8001ad4:	2800      	cmp	r0, #0
 8001ad6:	d11a      	bne.n	8001b0e <HAL_I2C_Master_Transmit+0x166>
    __HAL_I2C_CLEAR_FLAG(hi2c, I2C_FLAG_STOPF);
 8001ad8:	6823      	ldr	r3, [r4, #0]
 8001ada:	2220      	movs	r2, #32
 8001adc:	61da      	str	r2, [r3, #28]
    I2C_RESET_CR2(hi2c);
 8001ade:	6821      	ldr	r1, [r4, #0]
 8001ae0:	684b      	ldr	r3, [r1, #4]
 8001ae2:	4d0d      	ldr	r5, [pc, #52]	; (8001b18 <HAL_I2C_Master_Transmit+0x170>)
 8001ae4:	402b      	ands	r3, r5
 8001ae6:	604b      	str	r3, [r1, #4]
    hi2c->State = HAL_I2C_STATE_READY;
 8001ae8:	2341      	movs	r3, #65	; 0x41
 8001aea:	54e2      	strb	r2, [r4, r3]
    hi2c->Mode  = HAL_I2C_MODE_NONE;
 8001aec:	2300      	movs	r3, #0
 8001aee:	3222      	adds	r2, #34	; 0x22
 8001af0:	54a3      	strb	r3, [r4, r2]
    __HAL_UNLOCK(hi2c);
 8001af2:	3a02      	subs	r2, #2
 8001af4:	54a3      	strb	r3, [r4, r2]
    return HAL_OK;
 8001af6:	e000      	b.n	8001afa <HAL_I2C_Master_Transmit+0x152>
    return HAL_BUSY;
 8001af8:	2002      	movs	r0, #2
}
 8001afa:	b005      	add	sp, #20
 8001afc:	bdf0      	pop	{r4, r5, r6, r7, pc}
    __HAL_LOCK(hi2c);
 8001afe:	2002      	movs	r0, #2
 8001b00:	e7fb      	b.n	8001afa <HAL_I2C_Master_Transmit+0x152>
      return HAL_ERROR;
 8001b02:	2001      	movs	r0, #1
 8001b04:	e7f9      	b.n	8001afa <HAL_I2C_Master_Transmit+0x152>
        return HAL_ERROR;
 8001b06:	2001      	movs	r0, #1
 8001b08:	e7f7      	b.n	8001afa <HAL_I2C_Master_Transmit+0x152>
          return HAL_ERROR;
 8001b0a:	2001      	movs	r0, #1
 8001b0c:	e7f5      	b.n	8001afa <HAL_I2C_Master_Transmit+0x152>
      return HAL_ERROR;
 8001b0e:	2001      	movs	r0, #1
 8001b10:	e7f3      	b.n	8001afa <HAL_I2C_Master_Transmit+0x152>
 8001b12:	46c0      	nop			; (mov r8, r8)
 8001b14:	80002000 	.word	0x80002000
 8001b18:	fe00e800 	.word	0xfe00e800

08001b1c <HAL_I2C_Master_Receive>:
{
 8001b1c:	b5f0      	push	{r4, r5, r6, r7, lr}
 8001b1e:	b085      	sub	sp, #20
 8001b20:	0004      	movs	r4, r0
 8001b22:	000f      	movs	r7, r1
 8001b24:	9202      	str	r2, [sp, #8]
 8001b26:	9303      	str	r3, [sp, #12]
 8001b28:	9d0a      	ldr	r5, [sp, #40]	; 0x28
  if (hi2c->State == HAL_I2C_STATE_READY)
 8001b2a:	2341      	movs	r3, #65	; 0x41
 8001b2c:	5cc3      	ldrb	r3, [r0, r3]
 8001b2e:	2b20      	cmp	r3, #32
 8001b30:	d000      	beq.n	8001b34 <HAL_I2C_Master_Receive+0x18>
 8001b32:	e09b      	b.n	8001c6c <HAL_I2C_Master_Receive+0x150>
    __HAL_LOCK(hi2c);
 8001b34:	3320      	adds	r3, #32
 8001b36:	5cc3      	ldrb	r3, [r0, r3]
 8001b38:	2b01      	cmp	r3, #1
 8001b3a:	d100      	bne.n	8001b3e <HAL_I2C_Master_Receive+0x22>
 8001b3c:	e099      	b.n	8001c72 <HAL_I2C_Master_Receive+0x156>
 8001b3e:	2340      	movs	r3, #64	; 0x40
 8001b40:	2201      	movs	r2, #1
 8001b42:	54c2      	strb	r2, [r0, r3]
    tickstart = HAL_GetTick();
 8001b44:	f7ff fa20 	bl	8000f88 <HAL_GetTick>
 8001b48:	0006      	movs	r6, r0
    if (I2C_WaitOnFlagUntilTimeout(hi2c, I2C_FLAG_BUSY, SET, I2C_TIMEOUT_BUSY, tickstart) != HAL_OK)
 8001b4a:	2180      	movs	r1, #128	; 0x80
 8001b4c:	9000      	str	r0, [sp, #0]
 8001b4e:	2319      	movs	r3, #25
 8001b50:	2201      	movs	r2, #1
 8001b52:	0209      	lsls	r1, r1, #8
 8001b54:	0020      	movs	r0, r4
 8001b56:	f7ff fe24 	bl	80017a2 <I2C_WaitOnFlagUntilTimeout>
 8001b5a:	2800      	cmp	r0, #0
 8001b5c:	d000      	beq.n	8001b60 <HAL_I2C_Master_Receive+0x44>
 8001b5e:	e08a      	b.n	8001c76 <HAL_I2C_Master_Receive+0x15a>
    hi2c->State     = HAL_I2C_STATE_BUSY_RX;
 8001b60:	2341      	movs	r3, #65	; 0x41
 8001b62:	2222      	movs	r2, #34	; 0x22
 8001b64:	54e2      	strb	r2, [r4, r3]
    hi2c->Mode      = HAL_I2C_MODE_MASTER;
 8001b66:	3301      	adds	r3, #1
 8001b68:	3a12      	subs	r2, #18
 8001b6a:	54e2      	strb	r2, [r4, r3]
    hi2c->ErrorCode = HAL_I2C_ERROR_NONE;
 8001b6c:	2300      	movs	r3, #0
 8001b6e:	6463      	str	r3, [r4, #68]	; 0x44
    hi2c->pBuffPtr  = pData;
 8001b70:	9a02      	ldr	r2, [sp, #8]
 8001b72:	6262      	str	r2, [r4, #36]	; 0x24
    hi2c->XferCount = Size;
 8001b74:	9a03      	ldr	r2, [sp, #12]
 8001b76:	8562      	strh	r2, [r4, #42]	; 0x2a
    hi2c->XferISR   = NULL;
 8001b78:	6363      	str	r3, [r4, #52]	; 0x34
    if (hi2c->XferCount > MAX_NBYTE_SIZE)
 8001b7a:	8d63      	ldrh	r3, [r4, #42]	; 0x2a
 8001b7c:	b29b      	uxth	r3, r3
 8001b7e:	2bff      	cmp	r3, #255	; 0xff
 8001b80:	d90b      	bls.n	8001b9a <HAL_I2C_Master_Receive+0x7e>
      hi2c->XferSize = MAX_NBYTE_SIZE;
 8001b82:	23ff      	movs	r3, #255	; 0xff
 8001b84:	8523      	strh	r3, [r4, #40]	; 0x28
      I2C_TransferConfig(hi2c, DevAddress, (uint8_t)hi2c->XferSize, I2C_RELOAD_MODE,
 8001b86:	3b7f      	subs	r3, #127	; 0x7f
 8001b88:	4a3f      	ldr	r2, [pc, #252]	; (8001c88 <HAL_I2C_Master_Receive+0x16c>)
 8001b8a:	9200      	str	r2, [sp, #0]
 8001b8c:	045b      	lsls	r3, r3, #17
 8001b8e:	22ff      	movs	r2, #255	; 0xff
 8001b90:	0039      	movs	r1, r7
 8001b92:	0020      	movs	r0, r4
 8001b94:	f7ff fd38 	bl	8001608 <I2C_TransferConfig>
 8001b98:	e018      	b.n	8001bcc <HAL_I2C_Master_Receive+0xb0>
      hi2c->XferSize = hi2c->XferCount;
 8001b9a:	8d62      	ldrh	r2, [r4, #42]	; 0x2a
 8001b9c:	b292      	uxth	r2, r2
 8001b9e:	8522      	strh	r2, [r4, #40]	; 0x28
      I2C_TransferConfig(hi2c, DevAddress, (uint8_t)hi2c->XferSize, I2C_AUTOEND_MODE,
 8001ba0:	2380      	movs	r3, #128	; 0x80
 8001ba2:	b2d2      	uxtb	r2, r2
 8001ba4:	4938      	ldr	r1, [pc, #224]	; (8001c88 <HAL_I2C_Master_Receive+0x16c>)
 8001ba6:	9100      	str	r1, [sp, #0]
 8001ba8:	049b      	lsls	r3, r3, #18
 8001baa:	0039      	movs	r1, r7
 8001bac:	0020      	movs	r0, r4
 8001bae:	f7ff fd2b 	bl	8001608 <I2C_TransferConfig>
 8001bb2:	e00b      	b.n	8001bcc <HAL_I2C_Master_Receive+0xb0>
          hi2c->XferSize = hi2c->XferCount;
 8001bb4:	8d62      	ldrh	r2, [r4, #42]	; 0x2a
 8001bb6:	b292      	uxth	r2, r2
 8001bb8:	8522      	strh	r2, [r4, #40]	; 0x28
          I2C_TransferConfig(hi2c, DevAddress, (uint8_t)hi2c->XferSize, I2C_AUTOEND_MODE,
 8001bba:	2380      	movs	r3, #128	; 0x80
 8001bbc:	b2d2      	uxtb	r2, r2
 8001bbe:	2100      	movs	r1, #0
 8001bc0:	9100      	str	r1, [sp, #0]
 8001bc2:	049b      	lsls	r3, r3, #18
 8001bc4:	0039      	movs	r1, r7
 8001bc6:	0020      	movs	r0, r4
 8001bc8:	f7ff fd1e 	bl	8001608 <I2C_TransferConfig>
    while (hi2c->XferCount > 0U)
 8001bcc:	8d63      	ldrh	r3, [r4, #42]	; 0x2a
 8001bce:	b29b      	uxth	r3, r3
 8001bd0:	2b00      	cmp	r3, #0
 8001bd2:	d034      	beq.n	8001c3e <HAL_I2C_Master_Receive+0x122>
      if (I2C_WaitOnRXNEFlagUntilTimeout(hi2c, Timeout, tickstart) != HAL_OK)
 8001bd4:	0032      	movs	r2, r6
 8001bd6:	0029      	movs	r1, r5
 8001bd8:	0020      	movs	r0, r4
 8001bda:	f7ff fe33 	bl	8001844 <I2C_WaitOnRXNEFlagUntilTimeout>
 8001bde:	2800      	cmp	r0, #0
 8001be0:	d14b      	bne.n	8001c7a <HAL_I2C_Master_Receive+0x15e>
      *hi2c->pBuffPtr = (uint8_t)hi2c->Instance->RXDR;
 8001be2:	6823      	ldr	r3, [r4, #0]
 8001be4:	6a5b      	ldr	r3, [r3, #36]	; 0x24
 8001be6:	6a62      	ldr	r2, [r4, #36]	; 0x24
 8001be8:	7013      	strb	r3, [r2, #0]
      hi2c->pBuffPtr++;
 8001bea:	6a63      	ldr	r3, [r4, #36]	; 0x24
 8001bec:	3301      	adds	r3, #1
 8001bee:	6263      	str	r3, [r4, #36]	; 0x24
      hi2c->XferSize--;
 8001bf0:	8d23      	ldrh	r3, [r4, #40]	; 0x28
 8001bf2:	3b01      	subs	r3, #1
 8001bf4:	b29b      	uxth	r3, r3
 8001bf6:	8523      	strh	r3, [r4, #40]	; 0x28
      hi2c->XferCount--;
 8001bf8:	8d62      	ldrh	r2, [r4, #42]	; 0x2a
 8001bfa:	3a01      	subs	r2, #1
 8001bfc:	b292      	uxth	r2, r2
 8001bfe:	8562      	strh	r2, [r4, #42]	; 0x2a
      if ((hi2c->XferCount != 0U) && (hi2c->XferSize == 0U))
 8001c00:	8d62      	ldrh	r2, [r4, #42]	; 0x2a
 8001c02:	b292      	uxth	r2, r2
 8001c04:	2a00      	cmp	r2, #0
 8001c06:	d0e1      	beq.n	8001bcc <HAL_I2C_Master_Receive+0xb0>
 8001c08:	2b00      	cmp	r3, #0
 8001c0a:	d1df      	bne.n	8001bcc <HAL_I2C_Master_Receive+0xb0>
        if (I2C_WaitOnFlagUntilTimeout(hi2c, I2C_FLAG_TCR, RESET, Timeout, tickstart) != HAL_OK)
 8001c0c:	9600      	str	r6, [sp, #0]
 8001c0e:	002b      	movs	r3, r5
 8001c10:	2200      	movs	r2, #0
 8001c12:	2180      	movs	r1, #128	; 0x80
 8001c14:	0020      	movs	r0, r4
 8001c16:	f7ff fdc4 	bl	80017a2 <I2C_WaitOnFlagUntilTimeout>
 8001c1a:	2800      	cmp	r0, #0
 8001c1c:	d12f      	bne.n	8001c7e <HAL_I2C_Master_Receive+0x162>
        if (hi2c->XferCount > MAX_NBYTE_SIZE)
 8001c1e:	8d63      	ldrh	r3, [r4, #42]	; 0x2a
 8001c20:	b29b      	uxth	r3, r3
 8001c22:	2bff      	cmp	r3, #255	; 0xff
 8001c24:	d9c6      	bls.n	8001bb4 <HAL_I2C_Master_Receive+0x98>
          hi2c->XferSize = MAX_NBYTE_SIZE;
 8001c26:	23ff      	movs	r3, #255	; 0xff
 8001c28:	8523      	strh	r3, [r4, #40]	; 0x28
          I2C_TransferConfig(hi2c, DevAddress, (uint8_t)hi2c->XferSize, I2C_RELOAD_MODE,
 8001c2a:	3b7f      	subs	r3, #127	; 0x7f
 8001c2c:	2200      	movs	r2, #0
 8001c2e:	9200      	str	r2, [sp, #0]
 8001c30:	045b      	lsls	r3, r3, #17
 8001c32:	32ff      	adds	r2, #255	; 0xff
 8001c34:	0039      	movs	r1, r7
 8001c36:	0020      	movs	r0, r4
 8001c38:	f7ff fce6 	bl	8001608 <I2C_TransferConfig>
 8001c3c:	e7c6      	b.n	8001bcc <HAL_I2C_Master_Receive+0xb0>
    if (I2C_WaitOnSTOPFlagUntilTimeout(hi2c, Timeout, tickstart) != HAL_OK)
 8001c3e:	0032      	movs	r2, r6
 8001c40:	0029      	movs	r1, r5
 8001c42:	0020      	movs	r0, r4
 8001c44:	f7ff fdd7 	bl	80017f6 <I2C_WaitOnSTOPFlagUntilTimeout>
 8001c48:	2800      	cmp	r0, #0
 8001c4a:	d11a      	bne.n	8001c82 <HAL_I2C_Master_Receive+0x166>
    __HAL_I2C_CLEAR_FLAG(hi2c, I2C_FLAG_STOPF);
 8001c4c:	6823      	ldr	r3, [r4, #0]
 8001c4e:	2220      	movs	r2, #32
 8001c50:	61da      	str	r2, [r3, #28]
    I2C_RESET_CR2(hi2c);
 8001c52:	6821      	ldr	r1, [r4, #0]
 8001c54:	684b      	ldr	r3, [r1, #4]
 8001c56:	4d0d      	ldr	r5, [pc, #52]	; (8001c8c <HAL_I2C_Master_Receive+0x170>)
 8001c58:	402b      	ands	r3, r5
 8001c5a:	604b      	str	r3, [r1, #4]
    hi2c->State = HAL_I2C_STATE_READY;
 8001c5c:	2341      	movs	r3, #65	; 0x41
 8001c5e:	54e2      	strb	r2, [r4, r3]
    hi2c->Mode  = HAL_I2C_MODE_NONE;
 8001c60:	2300      	movs	r3, #0
 8001c62:	3222      	adds	r2, #34	; 0x22
 8001c64:	54a3      	strb	r3, [r4, r2]
    __HAL_UNLOCK(hi2c);
 8001c66:	3a02      	subs	r2, #2
 8001c68:	54a3      	strb	r3, [r4, r2]
    return HAL_OK;
 8001c6a:	e000      	b.n	8001c6e <HAL_I2C_Master_Receive+0x152>
    return HAL_BUSY;
 8001c6c:	2002      	movs	r0, #2
}
 8001c6e:	b005      	add	sp, #20
 8001c70:	bdf0      	pop	{r4, r5, r6, r7, pc}
    __HAL_LOCK(hi2c);
 8001c72:	2002      	movs	r0, #2
 8001c74:	e7fb      	b.n	8001c6e <HAL_I2C_Master_Receive+0x152>
      return HAL_ERROR;
 8001c76:	2001      	movs	r0, #1
 8001c78:	e7f9      	b.n	8001c6e <HAL_I2C_Master_Receive+0x152>
        return HAL_ERROR;
 8001c7a:	2001      	movs	r0, #1
 8001c7c:	e7f7      	b.n	8001c6e <HAL_I2C_Master_Receive+0x152>
          return HAL_ERROR;
 8001c7e:	2001      	movs	r0, #1
 8001c80:	e7f5      	b.n	8001c6e <HAL_I2C_Master_Receive+0x152>
      return HAL_ERROR;
 8001c82:	2001      	movs	r0, #1
 8001c84:	e7f3      	b.n	8001c6e <HAL_I2C_Master_Receive+0x152>
 8001c86:	46c0      	nop			; (mov r8, r8)
 8001c88:	80002400 	.word	0x80002400
 8001c8c:	fe00e800 	.word	0xfe00e800

08001c90 <HAL_I2CEx_ConfigAnalogFilter>:
  *                the configuration information for the specified I2Cx peripheral.
  * @param  AnalogFilter New state of the Analog filter.
  * @retval HAL status
  */
HAL_StatusTypeDef HAL_I2CEx_ConfigAnalogFilter(I2C_HandleTypeDef *hi2c, uint32_t AnalogFilter)
{
 8001c90:	b5f0      	push	{r4, r5, r6, r7, lr}
  /* Check the parameters */
  assert_param(IS_I2C_ALL_INSTANCE(hi2c->Instance));
  assert_param(IS_I2C_ANALOG_FILTER(AnalogFilter));

  if (hi2c->State == HAL_I2C_STATE_READY)
 8001c92:	2341      	movs	r3, #65	; 0x41
 8001c94:	5cc3      	ldrb	r3, [r0, r3]
 8001c96:	2b20      	cmp	r3, #32
 8001c98:	d120      	bne.n	8001cdc <HAL_I2CEx_ConfigAnalogFilter+0x4c>
  {
    /* Process Locked */
    __HAL_LOCK(hi2c);
 8001c9a:	3320      	adds	r3, #32
 8001c9c:	5cc3      	ldrb	r3, [r0, r3]
 8001c9e:	2b01      	cmp	r3, #1
 8001ca0:	d01e      	beq.n	8001ce0 <HAL_I2CEx_ConfigAnalogFilter+0x50>
 8001ca2:	2440      	movs	r4, #64	; 0x40
 8001ca4:	2201      	movs	r2, #1
 8001ca6:	5502      	strb	r2, [r0, r4]

    hi2c->State = HAL_I2C_STATE_BUSY;
 8001ca8:	2541      	movs	r5, #65	; 0x41
 8001caa:	2324      	movs	r3, #36	; 0x24
 8001cac:	5543      	strb	r3, [r0, r5]

    /* Disable the selected I2C peripheral */
    __HAL_I2C_DISABLE(hi2c);
 8001cae:	6806      	ldr	r6, [r0, #0]
 8001cb0:	6833      	ldr	r3, [r6, #0]
 8001cb2:	4393      	bics	r3, r2
 8001cb4:	6033      	str	r3, [r6, #0]

    /* Reset I2Cx ANOFF bit */
    hi2c->Instance->CR1 &= ~(I2C_CR1_ANFOFF);
 8001cb6:	6806      	ldr	r6, [r0, #0]
 8001cb8:	6833      	ldr	r3, [r6, #0]
 8001cba:	4f0a      	ldr	r7, [pc, #40]	; (8001ce4 <HAL_I2CEx_ConfigAnalogFilter+0x54>)
 8001cbc:	403b      	ands	r3, r7
 8001cbe:	6033      	str	r3, [r6, #0]

    /* Set analog filter bit*/
    hi2c->Instance->CR1 |= AnalogFilter;
 8001cc0:	6806      	ldr	r6, [r0, #0]
 8001cc2:	6833      	ldr	r3, [r6, #0]
 8001cc4:	4319      	orrs	r1, r3
 8001cc6:	6031      	str	r1, [r6, #0]

    __HAL_I2C_ENABLE(hi2c);
 8001cc8:	6801      	ldr	r1, [r0, #0]
 8001cca:	680b      	ldr	r3, [r1, #0]
 8001ccc:	4313      	orrs	r3, r2
 8001cce:	600b      	str	r3, [r1, #0]

    hi2c->State = HAL_I2C_STATE_READY;
 8001cd0:	2320      	movs	r3, #32
 8001cd2:	5543      	strb	r3, [r0, r5]

    /* Process Unlocked */
    __HAL_UNLOCK(hi2c);
 8001cd4:	2300      	movs	r3, #0
 8001cd6:	5503      	strb	r3, [r0, r4]

    return HAL_OK;
 8001cd8:	2000      	movs	r0, #0
  }
  else
  {
    return HAL_BUSY;
  }
}
 8001cda:	bdf0      	pop	{r4, r5, r6, r7, pc}
    return HAL_BUSY;
 8001cdc:	2002      	movs	r0, #2
 8001cde:	e7fc      	b.n	8001cda <HAL_I2CEx_ConfigAnalogFilter+0x4a>
    __HAL_LOCK(hi2c);
 8001ce0:	2002      	movs	r0, #2
 8001ce2:	e7fa      	b.n	8001cda <HAL_I2CEx_ConfigAnalogFilter+0x4a>
 8001ce4:	ffffefff 	.word	0xffffefff

08001ce8 <HAL_I2CEx_ConfigDigitalFilter>:
  *                the configuration information for the specified I2Cx peripheral.
  * @param  DigitalFilter Coefficient of digital noise filter between Min_Data=0x00 and Max_Data=0x0F.
  * @retval HAL status
  */
HAL_StatusTypeDef HAL_I2CEx_ConfigDigitalFilter(I2C_HandleTypeDef *hi2c, uint32_t DigitalFilter)
{
 8001ce8:	b5f0      	push	{r4, r5, r6, r7, lr}

  /* Check the parameters */
  assert_param(IS_I2C_ALL_INSTANCE(hi2c->Instance));
  assert_param(IS_I2C_DIGITAL_FILTER(DigitalFilter));

  if (hi2c->State == HAL_I2C_STATE_READY)
 8001cea:	2341      	movs	r3, #65	; 0x41
 8001cec:	5cc3      	ldrb	r3, [r0, r3]
 8001cee:	2b20      	cmp	r3, #32
 8001cf0:	d11e      	bne.n	8001d30 <HAL_I2CEx_ConfigDigitalFilter+0x48>
  {
    /* Process Locked */
    __HAL_LOCK(hi2c);
 8001cf2:	3320      	adds	r3, #32
 8001cf4:	5cc3      	ldrb	r3, [r0, r3]
 8001cf6:	2b01      	cmp	r3, #1
 8001cf8:	d01c      	beq.n	8001d34 <HAL_I2CEx_ConfigDigitalFilter+0x4c>
 8001cfa:	2440      	movs	r4, #64	; 0x40
 8001cfc:	2201      	movs	r2, #1
 8001cfe:	5502      	strb	r2, [r0, r4]

    hi2c->State = HAL_I2C_STATE_BUSY;
 8001d00:	2541      	movs	r5, #65	; 0x41
 8001d02:	2324      	movs	r3, #36	; 0x24
 8001d04:	5543      	strb	r3, [r0, r5]

    /* Disable the selected I2C peripheral */
    __HAL_I2C_DISABLE(hi2c);
 8001d06:	6806      	ldr	r6, [r0, #0]
 8001d08:	6833      	ldr	r3, [r6, #0]
 8001d0a:	4393      	bics	r3, r2
 8001d0c:	6033      	str	r3, [r6, #0]

    /* Get the old register value */
    tmpreg = hi2c->Instance->CR1;
 8001d0e:	6806      	ldr	r6, [r0, #0]
 8001d10:	6833      	ldr	r3, [r6, #0]

    /* Reset I2Cx DNF bits [11:8] */
    tmpreg &= ~(I2C_CR1_DNF);
 8001d12:	4f09      	ldr	r7, [pc, #36]	; (8001d38 <HAL_I2CEx_ConfigDigitalFilter+0x50>)
 8001d14:	403b      	ands	r3, r7

    /* Set I2Cx DNF coefficient */
    tmpreg |= DigitalFilter << 8U;
 8001d16:	0209      	lsls	r1, r1, #8
 8001d18:	4319      	orrs	r1, r3

    /* Store the new register value */
    hi2c->Instance->CR1 = tmpreg;
 8001d1a:	6031      	str	r1, [r6, #0]

    __HAL_I2C_ENABLE(hi2c);
 8001d1c:	6801      	ldr	r1, [r0, #0]
 8001d1e:	680b      	ldr	r3, [r1, #0]
 8001d20:	4313      	orrs	r3, r2
 8001d22:	600b      	str	r3, [r1, #0]

    hi2c->State = HAL_I2C_STATE_READY;
 8001d24:	2320      	movs	r3, #32
 8001d26:	5543      	strb	r3, [r0, r5]

    /* Process Unlocked */
    __HAL_UNLOCK(hi2c);
 8001d28:	2300      	movs	r3, #0
 8001d2a:	5503      	strb	r3, [r0, r4]

    return HAL_OK;
 8001d2c:	2000      	movs	r0, #0
  }
  else
  {
    return HAL_BUSY;
  }
}
 8001d2e:	bdf0      	pop	{r4, r5, r6, r7, pc}
    return HAL_BUSY;
 8001d30:	2002      	movs	r0, #2
 8001d32:	e7fc      	b.n	8001d2e <HAL_I2CEx_ConfigDigitalFilter+0x46>
    __HAL_LOCK(hi2c);
 8001d34:	2002      	movs	r0, #2
 8001d36:	e7fa      	b.n	8001d2e <HAL_I2CEx_ConfigDigitalFilter+0x46>
 8001d38:	fffff0ff 	.word	0xfffff0ff

08001d3c <HAL_PWR_EnterSLEEPMode>:
  * @note   When WFI entry is used, tick interrupt have to be disabled if not
  *         desired as the interrupt wake up source.
  * @retval None
  */
void HAL_PWR_EnterSLEEPMode(uint32_t Regulator, uint8_t SLEEPEntry)
{
 8001d3c:	b510      	push	{r4, lr}
 8001d3e:	000c      	movs	r4, r1
  /* Check the parameters */
  assert_param(IS_PWR_REGULATOR(Regulator));
  assert_param(IS_PWR_SLEEP_ENTRY(SLEEPEntry));

  /* Set Regulator parameter */
  if (Regulator != PWR_MAINREGULATOR_ON)
 8001d40:	2800      	cmp	r0, #0
 8001d42:	d011      	beq.n	8001d68 <HAL_PWR_EnterSLEEPMode+0x2c>
  {
    /* If in run mode, first move to low-power run mode.
       The system clock frequency must be below 2 MHz at this point. */
    if ((PWR->SR2 & PWR_SR2_REGLPF) == 0x00u)
 8001d44:	4b0e      	ldr	r3, [pc, #56]	; (8001d80 <HAL_PWR_EnterSLEEPMode+0x44>)
 8001d46:	695b      	ldr	r3, [r3, #20]
 8001d48:	059b      	lsls	r3, r3, #22
 8001d4a:	d50a      	bpl.n	8001d62 <HAL_PWR_EnterSLEEPMode+0x26>
      }
    }
  }

  /* Clear SLEEPDEEP bit of Cortex System Control Register */
  CLEAR_BIT(SCB->SCR, ((uint32_t)SCB_SCR_SLEEPDEEP_Msk));
 8001d4c:	4a0d      	ldr	r2, [pc, #52]	; (8001d84 <HAL_PWR_EnterSLEEPMode+0x48>)
 8001d4e:	6913      	ldr	r3, [r2, #16]
 8001d50:	2104      	movs	r1, #4
 8001d52:	438b      	bics	r3, r1
 8001d54:	6113      	str	r3, [r2, #16]

  /* Select SLEEP mode entry -------------------------------------------------*/
  if (SLEEPEntry == PWR_SLEEPENTRY_WFI)
 8001d56:	2c01      	cmp	r4, #1
 8001d58:	d00f      	beq.n	8001d7a <HAL_PWR_EnterSLEEPMode+0x3e>
    __WFI();
  }
  else
  {
    /* Request Wait For Event */
    __SEV();
 8001d5a:	bf40      	sev
    __WFE();
 8001d5c:	bf20      	wfe
    __WFE();
 8001d5e:	bf20      	wfe
  }
}
 8001d60:	bd10      	pop	{r4, pc}
      HAL_PWREx_EnableLowPowerRunMode();
 8001d62:	f000 f83b 	bl	8001ddc <HAL_PWREx_EnableLowPowerRunMode>
 8001d66:	e7f1      	b.n	8001d4c <HAL_PWR_EnterSLEEPMode+0x10>
    if ((PWR->SR2 & PWR_SR2_REGLPF) != 0x00u)
 8001d68:	4b05      	ldr	r3, [pc, #20]	; (8001d80 <HAL_PWR_EnterSLEEPMode+0x44>)
 8001d6a:	695b      	ldr	r3, [r3, #20]
 8001d6c:	059b      	lsls	r3, r3, #22
 8001d6e:	d5ed      	bpl.n	8001d4c <HAL_PWR_EnterSLEEPMode+0x10>
      if (HAL_PWREx_DisableLowPowerRunMode() != HAL_OK)
 8001d70:	f000 f83e 	bl	8001df0 <HAL_PWREx_DisableLowPowerRunMode>
 8001d74:	2800      	cmp	r0, #0
 8001d76:	d0e9      	beq.n	8001d4c <HAL_PWR_EnterSLEEPMode+0x10>
 8001d78:	e7f2      	b.n	8001d60 <HAL_PWR_EnterSLEEPMode+0x24>
    __WFI();
 8001d7a:	bf30      	wfi
 8001d7c:	e7f0      	b.n	8001d60 <HAL_PWR_EnterSLEEPMode+0x24>
 8001d7e:	46c0      	nop			; (mov r8, r8)
 8001d80:	40007000 	.word	0x40007000
 8001d84:	e000ed00 	.word	0xe000ed00

08001d88 <HAL_PWREx_ControlVoltageScaling>:
  *        cleared before returning the status. If the flag is not cleared within
  *        6 microseconds, HAL_TIMEOUT status is reported.
  * @retval HAL Status
  */
HAL_StatusTypeDef HAL_PWREx_ControlVoltageScaling(uint32_t VoltageScaling)
{
 8001d88:	b510      	push	{r4, lr}
  uint32_t wait_loop_index;

  assert_param(IS_PWR_VOLTAGE_SCALING_RANGE(VoltageScaling));

  /* Modify voltage scaling range */
  MODIFY_REG(PWR->CR1, PWR_CR1_VOS, VoltageScaling);
 8001d8a:	4a10      	ldr	r2, [pc, #64]	; (8001dcc <HAL_PWREx_ControlVoltageScaling+0x44>)
 8001d8c:	6813      	ldr	r3, [r2, #0]
 8001d8e:	4910      	ldr	r1, [pc, #64]	; (8001dd0 <HAL_PWREx_ControlVoltageScaling+0x48>)
 8001d90:	400b      	ands	r3, r1
 8001d92:	4303      	orrs	r3, r0
 8001d94:	6013      	str	r3, [r2, #0]

  /* In case of Range 1 selected, we need to ensure that main regulator reaches new value */
  if (VoltageScaling == PWR_REGULATOR_VOLTAGE_SCALE1)
 8001d96:	2380      	movs	r3, #128	; 0x80
 8001d98:	009b      	lsls	r3, r3, #2
 8001d9a:	4298      	cmp	r0, r3
 8001d9c:	d001      	beq.n	8001da2 <HAL_PWREx_ControlVoltageScaling+0x1a>
        return HAL_TIMEOUT;
      }
    }
  }

  return HAL_OK;
 8001d9e:	2000      	movs	r0, #0
}
 8001da0:	bd10      	pop	{r4, pc}
    wait_loop_index = ((PWR_VOSF_SETTING_DELAY_6_US * SystemCoreClock) / 1000000U) + 1U;
 8001da2:	4b0c      	ldr	r3, [pc, #48]	; (8001dd4 <HAL_PWREx_ControlVoltageScaling+0x4c>)
 8001da4:	681b      	ldr	r3, [r3, #0]
 8001da6:	0058      	lsls	r0, r3, #1
 8001da8:	18c0      	adds	r0, r0, r3
 8001daa:	0040      	lsls	r0, r0, #1
 8001dac:	490a      	ldr	r1, [pc, #40]	; (8001dd8 <HAL_PWREx_ControlVoltageScaling+0x50>)
 8001dae:	f7fe f9b1 	bl	8000114 <__udivsi3>
 8001db2:	3001      	adds	r0, #1
    while (HAL_IS_BIT_SET(PWR->SR2, PWR_SR2_VOSF))
 8001db4:	4b05      	ldr	r3, [pc, #20]	; (8001dcc <HAL_PWREx_ControlVoltageScaling+0x44>)
 8001db6:	695b      	ldr	r3, [r3, #20]
 8001db8:	055b      	lsls	r3, r3, #21
 8001dba:	d503      	bpl.n	8001dc4 <HAL_PWREx_ControlVoltageScaling+0x3c>
      if (wait_loop_index != 0U)
 8001dbc:	2800      	cmp	r0, #0
 8001dbe:	d003      	beq.n	8001dc8 <HAL_PWREx_ControlVoltageScaling+0x40>
        wait_loop_index--;
 8001dc0:	3801      	subs	r0, #1
 8001dc2:	e7f7      	b.n	8001db4 <HAL_PWREx_ControlVoltageScaling+0x2c>
  return HAL_OK;
 8001dc4:	2000      	movs	r0, #0
 8001dc6:	e7eb      	b.n	8001da0 <HAL_PWREx_ControlVoltageScaling+0x18>
        return HAL_TIMEOUT;
 8001dc8:	2003      	movs	r0, #3
 8001dca:	e7e9      	b.n	8001da0 <HAL_PWREx_ControlVoltageScaling+0x18>
 8001dcc:	40007000 	.word	0x40007000
 8001dd0:	fffff9ff 	.word	0xfffff9ff
 8001dd4:	20000084 	.word	0x20000084
 8001dd8:	000f4240 	.word	0x000f4240

08001ddc <HAL_PWREx_EnableLowPowerRunMode>:
  * @retval None
  */
void HAL_PWREx_EnableLowPowerRunMode(void)
{
  /* Set Regulator parameter */
  SET_BIT(PWR->CR1, PWR_CR1_LPR);
 8001ddc:	4a03      	ldr	r2, [pc, #12]	; (8001dec <HAL_PWREx_EnableLowPowerRunMode+0x10>)
 8001dde:	6811      	ldr	r1, [r2, #0]
 8001de0:	2380      	movs	r3, #128	; 0x80
 8001de2:	01db      	lsls	r3, r3, #7
 8001de4:	430b      	orrs	r3, r1
 8001de6:	6013      	str	r3, [r2, #0]
}
 8001de8:	4770      	bx	lr
 8001dea:	46c0      	nop			; (mov r8, r8)
 8001dec:	40007000 	.word	0x40007000

08001df0 <HAL_PWREx_DisableLowPowerRunMode>:
  *        returns HAL_TIMEOUT status). The system clock frequency can then be
  *        increased above 2 MHz.
  * @retval HAL Status
  */
HAL_StatusTypeDef HAL_PWREx_DisableLowPowerRunMode(void)
{
 8001df0:	b510      	push	{r4, lr}
  uint32_t wait_loop_index = ((PWR_REGLPF_SETTING_DELAY_6_US * SystemCoreClock) / 1000000U) + 1U;
 8001df2:	4b0d      	ldr	r3, [pc, #52]	; (8001e28 <HAL_PWREx_DisableLowPowerRunMode+0x38>)
 8001df4:	681b      	ldr	r3, [r3, #0]
 8001df6:	0058      	lsls	r0, r3, #1
 8001df8:	18c0      	adds	r0, r0, r3
 8001dfa:	0040      	lsls	r0, r0, #1
 8001dfc:	490b      	ldr	r1, [pc, #44]	; (8001e2c <HAL_PWREx_DisableLowPowerRunMode+0x3c>)
 8001dfe:	f7fe f989 	bl	8000114 <__udivsi3>
 8001e02:	3001      	adds	r0, #1

  /* Clear LPR bit */
  CLEAR_BIT(PWR->CR1, PWR_CR1_LPR);
 8001e04:	4a0a      	ldr	r2, [pc, #40]	; (8001e30 <HAL_PWREx_DisableLowPowerRunMode+0x40>)
 8001e06:	6813      	ldr	r3, [r2, #0]
 8001e08:	490a      	ldr	r1, [pc, #40]	; (8001e34 <HAL_PWREx_DisableLowPowerRunMode+0x44>)
 8001e0a:	400b      	ands	r3, r1
 8001e0c:	6013      	str	r3, [r2, #0]

  /* Wait until REGLPF is reset */
  while (HAL_IS_BIT_SET(PWR->SR2, PWR_SR2_REGLPF))
 8001e0e:	e000      	b.n	8001e12 <HAL_PWREx_DisableLowPowerRunMode+0x22>
  {
    if (wait_loop_index != 0U)
    {
      wait_loop_index--;
 8001e10:	3801      	subs	r0, #1
  while (HAL_IS_BIT_SET(PWR->SR2, PWR_SR2_REGLPF))
 8001e12:	4b07      	ldr	r3, [pc, #28]	; (8001e30 <HAL_PWREx_DisableLowPowerRunMode+0x40>)
 8001e14:	695b      	ldr	r3, [r3, #20]
 8001e16:	059b      	lsls	r3, r3, #22
 8001e18:	d503      	bpl.n	8001e22 <HAL_PWREx_DisableLowPowerRunMode+0x32>
    if (wait_loop_index != 0U)
 8001e1a:	2800      	cmp	r0, #0
 8001e1c:	d1f8      	bne.n	8001e10 <HAL_PWREx_DisableLowPowerRunMode+0x20>
    }
    else
    {
      return HAL_TIMEOUT;
 8001e1e:	2003      	movs	r0, #3
 8001e20:	e000      	b.n	8001e24 <HAL_PWREx_DisableLowPowerRunMode+0x34>
    }
  }

  return HAL_OK;
 8001e22:	2000      	movs	r0, #0
}
 8001e24:	bd10      	pop	{r4, pc}
 8001e26:	46c0      	nop			; (mov r8, r8)
 8001e28:	20000084 	.word	0x20000084
 8001e2c:	000f4240 	.word	0x000f4240
 8001e30:	40007000 	.word	0x40007000
 8001e34:	ffffbfff 	.word	0xffffbfff

08001e38 <HAL_RCC_OscConfig>:
  *         supported by this function. User should request a transition to LSE Off
  *         first and then to LSE On or LSE Bypass.
  * @retval HAL status
  */
HAL_StatusTypeDef HAL_RCC_OscConfig(RCC_OscInitTypeDef  *RCC_OscInitStruct)
{
 8001e38:	b570      	push	{r4, r5, r6, lr}
 8001e3a:	b082      	sub	sp, #8
 8001e3c:	1e04      	subs	r4, r0, #0
  uint32_t tickstart;
  uint32_t temp_sysclksrc;
  uint32_t temp_pllckcfg;

  /* Check Null pointer */
  if (RCC_OscInitStruct == NULL)
 8001e3e:	d100      	bne.n	8001e42 <HAL_RCC_OscConfig+0xa>
 8001e40:	e229      	b.n	8002296 <HAL_RCC_OscConfig+0x45e>

  /* Check the parameters */
  assert_param(IS_RCC_OSCILLATORTYPE(RCC_OscInitStruct->OscillatorType));

  /*------------------------------- HSE Configuration ------------------------*/
  if (((RCC_OscInitStruct->OscillatorType) & RCC_OSCILLATORTYPE_HSE) == RCC_OSCILLATORTYPE_HSE)
 8001e42:	6803      	ldr	r3, [r0, #0]
 8001e44:	07db      	lsls	r3, r3, #31
 8001e46:	d539      	bpl.n	8001ebc <HAL_RCC_OscConfig+0x84>
  {
    /* Check the parameters */
    assert_param(IS_RCC_HSE(RCC_OscInitStruct->HSEState));

    temp_sysclksrc = __HAL_RCC_GET_SYSCLK_SOURCE();
 8001e48:	4ac1      	ldr	r2, [pc, #772]	; (8002150 <HAL_RCC_OscConfig+0x318>)
 8001e4a:	6891      	ldr	r1, [r2, #8]
 8001e4c:	2338      	movs	r3, #56	; 0x38
 8001e4e:	400b      	ands	r3, r1
    temp_pllckcfg = __HAL_RCC_GET_PLL_OSCSOURCE();
 8001e50:	68d1      	ldr	r1, [r2, #12]
 8001e52:	2203      	movs	r2, #3
 8001e54:	400a      	ands	r2, r1

    /* When the HSE is used as system clock or clock source for PLL in these cases it is not allowed to be disabled */
    if (((temp_sysclksrc == RCC_SYSCLKSOURCE_STATUS_PLLCLK) && (temp_pllckcfg == RCC_PLLSOURCE_HSE))
 8001e56:	2b10      	cmp	r3, #16
 8001e58:	d026      	beq.n	8001ea8 <HAL_RCC_OscConfig+0x70>
        || (temp_sysclksrc == RCC_SYSCLKSOURCE_STATUS_HSE))
 8001e5a:	2b08      	cmp	r3, #8
 8001e5c:	d026      	beq.n	8001eac <HAL_RCC_OscConfig+0x74>
      }
    }
    else
    {
      /* Set the new HSE configuration ---------------------------------------*/
      __HAL_RCC_HSE_CONFIG(RCC_OscInitStruct->HSEState);
 8001e5e:	6863      	ldr	r3, [r4, #4]
 8001e60:	2280      	movs	r2, #128	; 0x80
 8001e62:	0252      	lsls	r2, r2, #9
 8001e64:	4293      	cmp	r3, r2
 8001e66:	d07f      	beq.n	8001f68 <HAL_RCC_OscConfig+0x130>
 8001e68:	22a0      	movs	r2, #160	; 0xa0
 8001e6a:	02d2      	lsls	r2, r2, #11
 8001e6c:	4293      	cmp	r3, r2
 8001e6e:	d100      	bne.n	8001e72 <HAL_RCC_OscConfig+0x3a>
 8001e70:	e081      	b.n	8001f76 <HAL_RCC_OscConfig+0x13e>
 8001e72:	4bb7      	ldr	r3, [pc, #732]	; (8002150 <HAL_RCC_OscConfig+0x318>)
 8001e74:	681a      	ldr	r2, [r3, #0]
 8001e76:	49b7      	ldr	r1, [pc, #732]	; (8002154 <HAL_RCC_OscConfig+0x31c>)
 8001e78:	400a      	ands	r2, r1
 8001e7a:	601a      	str	r2, [r3, #0]
 8001e7c:	681a      	ldr	r2, [r3, #0]
 8001e7e:	49b6      	ldr	r1, [pc, #728]	; (8002158 <HAL_RCC_OscConfig+0x320>)
 8001e80:	400a      	ands	r2, r1
 8001e82:	601a      	str	r2, [r3, #0]

      /* Check the HSE State */
      if (RCC_OscInitStruct->HSEState != RCC_HSE_OFF)
 8001e84:	6863      	ldr	r3, [r4, #4]
 8001e86:	2b00      	cmp	r3, #0
 8001e88:	d100      	bne.n	8001e8c <HAL_RCC_OscConfig+0x54>
 8001e8a:	e080      	b.n	8001f8e <HAL_RCC_OscConfig+0x156>
      {
        /* Get Start Tick*/
        tickstart = HAL_GetTick();
 8001e8c:	f7ff f87c 	bl	8000f88 <HAL_GetTick>
 8001e90:	0005      	movs	r5, r0

        /* Wait till HSE is ready */
        while (READ_BIT(RCC->CR, RCC_CR_HSERDY) == 0U)
 8001e92:	4baf      	ldr	r3, [pc, #700]	; (8002150 <HAL_RCC_OscConfig+0x318>)
 8001e94:	681b      	ldr	r3, [r3, #0]
 8001e96:	039b      	lsls	r3, r3, #14
 8001e98:	d410      	bmi.n	8001ebc <HAL_RCC_OscConfig+0x84>
        {
          if ((HAL_GetTick() - tickstart) > HSE_TIMEOUT_VALUE)
 8001e9a:	f7ff f875 	bl	8000f88 <HAL_GetTick>
 8001e9e:	1b40      	subs	r0, r0, r5
 8001ea0:	2864      	cmp	r0, #100	; 0x64
 8001ea2:	d9f6      	bls.n	8001e92 <HAL_RCC_OscConfig+0x5a>
          {
            return HAL_TIMEOUT;
 8001ea4:	2003      	movs	r0, #3
 8001ea6:	e1f7      	b.n	8002298 <HAL_RCC_OscConfig+0x460>
    if (((temp_sysclksrc == RCC_SYSCLKSOURCE_STATUS_PLLCLK) && (temp_pllckcfg == RCC_PLLSOURCE_HSE))
 8001ea8:	2a03      	cmp	r2, #3
 8001eaa:	d1d6      	bne.n	8001e5a <HAL_RCC_OscConfig+0x22>
      if ((READ_BIT(RCC->CR, RCC_CR_HSERDY) != 0U) && (RCC_OscInitStruct->HSEState == RCC_HSE_OFF))
 8001eac:	4ba8      	ldr	r3, [pc, #672]	; (8002150 <HAL_RCC_OscConfig+0x318>)
 8001eae:	681b      	ldr	r3, [r3, #0]
 8001eb0:	039b      	lsls	r3, r3, #14
 8001eb2:	d503      	bpl.n	8001ebc <HAL_RCC_OscConfig+0x84>
 8001eb4:	6863      	ldr	r3, [r4, #4]
 8001eb6:	2b00      	cmp	r3, #0
 8001eb8:	d100      	bne.n	8001ebc <HAL_RCC_OscConfig+0x84>
 8001eba:	e1ef      	b.n	800229c <HAL_RCC_OscConfig+0x464>
        }
      }
    }
  }
  /*----------------------------- HSI Configuration --------------------------*/
  if (((RCC_OscInitStruct->OscillatorType) & RCC_OSCILLATORTYPE_HSI) == RCC_OSCILLATORTYPE_HSI)
 8001ebc:	6823      	ldr	r3, [r4, #0]
 8001ebe:	079b      	lsls	r3, r3, #30
 8001ec0:	d531      	bpl.n	8001f26 <HAL_RCC_OscConfig+0xee>
    assert_param(IS_RCC_HSI(RCC_OscInitStruct->HSIState));
    assert_param(IS_RCC_HSI_CALIBRATION_VALUE(RCC_OscInitStruct->HSICalibrationValue));
    assert_param(IS_RCC_HSIDIV(RCC_OscInitStruct->HSIDiv));

    /* Check if HSI16 is used as system clock or as PLL source when PLL is selected as system clock */
    temp_sysclksrc = __HAL_RCC_GET_SYSCLK_SOURCE();
 8001ec2:	4aa3      	ldr	r2, [pc, #652]	; (8002150 <HAL_RCC_OscConfig+0x318>)
 8001ec4:	6893      	ldr	r3, [r2, #8]
 8001ec6:	2138      	movs	r1, #56	; 0x38
 8001ec8:	400b      	ands	r3, r1
    temp_pllckcfg = __HAL_RCC_GET_PLL_OSCSOURCE();
 8001eca:	68d1      	ldr	r1, [r2, #12]
 8001ecc:	2203      	movs	r2, #3
 8001ece:	400a      	ands	r2, r1
    if (((temp_sysclksrc == RCC_SYSCLKSOURCE_STATUS_PLLCLK) && (temp_pllckcfg == RCC_PLLSOURCE_HSI))
 8001ed0:	2b10      	cmp	r3, #16
 8001ed2:	d06a      	beq.n	8001faa <HAL_RCC_OscConfig+0x172>
        || (temp_sysclksrc == RCC_SYSCLKSOURCE_STATUS_HSI))
 8001ed4:	2b00      	cmp	r3, #0
 8001ed6:	d16b      	bne.n	8001fb0 <HAL_RCC_OscConfig+0x178>
    {
      /* When HSI is used as system clock or as PLL input clock it can not be disabled */
      if ((READ_BIT(RCC->CR, RCC_CR_HSIRDY) != 0U) && (RCC_OscInitStruct->HSIState == RCC_HSI_OFF))
 8001ed8:	4a9d      	ldr	r2, [pc, #628]	; (8002150 <HAL_RCC_OscConfig+0x318>)
 8001eda:	6812      	ldr	r2, [r2, #0]
 8001edc:	0552      	lsls	r2, r2, #21
 8001ede:	d503      	bpl.n	8001ee8 <HAL_RCC_OscConfig+0xb0>
 8001ee0:	68e2      	ldr	r2, [r4, #12]
 8001ee2:	2a00      	cmp	r2, #0
 8001ee4:	d100      	bne.n	8001ee8 <HAL_RCC_OscConfig+0xb0>
 8001ee6:	e1db      	b.n	80022a0 <HAL_RCC_OscConfig+0x468>
      }
      /* Otherwise, just the calibration is allowed */
      else
      {
        /* Adjusts the Internal High Speed oscillator (HSI) calibration value.*/
        __HAL_RCC_HSI_CALIBRATIONVALUE_ADJUST(RCC_OscInitStruct->HSICalibrationValue);
 8001ee8:	4899      	ldr	r0, [pc, #612]	; (8002150 <HAL_RCC_OscConfig+0x318>)
 8001eea:	6842      	ldr	r2, [r0, #4]
 8001eec:	499b      	ldr	r1, [pc, #620]	; (800215c <HAL_RCC_OscConfig+0x324>)
 8001eee:	400a      	ands	r2, r1
 8001ef0:	6961      	ldr	r1, [r4, #20]
 8001ef2:	0209      	lsls	r1, r1, #8
 8001ef4:	430a      	orrs	r2, r1
 8001ef6:	6042      	str	r2, [r0, #4]

        if (temp_sysclksrc == RCC_SYSCLKSOURCE_STATUS_HSI)
 8001ef8:	2b00      	cmp	r3, #0
 8001efa:	d10d      	bne.n	8001f18 <HAL_RCC_OscConfig+0xe0>
        {
          /* Adjust the HSI16 division factor */
          __HAL_RCC_HSI_CONFIG(RCC_OscInitStruct->HSIDiv);
 8001efc:	6803      	ldr	r3, [r0, #0]
 8001efe:	4998      	ldr	r1, [pc, #608]	; (8002160 <HAL_RCC_OscConfig+0x328>)
 8001f00:	400b      	ands	r3, r1
 8001f02:	6921      	ldr	r1, [r4, #16]
 8001f04:	430b      	orrs	r3, r1
 8001f06:	6003      	str	r3, [r0, #0]

          /* Update the SystemCoreClock global variable with HSISYS value  */
          SystemCoreClock = (HSI_VALUE / (1UL << ((READ_BIT(RCC->CR, RCC_CR_HSIDIV)) >> RCC_CR_HSIDIV_Pos)));
 8001f08:	6803      	ldr	r3, [r0, #0]
 8001f0a:	0adb      	lsrs	r3, r3, #11
 8001f0c:	2207      	movs	r2, #7
 8001f0e:	401a      	ands	r2, r3
 8001f10:	4b94      	ldr	r3, [pc, #592]	; (8002164 <HAL_RCC_OscConfig+0x32c>)
 8001f12:	40d3      	lsrs	r3, r2
 8001f14:	4a94      	ldr	r2, [pc, #592]	; (8002168 <HAL_RCC_OscConfig+0x330>)
 8001f16:	6013      	str	r3, [r2, #0]
        }

        /* Adapt Systick interrupt period */
        if (HAL_InitTick(uwTickPrio) != HAL_OK)
 8001f18:	4b94      	ldr	r3, [pc, #592]	; (800216c <HAL_RCC_OscConfig+0x334>)
 8001f1a:	6818      	ldr	r0, [r3, #0]
 8001f1c:	f7fe ffe8 	bl	8000ef0 <HAL_InitTick>
 8001f20:	2800      	cmp	r0, #0
 8001f22:	d000      	beq.n	8001f26 <HAL_RCC_OscConfig+0xee>
 8001f24:	e1be      	b.n	80022a4 <HAL_RCC_OscConfig+0x46c>
        }
      }
    }
  }
  /*------------------------------ LSI Configuration -------------------------*/
  if (((RCC_OscInitStruct->OscillatorType) & RCC_OSCILLATORTYPE_LSI) == RCC_OSCILLATORTYPE_LSI)
 8001f26:	6823      	ldr	r3, [r4, #0]
 8001f28:	071b      	lsls	r3, r3, #28
 8001f2a:	d400      	bmi.n	8001f2e <HAL_RCC_OscConfig+0xf6>
 8001f2c:	e081      	b.n	8002032 <HAL_RCC_OscConfig+0x1fa>
  {
    /* Check the parameters */
    assert_param(IS_RCC_LSI(RCC_OscInitStruct->LSIState));

    /* Check if LSI is used as system clock */
    if (__HAL_RCC_GET_SYSCLK_SOURCE() == RCC_SYSCLKSOURCE_STATUS_LSI)
 8001f2e:	4b88      	ldr	r3, [pc, #544]	; (8002150 <HAL_RCC_OscConfig+0x318>)
 8001f30:	689a      	ldr	r2, [r3, #8]
 8001f32:	2338      	movs	r3, #56	; 0x38
 8001f34:	4013      	ands	r3, r2
 8001f36:	2b18      	cmp	r3, #24
 8001f38:	d073      	beq.n	8002022 <HAL_RCC_OscConfig+0x1ea>
      }
    }
    else
    {
      /* Check the LSI State */
      if (RCC_OscInitStruct->LSIState != RCC_LSI_OFF)
 8001f3a:	69a3      	ldr	r3, [r4, #24]
 8001f3c:	2b00      	cmp	r3, #0
 8001f3e:	d100      	bne.n	8001f42 <HAL_RCC_OscConfig+0x10a>
 8001f40:	e0b4      	b.n	80020ac <HAL_RCC_OscConfig+0x274>
      {
        /* Enable the Internal Low Speed oscillator (LSI). */
        __HAL_RCC_LSI_ENABLE();
 8001f42:	4a83      	ldr	r2, [pc, #524]	; (8002150 <HAL_RCC_OscConfig+0x318>)
 8001f44:	6e13      	ldr	r3, [r2, #96]	; 0x60
 8001f46:	2101      	movs	r1, #1
 8001f48:	430b      	orrs	r3, r1
 8001f4a:	6613      	str	r3, [r2, #96]	; 0x60

        /* Get Start Tick*/
        tickstart = HAL_GetTick();
 8001f4c:	f7ff f81c 	bl	8000f88 <HAL_GetTick>
 8001f50:	0005      	movs	r5, r0

        /* Wait till LSI is ready */
        while (READ_BIT(RCC->CSR, RCC_CSR_LSIRDY) == 0U)
 8001f52:	4b7f      	ldr	r3, [pc, #508]	; (8002150 <HAL_RCC_OscConfig+0x318>)
 8001f54:	6e1b      	ldr	r3, [r3, #96]	; 0x60
 8001f56:	079b      	lsls	r3, r3, #30
 8001f58:	d46b      	bmi.n	8002032 <HAL_RCC_OscConfig+0x1fa>
        {
          if ((HAL_GetTick() - tickstart) > LSI_TIMEOUT_VALUE)
 8001f5a:	f7ff f815 	bl	8000f88 <HAL_GetTick>
 8001f5e:	1b40      	subs	r0, r0, r5
 8001f60:	2802      	cmp	r0, #2
 8001f62:	d9f6      	bls.n	8001f52 <HAL_RCC_OscConfig+0x11a>
          {
            return HAL_TIMEOUT;
 8001f64:	2003      	movs	r0, #3
 8001f66:	e197      	b.n	8002298 <HAL_RCC_OscConfig+0x460>
      __HAL_RCC_HSE_CONFIG(RCC_OscInitStruct->HSEState);
 8001f68:	4a79      	ldr	r2, [pc, #484]	; (8002150 <HAL_RCC_OscConfig+0x318>)
 8001f6a:	6811      	ldr	r1, [r2, #0]
 8001f6c:	2380      	movs	r3, #128	; 0x80
 8001f6e:	025b      	lsls	r3, r3, #9
 8001f70:	430b      	orrs	r3, r1
 8001f72:	6013      	str	r3, [r2, #0]
 8001f74:	e786      	b.n	8001e84 <HAL_RCC_OscConfig+0x4c>
 8001f76:	4b76      	ldr	r3, [pc, #472]	; (8002150 <HAL_RCC_OscConfig+0x318>)
 8001f78:	6819      	ldr	r1, [r3, #0]
 8001f7a:	2280      	movs	r2, #128	; 0x80
 8001f7c:	02d2      	lsls	r2, r2, #11
 8001f7e:	430a      	orrs	r2, r1
 8001f80:	601a      	str	r2, [r3, #0]
 8001f82:	6819      	ldr	r1, [r3, #0]
 8001f84:	2280      	movs	r2, #128	; 0x80
 8001f86:	0252      	lsls	r2, r2, #9
 8001f88:	430a      	orrs	r2, r1
 8001f8a:	601a      	str	r2, [r3, #0]
 8001f8c:	e77a      	b.n	8001e84 <HAL_RCC_OscConfig+0x4c>
        tickstart = HAL_GetTick();
 8001f8e:	f7fe fffb 	bl	8000f88 <HAL_GetTick>
 8001f92:	0005      	movs	r5, r0
        while (READ_BIT(RCC->CR, RCC_CR_HSERDY) != 0U)
 8001f94:	4b6e      	ldr	r3, [pc, #440]	; (8002150 <HAL_RCC_OscConfig+0x318>)
 8001f96:	681b      	ldr	r3, [r3, #0]
 8001f98:	039b      	lsls	r3, r3, #14
 8001f9a:	d58f      	bpl.n	8001ebc <HAL_RCC_OscConfig+0x84>
          if ((HAL_GetTick() - tickstart) > HSE_TIMEOUT_VALUE)
 8001f9c:	f7fe fff4 	bl	8000f88 <HAL_GetTick>
 8001fa0:	1b40      	subs	r0, r0, r5
 8001fa2:	2864      	cmp	r0, #100	; 0x64
 8001fa4:	d9f6      	bls.n	8001f94 <HAL_RCC_OscConfig+0x15c>
            return HAL_TIMEOUT;
 8001fa6:	2003      	movs	r0, #3
 8001fa8:	e176      	b.n	8002298 <HAL_RCC_OscConfig+0x460>
    if (((temp_sysclksrc == RCC_SYSCLKSOURCE_STATUS_PLLCLK) && (temp_pllckcfg == RCC_PLLSOURCE_HSI))
 8001faa:	2a02      	cmp	r2, #2
 8001fac:	d192      	bne.n	8001ed4 <HAL_RCC_OscConfig+0x9c>
 8001fae:	e793      	b.n	8001ed8 <HAL_RCC_OscConfig+0xa0>
      if (RCC_OscInitStruct->HSIState != RCC_HSI_OFF)
 8001fb0:	68e3      	ldr	r3, [r4, #12]
 8001fb2:	2b00      	cmp	r3, #0
 8001fb4:	d022      	beq.n	8001ffc <HAL_RCC_OscConfig+0x1c4>
        __HAL_RCC_HSI_CONFIG(RCC_OscInitStruct->HSIDiv);
 8001fb6:	4a66      	ldr	r2, [pc, #408]	; (8002150 <HAL_RCC_OscConfig+0x318>)
 8001fb8:	6813      	ldr	r3, [r2, #0]
 8001fba:	4969      	ldr	r1, [pc, #420]	; (8002160 <HAL_RCC_OscConfig+0x328>)
 8001fbc:	400b      	ands	r3, r1
 8001fbe:	6921      	ldr	r1, [r4, #16]
 8001fc0:	430b      	orrs	r3, r1
 8001fc2:	6013      	str	r3, [r2, #0]
        __HAL_RCC_HSI_ENABLE();
 8001fc4:	6811      	ldr	r1, [r2, #0]
 8001fc6:	2380      	movs	r3, #128	; 0x80
 8001fc8:	005b      	lsls	r3, r3, #1
 8001fca:	430b      	orrs	r3, r1
 8001fcc:	6013      	str	r3, [r2, #0]
        tickstart = HAL_GetTick();
 8001fce:	f7fe ffdb 	bl	8000f88 <HAL_GetTick>
 8001fd2:	0005      	movs	r5, r0
        while (READ_BIT(RCC->CR, RCC_CR_HSIRDY) == 0U)
 8001fd4:	4b5e      	ldr	r3, [pc, #376]	; (8002150 <HAL_RCC_OscConfig+0x318>)
 8001fd6:	681b      	ldr	r3, [r3, #0]
 8001fd8:	055b      	lsls	r3, r3, #21
 8001fda:	d406      	bmi.n	8001fea <HAL_RCC_OscConfig+0x1b2>
          if ((HAL_GetTick() - tickstart) > HSI_TIMEOUT_VALUE)
 8001fdc:	f7fe ffd4 	bl	8000f88 <HAL_GetTick>
 8001fe0:	1b40      	subs	r0, r0, r5
 8001fe2:	2802      	cmp	r0, #2
 8001fe4:	d9f6      	bls.n	8001fd4 <HAL_RCC_OscConfig+0x19c>
            return HAL_TIMEOUT;
 8001fe6:	2003      	movs	r0, #3
 8001fe8:	e156      	b.n	8002298 <HAL_RCC_OscConfig+0x460>
        __HAL_RCC_HSI_CALIBRATIONVALUE_ADJUST(RCC_OscInitStruct->HSICalibrationValue);
 8001fea:	4959      	ldr	r1, [pc, #356]	; (8002150 <HAL_RCC_OscConfig+0x318>)
 8001fec:	684b      	ldr	r3, [r1, #4]
 8001fee:	4a5b      	ldr	r2, [pc, #364]	; (800215c <HAL_RCC_OscConfig+0x324>)
 8001ff0:	4013      	ands	r3, r2
 8001ff2:	6962      	ldr	r2, [r4, #20]
 8001ff4:	0212      	lsls	r2, r2, #8
 8001ff6:	4313      	orrs	r3, r2
 8001ff8:	604b      	str	r3, [r1, #4]
 8001ffa:	e794      	b.n	8001f26 <HAL_RCC_OscConfig+0xee>
        __HAL_RCC_HSI_DISABLE();
 8001ffc:	4a54      	ldr	r2, [pc, #336]	; (8002150 <HAL_RCC_OscConfig+0x318>)
 8001ffe:	6813      	ldr	r3, [r2, #0]
 8002000:	495b      	ldr	r1, [pc, #364]	; (8002170 <HAL_RCC_OscConfig+0x338>)
 8002002:	400b      	ands	r3, r1
 8002004:	6013      	str	r3, [r2, #0]
        tickstart = HAL_GetTick();
 8002006:	f7fe ffbf 	bl	8000f88 <HAL_GetTick>
 800200a:	0005      	movs	r5, r0
        while (READ_BIT(RCC->CR, RCC_CR_HSIRDY) != 0U)
 800200c:	4b50      	ldr	r3, [pc, #320]	; (8002150 <HAL_RCC_OscConfig+0x318>)
 800200e:	681b      	ldr	r3, [r3, #0]
 8002010:	055b      	lsls	r3, r3, #21
 8002012:	d588      	bpl.n	8001f26 <HAL_RCC_OscConfig+0xee>
          if ((HAL_GetTick() - tickstart) > HSI_TIMEOUT_VALUE)
 8002014:	f7fe ffb8 	bl	8000f88 <HAL_GetTick>
 8002018:	1b40      	subs	r0, r0, r5
 800201a:	2802      	cmp	r0, #2
 800201c:	d9f6      	bls.n	800200c <HAL_RCC_OscConfig+0x1d4>
            return HAL_TIMEOUT;
 800201e:	2003      	movs	r0, #3
 8002020:	e13a      	b.n	8002298 <HAL_RCC_OscConfig+0x460>
      if ((((RCC->CSR) & RCC_CSR_LSIRDY) != 0U) && (RCC_OscInitStruct->LSIState == RCC_LSI_OFF))
 8002022:	4b4b      	ldr	r3, [pc, #300]	; (8002150 <HAL_RCC_OscConfig+0x318>)
 8002024:	6e1b      	ldr	r3, [r3, #96]	; 0x60
 8002026:	079b      	lsls	r3, r3, #30
 8002028:	d503      	bpl.n	8002032 <HAL_RCC_OscConfig+0x1fa>
 800202a:	69a3      	ldr	r3, [r4, #24]
 800202c:	2b00      	cmp	r3, #0
 800202e:	d100      	bne.n	8002032 <HAL_RCC_OscConfig+0x1fa>
 8002030:	e13a      	b.n	80022a8 <HAL_RCC_OscConfig+0x470>
        }
      }
    }
  }
  /*------------------------------ LSE Configuration -------------------------*/
  if (((RCC_OscInitStruct->OscillatorType) & RCC_OSCILLATORTYPE_LSE) == RCC_OSCILLATORTYPE_LSE)
 8002032:	6823      	ldr	r3, [r4, #0]
 8002034:	075b      	lsls	r3, r3, #29
 8002036:	d400      	bmi.n	800203a <HAL_RCC_OscConfig+0x202>
 8002038:	e0a2      	b.n	8002180 <HAL_RCC_OscConfig+0x348>

    /* Check the parameters */
    assert_param(IS_RCC_LSE(RCC_OscInitStruct->LSEState));

    /* When the LSE is used as system clock, it is not allowed disable it */
    if (__HAL_RCC_GET_SYSCLK_SOURCE() == RCC_SYSCLKSOURCE_STATUS_LSE)
 800203a:	4b45      	ldr	r3, [pc, #276]	; (8002150 <HAL_RCC_OscConfig+0x318>)
 800203c:	689a      	ldr	r2, [r3, #8]
 800203e:	2338      	movs	r3, #56	; 0x38
 8002040:	4013      	ands	r3, r2
 8002042:	2b20      	cmp	r3, #32
 8002044:	d045      	beq.n	80020d2 <HAL_RCC_OscConfig+0x29a>
    }
    else
    {
      /* Update LSE configuration in Backup Domain control register    */
      /* Requires to enable write access to Backup Domain of necessary */
      if (__HAL_RCC_PWR_IS_CLK_DISABLED() != 0U)
 8002046:	4b42      	ldr	r3, [pc, #264]	; (8002150 <HAL_RCC_OscConfig+0x318>)
 8002048:	6bdb      	ldr	r3, [r3, #60]	; 0x3c
 800204a:	00db      	lsls	r3, r3, #3
 800204c:	d44a      	bmi.n	80020e4 <HAL_RCC_OscConfig+0x2ac>
      {
        __HAL_RCC_PWR_CLK_ENABLE();
 800204e:	4a40      	ldr	r2, [pc, #256]	; (8002150 <HAL_RCC_OscConfig+0x318>)
 8002050:	6bd1      	ldr	r1, [r2, #60]	; 0x3c
 8002052:	2080      	movs	r0, #128	; 0x80
 8002054:	0540      	lsls	r0, r0, #21
 8002056:	4301      	orrs	r1, r0
 8002058:	63d1      	str	r1, [r2, #60]	; 0x3c
 800205a:	6bd3      	ldr	r3, [r2, #60]	; 0x3c
 800205c:	4003      	ands	r3, r0
 800205e:	9301      	str	r3, [sp, #4]
 8002060:	9b01      	ldr	r3, [sp, #4]
        pwrclkchanged = SET;
 8002062:	2501      	movs	r5, #1
      }

      if (HAL_IS_BIT_CLR(PWR->CR1, PWR_CR1_DBP))
 8002064:	4b43      	ldr	r3, [pc, #268]	; (8002174 <HAL_RCC_OscConfig+0x33c>)
 8002066:	681b      	ldr	r3, [r3, #0]
 8002068:	05db      	lsls	r3, r3, #23
 800206a:	d53d      	bpl.n	80020e8 <HAL_RCC_OscConfig+0x2b0>
          }
        }
      }

      /* Set the new LSE configuration -----------------------------------------*/
      __HAL_RCC_LSE_CONFIG(RCC_OscInitStruct->LSEState);
 800206c:	68a3      	ldr	r3, [r4, #8]
 800206e:	2b01      	cmp	r3, #1
 8002070:	d04e      	beq.n	8002110 <HAL_RCC_OscConfig+0x2d8>
 8002072:	2b05      	cmp	r3, #5
 8002074:	d052      	beq.n	800211c <HAL_RCC_OscConfig+0x2e4>
 8002076:	4b36      	ldr	r3, [pc, #216]	; (8002150 <HAL_RCC_OscConfig+0x318>)
 8002078:	6dda      	ldr	r2, [r3, #92]	; 0x5c
 800207a:	2101      	movs	r1, #1
 800207c:	438a      	bics	r2, r1
 800207e:	65da      	str	r2, [r3, #92]	; 0x5c
 8002080:	6dda      	ldr	r2, [r3, #92]	; 0x5c
 8002082:	3103      	adds	r1, #3
 8002084:	438a      	bics	r2, r1
 8002086:	65da      	str	r2, [r3, #92]	; 0x5c

      /* Check the LSE State */
      if (RCC_OscInitStruct->LSEState != RCC_LSE_OFF)
 8002088:	68a3      	ldr	r3, [r4, #8]
 800208a:	2b00      	cmp	r3, #0
 800208c:	d050      	beq.n	8002130 <HAL_RCC_OscConfig+0x2f8>
      {
        /* Get Start Tick*/
        tickstart = HAL_GetTick();
 800208e:	f7fe ff7b 	bl	8000f88 <HAL_GetTick>
 8002092:	0006      	movs	r6, r0

        /* Wait till LSE is ready */
        while (READ_BIT(RCC->BDCR, RCC_BDCR_LSERDY) == 0U)
 8002094:	4b2e      	ldr	r3, [pc, #184]	; (8002150 <HAL_RCC_OscConfig+0x318>)
 8002096:	6ddb      	ldr	r3, [r3, #92]	; 0x5c
 8002098:	079b      	lsls	r3, r3, #30
 800209a:	d46f      	bmi.n	800217c <HAL_RCC_OscConfig+0x344>
        {
          if ((HAL_GetTick() - tickstart) > RCC_LSE_TIMEOUT_VALUE)
 800209c:	f7fe ff74 	bl	8000f88 <HAL_GetTick>
 80020a0:	1b80      	subs	r0, r0, r6
 80020a2:	4b35      	ldr	r3, [pc, #212]	; (8002178 <HAL_RCC_OscConfig+0x340>)
 80020a4:	4298      	cmp	r0, r3
 80020a6:	d9f5      	bls.n	8002094 <HAL_RCC_OscConfig+0x25c>
          {
            return HAL_TIMEOUT;
 80020a8:	2003      	movs	r0, #3
 80020aa:	e0f5      	b.n	8002298 <HAL_RCC_OscConfig+0x460>
        __HAL_RCC_LSI_DISABLE();
 80020ac:	4a28      	ldr	r2, [pc, #160]	; (8002150 <HAL_RCC_OscConfig+0x318>)
 80020ae:	6e13      	ldr	r3, [r2, #96]	; 0x60
 80020b0:	2101      	movs	r1, #1
 80020b2:	438b      	bics	r3, r1
 80020b4:	6613      	str	r3, [r2, #96]	; 0x60
        tickstart = HAL_GetTick();
 80020b6:	f7fe ff67 	bl	8000f88 <HAL_GetTick>
 80020ba:	0005      	movs	r5, r0
        while (READ_BIT(RCC->CSR, RCC_CSR_LSIRDY) != 0U)
 80020bc:	4b24      	ldr	r3, [pc, #144]	; (8002150 <HAL_RCC_OscConfig+0x318>)
 80020be:	6e1b      	ldr	r3, [r3, #96]	; 0x60
 80020c0:	079b      	lsls	r3, r3, #30
 80020c2:	d5b6      	bpl.n	8002032 <HAL_RCC_OscConfig+0x1fa>
          if ((HAL_GetTick() - tickstart) > LSI_TIMEOUT_VALUE)
 80020c4:	f7fe ff60 	bl	8000f88 <HAL_GetTick>
 80020c8:	1b40      	subs	r0, r0, r5
 80020ca:	2802      	cmp	r0, #2
 80020cc:	d9f6      	bls.n	80020bc <HAL_RCC_OscConfig+0x284>
            return HAL_TIMEOUT;
 80020ce:	2003      	movs	r0, #3
 80020d0:	e0e2      	b.n	8002298 <HAL_RCC_OscConfig+0x460>
      if ((((RCC->BDCR) & RCC_BDCR_LSERDY) != 0U) && (RCC_OscInitStruct->LSEState == RCC_LSE_OFF))
 80020d2:	4b1f      	ldr	r3, [pc, #124]	; (8002150 <HAL_RCC_OscConfig+0x318>)
 80020d4:	6ddb      	ldr	r3, [r3, #92]	; 0x5c
 80020d6:	079b      	lsls	r3, r3, #30
 80020d8:	d552      	bpl.n	8002180 <HAL_RCC_OscConfig+0x348>
 80020da:	68a3      	ldr	r3, [r4, #8]
 80020dc:	2b00      	cmp	r3, #0
 80020de:	d14f      	bne.n	8002180 <HAL_RCC_OscConfig+0x348>
        return HAL_ERROR;
 80020e0:	2001      	movs	r0, #1
 80020e2:	e0d9      	b.n	8002298 <HAL_RCC_OscConfig+0x460>
    FlagStatus       pwrclkchanged = RESET;
 80020e4:	2500      	movs	r5, #0
 80020e6:	e7bd      	b.n	8002064 <HAL_RCC_OscConfig+0x22c>
        SET_BIT(PWR->CR1, PWR_CR1_DBP);
 80020e8:	4a22      	ldr	r2, [pc, #136]	; (8002174 <HAL_RCC_OscConfig+0x33c>)
 80020ea:	6811      	ldr	r1, [r2, #0]
 80020ec:	2380      	movs	r3, #128	; 0x80
 80020ee:	005b      	lsls	r3, r3, #1
 80020f0:	430b      	orrs	r3, r1
 80020f2:	6013      	str	r3, [r2, #0]
        tickstart = HAL_GetTick();
 80020f4:	f7fe ff48 	bl	8000f88 <HAL_GetTick>
 80020f8:	0006      	movs	r6, r0
        while (HAL_IS_BIT_CLR(PWR->CR1, PWR_CR1_DBP))
 80020fa:	4b1e      	ldr	r3, [pc, #120]	; (8002174 <HAL_RCC_OscConfig+0x33c>)
 80020fc:	681b      	ldr	r3, [r3, #0]
 80020fe:	05db      	lsls	r3, r3, #23
 8002100:	d4b4      	bmi.n	800206c <HAL_RCC_OscConfig+0x234>
          if ((HAL_GetTick() - tickstart) > RCC_DBP_TIMEOUT_VALUE)
 8002102:	f7fe ff41 	bl	8000f88 <HAL_GetTick>
 8002106:	1b80      	subs	r0, r0, r6
 8002108:	2802      	cmp	r0, #2
 800210a:	d9f6      	bls.n	80020fa <HAL_RCC_OscConfig+0x2c2>
            return HAL_TIMEOUT;
 800210c:	2003      	movs	r0, #3
 800210e:	e0c3      	b.n	8002298 <HAL_RCC_OscConfig+0x460>
      __HAL_RCC_LSE_CONFIG(RCC_OscInitStruct->LSEState);
 8002110:	4a0f      	ldr	r2, [pc, #60]	; (8002150 <HAL_RCC_OscConfig+0x318>)
 8002112:	6dd3      	ldr	r3, [r2, #92]	; 0x5c
 8002114:	2101      	movs	r1, #1
 8002116:	430b      	orrs	r3, r1
 8002118:	65d3      	str	r3, [r2, #92]	; 0x5c
 800211a:	e7b5      	b.n	8002088 <HAL_RCC_OscConfig+0x250>
 800211c:	4b0c      	ldr	r3, [pc, #48]	; (8002150 <HAL_RCC_OscConfig+0x318>)
 800211e:	6dda      	ldr	r2, [r3, #92]	; 0x5c
 8002120:	2104      	movs	r1, #4
 8002122:	430a      	orrs	r2, r1
 8002124:	65da      	str	r2, [r3, #92]	; 0x5c
 8002126:	6dda      	ldr	r2, [r3, #92]	; 0x5c
 8002128:	3903      	subs	r1, #3
 800212a:	430a      	orrs	r2, r1
 800212c:	65da      	str	r2, [r3, #92]	; 0x5c
 800212e:	e7ab      	b.n	8002088 <HAL_RCC_OscConfig+0x250>
        }
      }
      else
      {
        /* Get Start Tick*/
        tickstart = HAL_GetTick();
 8002130:	f7fe ff2a 	bl	8000f88 <HAL_GetTick>
 8002134:	0006      	movs	r6, r0

        /* Wait till LSE is disabled */
        while (READ_BIT(RCC->BDCR, RCC_BDCR_LSERDY) != 0U)
 8002136:	4b06      	ldr	r3, [pc, #24]	; (8002150 <HAL_RCC_OscConfig+0x318>)
 8002138:	6ddb      	ldr	r3, [r3, #92]	; 0x5c
 800213a:	079b      	lsls	r3, r3, #30
 800213c:	d51e      	bpl.n	800217c <HAL_RCC_OscConfig+0x344>
        {
          if ((HAL_GetTick() - tickstart) > RCC_LSE_TIMEOUT_VALUE)
 800213e:	f7fe ff23 	bl	8000f88 <HAL_GetTick>
 8002142:	1b80      	subs	r0, r0, r6
 8002144:	4b0c      	ldr	r3, [pc, #48]	; (8002178 <HAL_RCC_OscConfig+0x340>)
 8002146:	4298      	cmp	r0, r3
 8002148:	d9f5      	bls.n	8002136 <HAL_RCC_OscConfig+0x2fe>
          {
            return HAL_TIMEOUT;
 800214a:	2003      	movs	r0, #3
 800214c:	e0a4      	b.n	8002298 <HAL_RCC_OscConfig+0x460>
 800214e:	46c0      	nop			; (mov r8, r8)
 8002150:	40021000 	.word	0x40021000
 8002154:	fffeffff 	.word	0xfffeffff
 8002158:	fffbffff 	.word	0xfffbffff
 800215c:	ffff80ff 	.word	0xffff80ff
 8002160:	ffffc7ff 	.word	0xffffc7ff
 8002164:	00f42400 	.word	0x00f42400
 8002168:	20000084 	.word	0x20000084
 800216c:	2000008c 	.word	0x2000008c
 8002170:	fffffeff 	.word	0xfffffeff
 8002174:	40007000 	.word	0x40007000
 8002178:	00001388 	.word	0x00001388
          }
        }
      }

      /* Restore clock configuration if changed */
      if (pwrclkchanged == SET)
 800217c:	2d01      	cmp	r5, #1
 800217e:	d01e      	beq.n	80021be <HAL_RCC_OscConfig+0x386>
#endif /* RCC_HSI48_SUPPORT */
  /*-------------------------------- PLL Configuration -----------------------*/
  /* Check the parameters */
  assert_param(IS_RCC_PLL(RCC_OscInitStruct->PLL.PLLState));

  if (RCC_OscInitStruct->PLL.PLLState != RCC_PLL_NONE)
 8002180:	69e3      	ldr	r3, [r4, #28]
 8002182:	2b00      	cmp	r3, #0
 8002184:	d100      	bne.n	8002188 <HAL_RCC_OscConfig+0x350>
 8002186:	e091      	b.n	80022ac <HAL_RCC_OscConfig+0x474>
  {
    /* Check if the PLL is used as system clock or not */
    if (__HAL_RCC_GET_SYSCLK_SOURCE() != RCC_SYSCLKSOURCE_STATUS_PLLCLK)
 8002188:	4a4f      	ldr	r2, [pc, #316]	; (80022c8 <HAL_RCC_OscConfig+0x490>)
 800218a:	6891      	ldr	r1, [r2, #8]
 800218c:	2238      	movs	r2, #56	; 0x38
 800218e:	400a      	ands	r2, r1
 8002190:	2a10      	cmp	r2, #16
 8002192:	d05e      	beq.n	8002252 <HAL_RCC_OscConfig+0x41a>
    {
      if (RCC_OscInitStruct->PLL.PLLState == RCC_PLL_ON)
 8002194:	2b02      	cmp	r3, #2
 8002196:	d018      	beq.n	80021ca <HAL_RCC_OscConfig+0x392>
        }
      }
      else
      {
        /* Disable the main PLL. */
        __HAL_RCC_PLL_DISABLE();
 8002198:	4a4b      	ldr	r2, [pc, #300]	; (80022c8 <HAL_RCC_OscConfig+0x490>)
 800219a:	6813      	ldr	r3, [r2, #0]
 800219c:	494b      	ldr	r1, [pc, #300]	; (80022cc <HAL_RCC_OscConfig+0x494>)
 800219e:	400b      	ands	r3, r1
 80021a0:	6013      	str	r3, [r2, #0]

        /* Get Start Tick*/
        tickstart = HAL_GetTick();
 80021a2:	f7fe fef1 	bl	8000f88 <HAL_GetTick>
 80021a6:	0004      	movs	r4, r0

        /* Wait till PLL is disabled */
        while (READ_BIT(RCC->CR, RCC_CR_PLLRDY) != 0U)
 80021a8:	4b47      	ldr	r3, [pc, #284]	; (80022c8 <HAL_RCC_OscConfig+0x490>)
 80021aa:	681b      	ldr	r3, [r3, #0]
 80021ac:	019b      	lsls	r3, r3, #6
 80021ae:	d549      	bpl.n	8002244 <HAL_RCC_OscConfig+0x40c>
        {
          if ((HAL_GetTick() - tickstart) > PLL_TIMEOUT_VALUE)
 80021b0:	f7fe feea 	bl	8000f88 <HAL_GetTick>
 80021b4:	1b00      	subs	r0, r0, r4
 80021b6:	2802      	cmp	r0, #2
 80021b8:	d9f6      	bls.n	80021a8 <HAL_RCC_OscConfig+0x370>
          {
            return HAL_TIMEOUT;
 80021ba:	2003      	movs	r0, #3
 80021bc:	e06c      	b.n	8002298 <HAL_RCC_OscConfig+0x460>
        __HAL_RCC_PWR_CLK_DISABLE();
 80021be:	4a42      	ldr	r2, [pc, #264]	; (80022c8 <HAL_RCC_OscConfig+0x490>)
 80021c0:	6bd3      	ldr	r3, [r2, #60]	; 0x3c
 80021c2:	4943      	ldr	r1, [pc, #268]	; (80022d0 <HAL_RCC_OscConfig+0x498>)
 80021c4:	400b      	ands	r3, r1
 80021c6:	63d3      	str	r3, [r2, #60]	; 0x3c
 80021c8:	e7da      	b.n	8002180 <HAL_RCC_OscConfig+0x348>
        __HAL_RCC_PLL_DISABLE();
 80021ca:	4a3f      	ldr	r2, [pc, #252]	; (80022c8 <HAL_RCC_OscConfig+0x490>)
 80021cc:	6813      	ldr	r3, [r2, #0]
 80021ce:	493f      	ldr	r1, [pc, #252]	; (80022cc <HAL_RCC_OscConfig+0x494>)
 80021d0:	400b      	ands	r3, r1
 80021d2:	6013      	str	r3, [r2, #0]
        tickstart = HAL_GetTick();
 80021d4:	f7fe fed8 	bl	8000f88 <HAL_GetTick>
 80021d8:	0005      	movs	r5, r0
        while (READ_BIT(RCC->CR, RCC_CR_PLLRDY) != 0U)
 80021da:	4b3b      	ldr	r3, [pc, #236]	; (80022c8 <HAL_RCC_OscConfig+0x490>)
 80021dc:	681b      	ldr	r3, [r3, #0]
 80021de:	019b      	lsls	r3, r3, #6
 80021e0:	d506      	bpl.n	80021f0 <HAL_RCC_OscConfig+0x3b8>
          if ((HAL_GetTick() - tickstart) > PLL_TIMEOUT_VALUE)
 80021e2:	f7fe fed1 	bl	8000f88 <HAL_GetTick>
 80021e6:	1b40      	subs	r0, r0, r5
 80021e8:	2802      	cmp	r0, #2
 80021ea:	d9f6      	bls.n	80021da <HAL_RCC_OscConfig+0x3a2>
            return HAL_TIMEOUT;
 80021ec:	2003      	movs	r0, #3
 80021ee:	e053      	b.n	8002298 <HAL_RCC_OscConfig+0x460>
        __HAL_RCC_PLL_CONFIG(RCC_OscInitStruct->PLL.PLLSource,
 80021f0:	4a35      	ldr	r2, [pc, #212]	; (80022c8 <HAL_RCC_OscConfig+0x490>)
 80021f2:	68d3      	ldr	r3, [r2, #12]
 80021f4:	4937      	ldr	r1, [pc, #220]	; (80022d4 <HAL_RCC_OscConfig+0x49c>)
 80021f6:	4019      	ands	r1, r3
 80021f8:	6a23      	ldr	r3, [r4, #32]
 80021fa:	6a60      	ldr	r0, [r4, #36]	; 0x24
 80021fc:	4303      	orrs	r3, r0
 80021fe:	6aa0      	ldr	r0, [r4, #40]	; 0x28
 8002200:	0200      	lsls	r0, r0, #8
 8002202:	4303      	orrs	r3, r0
 8002204:	6ae0      	ldr	r0, [r4, #44]	; 0x2c
 8002206:	4303      	orrs	r3, r0
 8002208:	6b20      	ldr	r0, [r4, #48]	; 0x30
 800220a:	4303      	orrs	r3, r0
 800220c:	430b      	orrs	r3, r1
 800220e:	60d3      	str	r3, [r2, #12]
        __HAL_RCC_PLL_ENABLE();
 8002210:	6811      	ldr	r1, [r2, #0]
 8002212:	2380      	movs	r3, #128	; 0x80
 8002214:	045b      	lsls	r3, r3, #17
 8002216:	430b      	orrs	r3, r1
 8002218:	6013      	str	r3, [r2, #0]
        __HAL_RCC_PLLCLKOUT_ENABLE(RCC_PLLRCLK);
 800221a:	68d1      	ldr	r1, [r2, #12]
 800221c:	2380      	movs	r3, #128	; 0x80
 800221e:	055b      	lsls	r3, r3, #21
 8002220:	430b      	orrs	r3, r1
 8002222:	60d3      	str	r3, [r2, #12]
        tickstart = HAL_GetTick();
 8002224:	f7fe feb0 	bl	8000f88 <HAL_GetTick>
 8002228:	0004      	movs	r4, r0
        while (READ_BIT(RCC->CR, RCC_CR_PLLRDY) == 0U)
 800222a:	4b27      	ldr	r3, [pc, #156]	; (80022c8 <HAL_RCC_OscConfig+0x490>)
 800222c:	681b      	ldr	r3, [r3, #0]
 800222e:	019b      	lsls	r3, r3, #6
 8002230:	d406      	bmi.n	8002240 <HAL_RCC_OscConfig+0x408>
          if ((HAL_GetTick() - tickstart) > PLL_TIMEOUT_VALUE)
 8002232:	f7fe fea9 	bl	8000f88 <HAL_GetTick>
 8002236:	1b00      	subs	r0, r0, r4
 8002238:	2802      	cmp	r0, #2
 800223a:	d9f6      	bls.n	800222a <HAL_RCC_OscConfig+0x3f2>
            return HAL_TIMEOUT;
 800223c:	2003      	movs	r0, #3
 800223e:	e02b      	b.n	8002298 <HAL_RCC_OscConfig+0x460>
          return HAL_ERROR;
        }
      }
    }
  }
  return HAL_OK;
 8002240:	2000      	movs	r0, #0
 8002242:	e029      	b.n	8002298 <HAL_RCC_OscConfig+0x460>
        RCC->PLLCFGR &= ~(RCC_PLLCFGR_PLLSRC | RCC_PLLCFGR_PLLPEN | RCC_PLLCFGR_PLLREN);
 8002244:	4a20      	ldr	r2, [pc, #128]	; (80022c8 <HAL_RCC_OscConfig+0x490>)
 8002246:	68d3      	ldr	r3, [r2, #12]
 8002248:	4923      	ldr	r1, [pc, #140]	; (80022d8 <HAL_RCC_OscConfig+0x4a0>)
 800224a:	400b      	ands	r3, r1
 800224c:	60d3      	str	r3, [r2, #12]
  return HAL_OK;
 800224e:	2000      	movs	r0, #0
 8002250:	e022      	b.n	8002298 <HAL_RCC_OscConfig+0x460>
      if ((RCC_OscInitStruct->PLL.PLLState) == RCC_PLL_OFF)
 8002252:	2b01      	cmp	r3, #1
 8002254:	d02c      	beq.n	80022b0 <HAL_RCC_OscConfig+0x478>
        temp_pllckcfg = RCC->PLLCFGR;
 8002256:	4b1c      	ldr	r3, [pc, #112]	; (80022c8 <HAL_RCC_OscConfig+0x490>)
 8002258:	68da      	ldr	r2, [r3, #12]
        if ((READ_BIT(temp_pllckcfg, RCC_PLLCFGR_PLLSRC) != RCC_OscInitStruct->PLL.PLLSource) ||
 800225a:	2303      	movs	r3, #3
 800225c:	4013      	ands	r3, r2
 800225e:	6a21      	ldr	r1, [r4, #32]
 8002260:	428b      	cmp	r3, r1
 8002262:	d127      	bne.n	80022b4 <HAL_RCC_OscConfig+0x47c>
            (READ_BIT(temp_pllckcfg, RCC_PLLCFGR_PLLM) != RCC_OscInitStruct->PLL.PLLM) ||
 8002264:	2370      	movs	r3, #112	; 0x70
 8002266:	4013      	ands	r3, r2
        if ((READ_BIT(temp_pllckcfg, RCC_PLLCFGR_PLLSRC) != RCC_OscInitStruct->PLL.PLLSource) ||
 8002268:	6a61      	ldr	r1, [r4, #36]	; 0x24
 800226a:	428b      	cmp	r3, r1
 800226c:	d124      	bne.n	80022b8 <HAL_RCC_OscConfig+0x480>
            (READ_BIT(temp_pllckcfg, RCC_PLLCFGR_PLLN) != (RCC_OscInitStruct->PLL.PLLN << RCC_PLLCFGR_PLLN_Pos)) ||
 800226e:	21fe      	movs	r1, #254	; 0xfe
 8002270:	01c9      	lsls	r1, r1, #7
 8002272:	4011      	ands	r1, r2
 8002274:	6aa3      	ldr	r3, [r4, #40]	; 0x28
 8002276:	021b      	lsls	r3, r3, #8
            (READ_BIT(temp_pllckcfg, RCC_PLLCFGR_PLLM) != RCC_OscInitStruct->PLL.PLLM) ||
 8002278:	4299      	cmp	r1, r3
 800227a:	d11f      	bne.n	80022bc <HAL_RCC_OscConfig+0x484>
            (READ_BIT(temp_pllckcfg, RCC_PLLCFGR_PLLP) != RCC_OscInitStruct->PLL.PLLP) ||
 800227c:	23f8      	movs	r3, #248	; 0xf8
 800227e:	039b      	lsls	r3, r3, #14
 8002280:	4013      	ands	r3, r2
            (READ_BIT(temp_pllckcfg, RCC_PLLCFGR_PLLN) != (RCC_OscInitStruct->PLL.PLLN << RCC_PLLCFGR_PLLN_Pos)) ||
 8002282:	6ae1      	ldr	r1, [r4, #44]	; 0x2c
 8002284:	428b      	cmp	r3, r1
 8002286:	d11b      	bne.n	80022c0 <HAL_RCC_OscConfig+0x488>
            (READ_BIT(temp_pllckcfg, RCC_PLLCFGR_PLLR) != RCC_OscInitStruct->PLL.PLLR))
 8002288:	0f52      	lsrs	r2, r2, #29
 800228a:	0752      	lsls	r2, r2, #29
 800228c:	6b23      	ldr	r3, [r4, #48]	; 0x30
            (READ_BIT(temp_pllckcfg, RCC_PLLCFGR_PLLP) != RCC_OscInitStruct->PLL.PLLP) ||
 800228e:	429a      	cmp	r2, r3
 8002290:	d118      	bne.n	80022c4 <HAL_RCC_OscConfig+0x48c>
  return HAL_OK;
 8002292:	2000      	movs	r0, #0
 8002294:	e000      	b.n	8002298 <HAL_RCC_OscConfig+0x460>
    return HAL_ERROR;
 8002296:	2001      	movs	r0, #1
}
 8002298:	b002      	add	sp, #8
 800229a:	bd70      	pop	{r4, r5, r6, pc}
        return HAL_ERROR;
 800229c:	2001      	movs	r0, #1
 800229e:	e7fb      	b.n	8002298 <HAL_RCC_OscConfig+0x460>
        return HAL_ERROR;
 80022a0:	2001      	movs	r0, #1
 80022a2:	e7f9      	b.n	8002298 <HAL_RCC_OscConfig+0x460>
          return HAL_ERROR;
 80022a4:	2001      	movs	r0, #1
 80022a6:	e7f7      	b.n	8002298 <HAL_RCC_OscConfig+0x460>
        return HAL_ERROR;
 80022a8:	2001      	movs	r0, #1
 80022aa:	e7f5      	b.n	8002298 <HAL_RCC_OscConfig+0x460>
  return HAL_OK;
 80022ac:	2000      	movs	r0, #0
 80022ae:	e7f3      	b.n	8002298 <HAL_RCC_OscConfig+0x460>
        return HAL_ERROR;
 80022b0:	2001      	movs	r0, #1
 80022b2:	e7f1      	b.n	8002298 <HAL_RCC_OscConfig+0x460>
          return HAL_ERROR;
 80022b4:	2001      	movs	r0, #1
 80022b6:	e7ef      	b.n	8002298 <HAL_RCC_OscConfig+0x460>
 80022b8:	2001      	movs	r0, #1
 80022ba:	e7ed      	b.n	8002298 <HAL_RCC_OscConfig+0x460>
 80022bc:	2001      	movs	r0, #1
 80022be:	e7eb      	b.n	8002298 <HAL_RCC_OscConfig+0x460>
 80022c0:	2001      	movs	r0, #1
 80022c2:	e7e9      	b.n	8002298 <HAL_RCC_OscConfig+0x460>
 80022c4:	2001      	movs	r0, #1
 80022c6:	e7e7      	b.n	8002298 <HAL_RCC_OscConfig+0x460>
 80022c8:	40021000 	.word	0x40021000
 80022cc:	feffffff 	.word	0xfeffffff
 80022d0:	efffffff 	.word	0xefffffff
 80022d4:	1fc1808c 	.word	0x1fc1808c
 80022d8:	effefffc 	.word	0xeffefffc

080022dc <HAL_RCC_GetSysClockFreq>:
  *
  *
  * @retval SYSCLK frequency
  */
uint32_t HAL_RCC_GetSysClockFreq(void)
{
 80022dc:	b510      	push	{r4, lr}
  uint32_t pllvco, pllsource, pllr, pllm, hsidiv;
  uint32_t sysclockfreq;

  if (__HAL_RCC_GET_SYSCLK_SOURCE() == RCC_SYSCLKSOURCE_STATUS_HSI)
 80022de:	4b2a      	ldr	r3, [pc, #168]	; (8002388 <HAL_RCC_GetSysClockFreq+0xac>)
 80022e0:	689b      	ldr	r3, [r3, #8]
 80022e2:	2238      	movs	r2, #56	; 0x38
 80022e4:	421a      	tst	r2, r3
 80022e6:	d107      	bne.n	80022f8 <HAL_RCC_GetSysClockFreq+0x1c>
  {
    /* HSISYS can be derived for HSI16 */
    hsidiv = (1UL << ((READ_BIT(RCC->CR, RCC_CR_HSIDIV)) >> RCC_CR_HSIDIV_Pos));
 80022e8:	4b27      	ldr	r3, [pc, #156]	; (8002388 <HAL_RCC_GetSysClockFreq+0xac>)
 80022ea:	681a      	ldr	r2, [r3, #0]
 80022ec:	0ad2      	lsrs	r2, r2, #11
 80022ee:	2307      	movs	r3, #7
 80022f0:	4013      	ands	r3, r2

    /* HSI used as system clock source */
    sysclockfreq = (HSI_VALUE / hsidiv);
 80022f2:	4826      	ldr	r0, [pc, #152]	; (800238c <HAL_RCC_GetSysClockFreq+0xb0>)
 80022f4:	40d8      	lsrs	r0, r3
  {
    sysclockfreq = 0U;
  }

  return sysclockfreq;
}
 80022f6:	bd10      	pop	{r4, pc}
  else if (__HAL_RCC_GET_SYSCLK_SOURCE() == RCC_SYSCLKSOURCE_STATUS_HSE)
 80022f8:	4b23      	ldr	r3, [pc, #140]	; (8002388 <HAL_RCC_GetSysClockFreq+0xac>)
 80022fa:	689a      	ldr	r2, [r3, #8]
 80022fc:	2338      	movs	r3, #56	; 0x38
 80022fe:	4013      	ands	r3, r2
 8002300:	2b08      	cmp	r3, #8
 8002302:	d03b      	beq.n	800237c <HAL_RCC_GetSysClockFreq+0xa0>
  else if (__HAL_RCC_GET_SYSCLK_SOURCE() == RCC_SYSCLKSOURCE_STATUS_PLLCLK)
 8002304:	4b20      	ldr	r3, [pc, #128]	; (8002388 <HAL_RCC_GetSysClockFreq+0xac>)
 8002306:	689a      	ldr	r2, [r3, #8]
 8002308:	2338      	movs	r3, #56	; 0x38
 800230a:	4013      	ands	r3, r2
 800230c:	2b10      	cmp	r3, #16
 800230e:	d00d      	beq.n	800232c <HAL_RCC_GetSysClockFreq+0x50>
  else if (__HAL_RCC_GET_SYSCLK_SOURCE() == RCC_SYSCLKSOURCE_STATUS_LSE)
 8002310:	4b1d      	ldr	r3, [pc, #116]	; (8002388 <HAL_RCC_GetSysClockFreq+0xac>)
 8002312:	689a      	ldr	r2, [r3, #8]
 8002314:	2338      	movs	r3, #56	; 0x38
 8002316:	4013      	ands	r3, r2
 8002318:	2b20      	cmp	r3, #32
 800231a:	d031      	beq.n	8002380 <HAL_RCC_GetSysClockFreq+0xa4>
  else if (__HAL_RCC_GET_SYSCLK_SOURCE() == RCC_SYSCLKSOURCE_STATUS_LSI)
 800231c:	4b1a      	ldr	r3, [pc, #104]	; (8002388 <HAL_RCC_GetSysClockFreq+0xac>)
 800231e:	689a      	ldr	r2, [r3, #8]
 8002320:	2338      	movs	r3, #56	; 0x38
 8002322:	4013      	ands	r3, r2
 8002324:	2b18      	cmp	r3, #24
 8002326:	d026      	beq.n	8002376 <HAL_RCC_GetSysClockFreq+0x9a>
    sysclockfreq = 0U;
 8002328:	2000      	movs	r0, #0
  return sysclockfreq;
 800232a:	e7e4      	b.n	80022f6 <HAL_RCC_GetSysClockFreq+0x1a>
    pllsource = (RCC->PLLCFGR & RCC_PLLCFGR_PLLSRC);
 800232c:	4a16      	ldr	r2, [pc, #88]	; (8002388 <HAL_RCC_GetSysClockFreq+0xac>)
 800232e:	68d1      	ldr	r1, [r2, #12]
 8002330:	3b0d      	subs	r3, #13
 8002332:	400b      	ands	r3, r1
    pllm = ((RCC->PLLCFGR & RCC_PLLCFGR_PLLM) >> RCC_PLLCFGR_PLLM_Pos) + 1U ;
 8002334:	68d2      	ldr	r2, [r2, #12]
 8002336:	0912      	lsrs	r2, r2, #4
 8002338:	2107      	movs	r1, #7
 800233a:	4011      	ands	r1, r2
 800233c:	3101      	adds	r1, #1
    switch (pllsource)
 800233e:	2b03      	cmp	r3, #3
 8002340:	d00f      	beq.n	8002362 <HAL_RCC_GetSysClockFreq+0x86>
        pllvco = (HSI_VALUE / pllm) * ((RCC->PLLCFGR & RCC_PLLCFGR_PLLN) >> RCC_PLLCFGR_PLLN_Pos) ;
 8002342:	4812      	ldr	r0, [pc, #72]	; (800238c <HAL_RCC_GetSysClockFreq+0xb0>)
 8002344:	f7fd fee6 	bl	8000114 <__udivsi3>
 8002348:	4b0f      	ldr	r3, [pc, #60]	; (8002388 <HAL_RCC_GetSysClockFreq+0xac>)
 800234a:	68da      	ldr	r2, [r3, #12]
 800234c:	0a12      	lsrs	r2, r2, #8
 800234e:	237f      	movs	r3, #127	; 0x7f
 8002350:	4013      	ands	r3, r2
 8002352:	4358      	muls	r0, r3
    pllr = (((RCC->PLLCFGR & RCC_PLLCFGR_PLLR) >> RCC_PLLCFGR_PLLR_Pos) + 1U);
 8002354:	4b0c      	ldr	r3, [pc, #48]	; (8002388 <HAL_RCC_GetSysClockFreq+0xac>)
 8002356:	68d9      	ldr	r1, [r3, #12]
 8002358:	0f49      	lsrs	r1, r1, #29
 800235a:	3101      	adds	r1, #1
    sysclockfreq = pllvco / pllr;
 800235c:	f7fd feda 	bl	8000114 <__udivsi3>
 8002360:	e7c9      	b.n	80022f6 <HAL_RCC_GetSysClockFreq+0x1a>
        pllvco = (HSE_VALUE / pllm) * ((RCC->PLLCFGR & RCC_PLLCFGR_PLLN) >> RCC_PLLCFGR_PLLN_Pos);
 8002362:	480b      	ldr	r0, [pc, #44]	; (8002390 <HAL_RCC_GetSysClockFreq+0xb4>)
 8002364:	f7fd fed6 	bl	8000114 <__udivsi3>
 8002368:	4b07      	ldr	r3, [pc, #28]	; (8002388 <HAL_RCC_GetSysClockFreq+0xac>)
 800236a:	68da      	ldr	r2, [r3, #12]
 800236c:	0a12      	lsrs	r2, r2, #8
 800236e:	237f      	movs	r3, #127	; 0x7f
 8002370:	4013      	ands	r3, r2
 8002372:	4358      	muls	r0, r3
        break;
 8002374:	e7ee      	b.n	8002354 <HAL_RCC_GetSysClockFreq+0x78>
    sysclockfreq = LSI_VALUE;
 8002376:	20fa      	movs	r0, #250	; 0xfa
 8002378:	01c0      	lsls	r0, r0, #7
 800237a:	e7bc      	b.n	80022f6 <HAL_RCC_GetSysClockFreq+0x1a>
    sysclockfreq = HSE_VALUE;
 800237c:	4804      	ldr	r0, [pc, #16]	; (8002390 <HAL_RCC_GetSysClockFreq+0xb4>)
 800237e:	e7ba      	b.n	80022f6 <HAL_RCC_GetSysClockFreq+0x1a>
    sysclockfreq = LSE_VALUE;
 8002380:	2080      	movs	r0, #128	; 0x80
 8002382:	0200      	lsls	r0, r0, #8
 8002384:	e7b7      	b.n	80022f6 <HAL_RCC_GetSysClockFreq+0x1a>
 8002386:	46c0      	nop			; (mov r8, r8)
 8002388:	40021000 	.word	0x40021000
 800238c:	00f42400 	.word	0x00f42400
 8002390:	007a1200 	.word	0x007a1200

08002394 <HAL_RCC_ClockConfig>:
{
 8002394:	b570      	push	{r4, r5, r6, lr}
 8002396:	0004      	movs	r4, r0
 8002398:	000d      	movs	r5, r1
  if (RCC_ClkInitStruct == NULL)
 800239a:	2800      	cmp	r0, #0
 800239c:	d100      	bne.n	80023a0 <HAL_RCC_ClockConfig+0xc>
 800239e:	e0aa      	b.n	80024f6 <HAL_RCC_ClockConfig+0x162>
  if (FLatency > __HAL_FLASH_GET_LATENCY())
 80023a0:	4b57      	ldr	r3, [pc, #348]	; (8002500 <HAL_RCC_ClockConfig+0x16c>)
 80023a2:	681a      	ldr	r2, [r3, #0]
 80023a4:	2307      	movs	r3, #7
 80023a6:	4013      	ands	r3, r2
 80023a8:	428b      	cmp	r3, r1
 80023aa:	d321      	bcc.n	80023f0 <HAL_RCC_ClockConfig+0x5c>
  if (((RCC_ClkInitStruct->ClockType) & RCC_CLOCKTYPE_HCLK) == RCC_CLOCKTYPE_HCLK)
 80023ac:	6823      	ldr	r3, [r4, #0]
 80023ae:	079a      	lsls	r2, r3, #30
 80023b0:	d50e      	bpl.n	80023d0 <HAL_RCC_ClockConfig+0x3c>
    if (((RCC_ClkInitStruct->ClockType) & RCC_CLOCKTYPE_PCLK1) == RCC_CLOCKTYPE_PCLK1)
 80023b2:	075b      	lsls	r3, r3, #29
 80023b4:	d505      	bpl.n	80023c2 <HAL_RCC_ClockConfig+0x2e>
      MODIFY_REG(RCC->CFGR, RCC_CFGR_PPRE, RCC_HCLK_DIV16);
 80023b6:	4a53      	ldr	r2, [pc, #332]	; (8002504 <HAL_RCC_ClockConfig+0x170>)
 80023b8:	6891      	ldr	r1, [r2, #8]
 80023ba:	23e0      	movs	r3, #224	; 0xe0
 80023bc:	01db      	lsls	r3, r3, #7
 80023be:	430b      	orrs	r3, r1
 80023c0:	6093      	str	r3, [r2, #8]
    MODIFY_REG(RCC->CFGR, RCC_CFGR_HPRE, RCC_ClkInitStruct->AHBCLKDivider);
 80023c2:	4a50      	ldr	r2, [pc, #320]	; (8002504 <HAL_RCC_ClockConfig+0x170>)
 80023c4:	6893      	ldr	r3, [r2, #8]
 80023c6:	4950      	ldr	r1, [pc, #320]	; (8002508 <HAL_RCC_ClockConfig+0x174>)
 80023c8:	400b      	ands	r3, r1
 80023ca:	68a1      	ldr	r1, [r4, #8]
 80023cc:	430b      	orrs	r3, r1
 80023ce:	6093      	str	r3, [r2, #8]
  if (((RCC_ClkInitStruct->ClockType) & RCC_CLOCKTYPE_SYSCLK) == RCC_CLOCKTYPE_SYSCLK)
 80023d0:	6823      	ldr	r3, [r4, #0]
 80023d2:	07db      	lsls	r3, r3, #31
 80023d4:	d554      	bpl.n	8002480 <HAL_RCC_ClockConfig+0xec>
    if (RCC_ClkInitStruct->SYSCLKSource == RCC_SYSCLKSOURCE_HSE)
 80023d6:	6863      	ldr	r3, [r4, #4]
 80023d8:	2b01      	cmp	r3, #1
 80023da:	d020      	beq.n	800241e <HAL_RCC_ClockConfig+0x8a>
    else if (RCC_ClkInitStruct->SYSCLKSource == RCC_SYSCLKSOURCE_PLLCLK)
 80023dc:	2b02      	cmp	r3, #2
 80023de:	d03b      	beq.n	8002458 <HAL_RCC_ClockConfig+0xc4>
    else if (RCC_ClkInitStruct->SYSCLKSource == RCC_SYSCLKSOURCE_HSI)
 80023e0:	2b00      	cmp	r3, #0
 80023e2:	d13f      	bne.n	8002464 <HAL_RCC_ClockConfig+0xd0>
      if (READ_BIT(RCC->CR, RCC_CR_HSIRDY) == 0U)
 80023e4:	4a47      	ldr	r2, [pc, #284]	; (8002504 <HAL_RCC_ClockConfig+0x170>)
 80023e6:	6812      	ldr	r2, [r2, #0]
 80023e8:	0552      	lsls	r2, r2, #21
 80023ea:	d41c      	bmi.n	8002426 <HAL_RCC_ClockConfig+0x92>
        return HAL_ERROR;
 80023ec:	2001      	movs	r0, #1
 80023ee:	e06a      	b.n	80024c6 <HAL_RCC_ClockConfig+0x132>
    __HAL_FLASH_SET_LATENCY(FLatency);
 80023f0:	4a43      	ldr	r2, [pc, #268]	; (8002500 <HAL_RCC_ClockConfig+0x16c>)
 80023f2:	6813      	ldr	r3, [r2, #0]
 80023f4:	2107      	movs	r1, #7
 80023f6:	438b      	bics	r3, r1
 80023f8:	432b      	orrs	r3, r5
 80023fa:	6013      	str	r3, [r2, #0]
    tickstart = HAL_GetTick();
 80023fc:	f7fe fdc4 	bl	8000f88 <HAL_GetTick>
 8002400:	0006      	movs	r6, r0
    while ((FLASH->ACR & FLASH_ACR_LATENCY) != FLatency)
 8002402:	4b3f      	ldr	r3, [pc, #252]	; (8002500 <HAL_RCC_ClockConfig+0x16c>)
 8002404:	681a      	ldr	r2, [r3, #0]
 8002406:	2307      	movs	r3, #7
 8002408:	4013      	ands	r3, r2
 800240a:	42ab      	cmp	r3, r5
 800240c:	d0ce      	beq.n	80023ac <HAL_RCC_ClockConfig+0x18>
      if ((HAL_GetTick() - tickstart) > CLOCKSWITCH_TIMEOUT_VALUE)
 800240e:	f7fe fdbb 	bl	8000f88 <HAL_GetTick>
 8002412:	1b80      	subs	r0, r0, r6
 8002414:	4a3d      	ldr	r2, [pc, #244]	; (800250c <HAL_RCC_ClockConfig+0x178>)
 8002416:	4290      	cmp	r0, r2
 8002418:	d9f3      	bls.n	8002402 <HAL_RCC_ClockConfig+0x6e>
        return HAL_TIMEOUT;
 800241a:	2003      	movs	r0, #3
 800241c:	e053      	b.n	80024c6 <HAL_RCC_ClockConfig+0x132>
      if (READ_BIT(RCC->CR, RCC_CR_HSERDY) == 0U)
 800241e:	4a39      	ldr	r2, [pc, #228]	; (8002504 <HAL_RCC_ClockConfig+0x170>)
 8002420:	6812      	ldr	r2, [r2, #0]
 8002422:	0392      	lsls	r2, r2, #14
 8002424:	d569      	bpl.n	80024fa <HAL_RCC_ClockConfig+0x166>
    MODIFY_REG(RCC->CFGR, RCC_CFGR_SW, RCC_ClkInitStruct->SYSCLKSource);
 8002426:	4937      	ldr	r1, [pc, #220]	; (8002504 <HAL_RCC_ClockConfig+0x170>)
 8002428:	688a      	ldr	r2, [r1, #8]
 800242a:	2007      	movs	r0, #7
 800242c:	4382      	bics	r2, r0
 800242e:	4313      	orrs	r3, r2
 8002430:	608b      	str	r3, [r1, #8]
    tickstart = HAL_GetTick();
 8002432:	f7fe fda9 	bl	8000f88 <HAL_GetTick>
 8002436:	0006      	movs	r6, r0
    while (__HAL_RCC_GET_SYSCLK_SOURCE() != (RCC_ClkInitStruct->SYSCLKSource << RCC_CFGR_SWS_Pos))
 8002438:	4b32      	ldr	r3, [pc, #200]	; (8002504 <HAL_RCC_ClockConfig+0x170>)
 800243a:	689b      	ldr	r3, [r3, #8]
 800243c:	2238      	movs	r2, #56	; 0x38
 800243e:	401a      	ands	r2, r3
 8002440:	6863      	ldr	r3, [r4, #4]
 8002442:	00db      	lsls	r3, r3, #3
 8002444:	429a      	cmp	r2, r3
 8002446:	d01b      	beq.n	8002480 <HAL_RCC_ClockConfig+0xec>
      if ((HAL_GetTick() - tickstart) > CLOCKSWITCH_TIMEOUT_VALUE)
 8002448:	f7fe fd9e 	bl	8000f88 <HAL_GetTick>
 800244c:	1b80      	subs	r0, r0, r6
 800244e:	4b2f      	ldr	r3, [pc, #188]	; (800250c <HAL_RCC_ClockConfig+0x178>)
 8002450:	4298      	cmp	r0, r3
 8002452:	d9f1      	bls.n	8002438 <HAL_RCC_ClockConfig+0xa4>
        return HAL_TIMEOUT;
 8002454:	2003      	movs	r0, #3
 8002456:	e036      	b.n	80024c6 <HAL_RCC_ClockConfig+0x132>
      if (READ_BIT(RCC->CR, RCC_CR_PLLRDY) == 0U)
 8002458:	4a2a      	ldr	r2, [pc, #168]	; (8002504 <HAL_RCC_ClockConfig+0x170>)
 800245a:	6812      	ldr	r2, [r2, #0]
 800245c:	0192      	lsls	r2, r2, #6
 800245e:	d4e2      	bmi.n	8002426 <HAL_RCC_ClockConfig+0x92>
        return HAL_ERROR;
 8002460:	2001      	movs	r0, #1
 8002462:	e030      	b.n	80024c6 <HAL_RCC_ClockConfig+0x132>
    else if (RCC_ClkInitStruct->SYSCLKSource == RCC_SYSCLKSOURCE_LSI)
 8002464:	2b03      	cmp	r3, #3
 8002466:	d005      	beq.n	8002474 <HAL_RCC_ClockConfig+0xe0>
      if (READ_BIT(RCC->BDCR, RCC_BDCR_LSERDY) == 0U)
 8002468:	4a26      	ldr	r2, [pc, #152]	; (8002504 <HAL_RCC_ClockConfig+0x170>)
 800246a:	6dd2      	ldr	r2, [r2, #92]	; 0x5c
 800246c:	0792      	lsls	r2, r2, #30
 800246e:	d4da      	bmi.n	8002426 <HAL_RCC_ClockConfig+0x92>
        return HAL_ERROR;
 8002470:	2001      	movs	r0, #1
 8002472:	e028      	b.n	80024c6 <HAL_RCC_ClockConfig+0x132>
      if (READ_BIT(RCC->CSR, RCC_CSR_LSIRDY) == 0U)
 8002474:	4a23      	ldr	r2, [pc, #140]	; (8002504 <HAL_RCC_ClockConfig+0x170>)
 8002476:	6e12      	ldr	r2, [r2, #96]	; 0x60
 8002478:	0792      	lsls	r2, r2, #30
 800247a:	d4d4      	bmi.n	8002426 <HAL_RCC_ClockConfig+0x92>
        return HAL_ERROR;
 800247c:	2001      	movs	r0, #1
 800247e:	e022      	b.n	80024c6 <HAL_RCC_ClockConfig+0x132>
  if (FLatency < __HAL_FLASH_GET_LATENCY())
 8002480:	4b1f      	ldr	r3, [pc, #124]	; (8002500 <HAL_RCC_ClockConfig+0x16c>)
 8002482:	681a      	ldr	r2, [r3, #0]
 8002484:	2307      	movs	r3, #7
 8002486:	4013      	ands	r3, r2
 8002488:	42ab      	cmp	r3, r5
 800248a:	d81d      	bhi.n	80024c8 <HAL_RCC_ClockConfig+0x134>
  if (((RCC_ClkInitStruct->ClockType) & RCC_CLOCKTYPE_PCLK1) == RCC_CLOCKTYPE_PCLK1)
 800248c:	6823      	ldr	r3, [r4, #0]
 800248e:	075b      	lsls	r3, r3, #29
 8002490:	d506      	bpl.n	80024a0 <HAL_RCC_ClockConfig+0x10c>
    MODIFY_REG(RCC->CFGR, RCC_CFGR_PPRE, RCC_ClkInitStruct->APB1CLKDivider);
 8002492:	4a1c      	ldr	r2, [pc, #112]	; (8002504 <HAL_RCC_ClockConfig+0x170>)
 8002494:	6893      	ldr	r3, [r2, #8]
 8002496:	491e      	ldr	r1, [pc, #120]	; (8002510 <HAL_RCC_ClockConfig+0x17c>)
 8002498:	400b      	ands	r3, r1
 800249a:	68e1      	ldr	r1, [r4, #12]
 800249c:	430b      	orrs	r3, r1
 800249e:	6093      	str	r3, [r2, #8]
  SystemCoreClock = (HAL_RCC_GetSysClockFreq() >> ((AHBPrescTable[(RCC->CFGR & RCC_CFGR_HPRE) >> RCC_CFGR_HPRE_Pos]) & 0x1FU));
 80024a0:	f7ff ff1c 	bl	80022dc <HAL_RCC_GetSysClockFreq>
 80024a4:	4b17      	ldr	r3, [pc, #92]	; (8002504 <HAL_RCC_ClockConfig+0x170>)
 80024a6:	689a      	ldr	r2, [r3, #8]
 80024a8:	0a12      	lsrs	r2, r2, #8
 80024aa:	230f      	movs	r3, #15
 80024ac:	4013      	ands	r3, r2
 80024ae:	009b      	lsls	r3, r3, #2
 80024b0:	4a18      	ldr	r2, [pc, #96]	; (8002514 <HAL_RCC_ClockConfig+0x180>)
 80024b2:	589a      	ldr	r2, [r3, r2]
 80024b4:	231f      	movs	r3, #31
 80024b6:	4013      	ands	r3, r2
 80024b8:	40d8      	lsrs	r0, r3
 80024ba:	4b17      	ldr	r3, [pc, #92]	; (8002518 <HAL_RCC_ClockConfig+0x184>)
 80024bc:	6018      	str	r0, [r3, #0]
  return HAL_InitTick(uwTickPrio);
 80024be:	4b17      	ldr	r3, [pc, #92]	; (800251c <HAL_RCC_ClockConfig+0x188>)
 80024c0:	6818      	ldr	r0, [r3, #0]
 80024c2:	f7fe fd15 	bl	8000ef0 <HAL_InitTick>
}
 80024c6:	bd70      	pop	{r4, r5, r6, pc}
    __HAL_FLASH_SET_LATENCY(FLatency);
 80024c8:	4a0d      	ldr	r2, [pc, #52]	; (8002500 <HAL_RCC_ClockConfig+0x16c>)
 80024ca:	6813      	ldr	r3, [r2, #0]
 80024cc:	2107      	movs	r1, #7
 80024ce:	438b      	bics	r3, r1
 80024d0:	432b      	orrs	r3, r5
 80024d2:	6013      	str	r3, [r2, #0]
    tickstart = HAL_GetTick();
 80024d4:	f7fe fd58 	bl	8000f88 <HAL_GetTick>
 80024d8:	0006      	movs	r6, r0
    while ((FLASH->ACR & FLASH_ACR_LATENCY) != FLatency)
 80024da:	4b09      	ldr	r3, [pc, #36]	; (8002500 <HAL_RCC_ClockConfig+0x16c>)
 80024dc:	681a      	ldr	r2, [r3, #0]
 80024de:	2307      	movs	r3, #7
 80024e0:	4013      	ands	r3, r2
 80024e2:	42ab      	cmp	r3, r5
 80024e4:	d0d2      	beq.n	800248c <HAL_RCC_ClockConfig+0xf8>
      if ((HAL_GetTick() - tickstart) > CLOCKSWITCH_TIMEOUT_VALUE)
 80024e6:	f7fe fd4f 	bl	8000f88 <HAL_GetTick>
 80024ea:	1b80      	subs	r0, r0, r6
 80024ec:	4b07      	ldr	r3, [pc, #28]	; (800250c <HAL_RCC_ClockConfig+0x178>)
 80024ee:	4298      	cmp	r0, r3
 80024f0:	d9f3      	bls.n	80024da <HAL_RCC_ClockConfig+0x146>
        return HAL_TIMEOUT;
 80024f2:	2003      	movs	r0, #3
 80024f4:	e7e7      	b.n	80024c6 <HAL_RCC_ClockConfig+0x132>
    return HAL_ERROR;
 80024f6:	2001      	movs	r0, #1
 80024f8:	e7e5      	b.n	80024c6 <HAL_RCC_ClockConfig+0x132>
        return HAL_ERROR;
 80024fa:	2001      	movs	r0, #1
 80024fc:	e7e3      	b.n	80024c6 <HAL_RCC_ClockConfig+0x132>
 80024fe:	46c0      	nop			; (mov r8, r8)
 8002500:	40022000 	.word	0x40022000
 8002504:	40021000 	.word	0x40021000
 8002508:	fffff0ff 	.word	0xfffff0ff
 800250c:	00001388 	.word	0x00001388
 8002510:	ffff8fff 	.word	0xffff8fff
 8002514:	080040c8 	.word	0x080040c8
 8002518:	20000084 	.word	0x20000084
 800251c:	2000008c 	.word	0x2000008c

08002520 <HAL_RCC_GetHCLKFreq>:
  * @note   The SystemCoreClock CMSIS variable is used to store System Clock Frequency.
  * @retval HCLK frequency in Hz
  */
uint32_t HAL_RCC_GetHCLKFreq(void)
{
  return SystemCoreClock;
 8002520:	4b01      	ldr	r3, [pc, #4]	; (8002528 <HAL_RCC_GetHCLKFreq+0x8>)
 8002522:	6818      	ldr	r0, [r3, #0]
}
 8002524:	4770      	bx	lr
 8002526:	46c0      	nop			; (mov r8, r8)
 8002528:	20000084 	.word	0x20000084

0800252c <HAL_RCC_GetPCLK1Freq>:
  * @note   Each time PCLK1 changes, this function must be called to update the
  *         right PCLK1 value. Otherwise, any configuration based on this function will be incorrect.
  * @retval PCLK1 frequency in Hz
  */
uint32_t HAL_RCC_GetPCLK1Freq(void)
{
 800252c:	b510      	push	{r4, lr}
  /* Get HCLK source and Compute PCLK1 frequency ---------------------------*/
  return ((uint32_t)(__LL_RCC_CALC_PCLK1_FREQ(HAL_RCC_GetHCLKFreq(), LL_RCC_GetAPB1Prescaler())));
 800252e:	f7ff fff7 	bl	8002520 <HAL_RCC_GetHCLKFreq>
  *         @arg @ref LL_RCC_APB1_DIV_8
  *         @arg @ref LL_RCC_APB1_DIV_16
  */
__STATIC_INLINE uint32_t LL_RCC_GetAPB1Prescaler(void)
{
  return (uint32_t)(READ_BIT(RCC->CFGR, RCC_CFGR_PPRE));
 8002532:	4b06      	ldr	r3, [pc, #24]	; (800254c <HAL_RCC_GetPCLK1Freq+0x20>)
 8002534:	689a      	ldr	r2, [r3, #8]
 8002536:	0b12      	lsrs	r2, r2, #12
 8002538:	2307      	movs	r3, #7
 800253a:	4013      	ands	r3, r2
 800253c:	009b      	lsls	r3, r3, #2
 800253e:	4a04      	ldr	r2, [pc, #16]	; (8002550 <HAL_RCC_GetPCLK1Freq+0x24>)
 8002540:	589a      	ldr	r2, [r3, r2]
 8002542:	231f      	movs	r3, #31
 8002544:	4013      	ands	r3, r2
 8002546:	40d8      	lsrs	r0, r3
}
 8002548:	bd10      	pop	{r4, pc}
 800254a:	46c0      	nop			; (mov r8, r8)
 800254c:	40021000 	.word	0x40021000
 8002550:	08004108 	.word	0x08004108

08002554 <HAL_RCCEx_PeriphCLKConfig>:
  *         the RTC clock source: in this case the access to Backup domain is enabled.
  *
  * @retval HAL status
  */
HAL_StatusTypeDef HAL_RCCEx_PeriphCLKConfig(RCC_PeriphCLKInitTypeDef  *PeriphClkInit)
{
 8002554:	b5f0      	push	{r4, r5, r6, r7, lr}
 8002556:	b083      	sub	sp, #12
 8002558:	0004      	movs	r4, r0

  /* Check the parameters */
  assert_param(IS_RCC_PERIPHCLOCK(PeriphClkInit->PeriphClockSelection));

  /*-------------------------- RTC clock source configuration ----------------------*/
  if ((PeriphClkInit->PeriphClockSelection & RCC_PERIPHCLK_RTC) == RCC_PERIPHCLK_RTC)
 800255a:	6803      	ldr	r3, [r0, #0]
 800255c:	039b      	lsls	r3, r3, #14
 800255e:	d562      	bpl.n	8002626 <HAL_RCCEx_PeriphCLKConfig+0xd2>

    /* Check for RTC Parameters used to output RTCCLK */
    assert_param(IS_RCC_RTCCLKSOURCE(PeriphClkInit->RTCClockSelection));

    /* Enable Power Clock */
    if (__HAL_RCC_PWR_IS_CLK_DISABLED())
 8002560:	4b53      	ldr	r3, [pc, #332]	; (80026b0 <HAL_RCCEx_PeriphCLKConfig+0x15c>)
 8002562:	6bdb      	ldr	r3, [r3, #60]	; 0x3c
 8002564:	00db      	lsls	r3, r3, #3
 8002566:	d41e      	bmi.n	80025a6 <HAL_RCCEx_PeriphCLKConfig+0x52>
    {
      __HAL_RCC_PWR_CLK_ENABLE();
 8002568:	4a51      	ldr	r2, [pc, #324]	; (80026b0 <HAL_RCCEx_PeriphCLKConfig+0x15c>)
 800256a:	6bd1      	ldr	r1, [r2, #60]	; 0x3c
 800256c:	2080      	movs	r0, #128	; 0x80
 800256e:	0540      	lsls	r0, r0, #21
 8002570:	4301      	orrs	r1, r0
 8002572:	63d1      	str	r1, [r2, #60]	; 0x3c
 8002574:	6bd3      	ldr	r3, [r2, #60]	; 0x3c
 8002576:	4003      	ands	r3, r0
 8002578:	9301      	str	r3, [sp, #4]
 800257a:	9b01      	ldr	r3, [sp, #4]
      pwrclkchanged = SET;
 800257c:	2601      	movs	r6, #1
    }

    /* Enable write access to Backup domain */
    SET_BIT(PWR->CR1, PWR_CR1_DBP);
 800257e:	4a4d      	ldr	r2, [pc, #308]	; (80026b4 <HAL_RCCEx_PeriphCLKConfig+0x160>)
 8002580:	6811      	ldr	r1, [r2, #0]
 8002582:	2380      	movs	r3, #128	; 0x80
 8002584:	005b      	lsls	r3, r3, #1
 8002586:	430b      	orrs	r3, r1
 8002588:	6013      	str	r3, [r2, #0]

    /* Wait for Backup domain Write protection disable */
    tickstart = HAL_GetTick();
 800258a:	f7fe fcfd 	bl	8000f88 <HAL_GetTick>
 800258e:	0005      	movs	r5, r0

    while ((PWR->CR1 & PWR_CR1_DBP) == 0U)
 8002590:	4b48      	ldr	r3, [pc, #288]	; (80026b4 <HAL_RCCEx_PeriphCLKConfig+0x160>)
 8002592:	681b      	ldr	r3, [r3, #0]
 8002594:	05db      	lsls	r3, r3, #23
 8002596:	d408      	bmi.n	80025aa <HAL_RCCEx_PeriphCLKConfig+0x56>
    {
      if ((HAL_GetTick() - tickstart) > RCC_DBP_TIMEOUT_VALUE)
 8002598:	f7fe fcf6 	bl	8000f88 <HAL_GetTick>
 800259c:	1b40      	subs	r0, r0, r5
 800259e:	2802      	cmp	r0, #2
 80025a0:	d9f6      	bls.n	8002590 <HAL_RCCEx_PeriphCLKConfig+0x3c>
      {
        ret = HAL_TIMEOUT;
 80025a2:	2503      	movs	r5, #3
 80025a4:	e002      	b.n	80025ac <HAL_RCCEx_PeriphCLKConfig+0x58>
    FlagStatus       pwrclkchanged = RESET;
 80025a6:	2600      	movs	r6, #0
 80025a8:	e7e9      	b.n	800257e <HAL_RCCEx_PeriphCLKConfig+0x2a>
  HAL_StatusTypeDef ret    = HAL_OK;   /* Intermediate status */
 80025aa:	2500      	movs	r5, #0
        break;
      }
    }

    if (ret == HAL_OK)
 80025ac:	2d00      	cmp	r5, #0
 80025ae:	d123      	bne.n	80025f8 <HAL_RCCEx_PeriphCLKConfig+0xa4>
    {
      /* Reset the Backup domain only if the RTC Clock source selection is modified from default */
      tmpregister = READ_BIT(RCC->BDCR, RCC_BDCR_RTCSEL);
 80025b0:	4b3f      	ldr	r3, [pc, #252]	; (80026b0 <HAL_RCCEx_PeriphCLKConfig+0x15c>)
 80025b2:	6dd9      	ldr	r1, [r3, #92]	; 0x5c
 80025b4:	22c0      	movs	r2, #192	; 0xc0
 80025b6:	0092      	lsls	r2, r2, #2
 80025b8:	000b      	movs	r3, r1
 80025ba:	4013      	ands	r3, r2

      /* Reset the Backup domain only if the RTC Clock source selection is modified */
      if ((tmpregister != RCC_RTCCLKSOURCE_NONE) && (tmpregister != PeriphClkInit->RTCClockSelection))
 80025bc:	4211      	tst	r1, r2
 80025be:	d010      	beq.n	80025e2 <HAL_RCCEx_PeriphCLKConfig+0x8e>
 80025c0:	6962      	ldr	r2, [r4, #20]
 80025c2:	429a      	cmp	r2, r3
 80025c4:	d00d      	beq.n	80025e2 <HAL_RCCEx_PeriphCLKConfig+0x8e>
      {
        /* Store the content of BDCR register before the reset of Backup Domain */
        tmpregister = READ_BIT(RCC->BDCR, ~(RCC_BDCR_RTCSEL));
 80025c6:	4a3a      	ldr	r2, [pc, #232]	; (80026b0 <HAL_RCCEx_PeriphCLKConfig+0x15c>)
 80025c8:	6dd3      	ldr	r3, [r2, #92]	; 0x5c
 80025ca:	493b      	ldr	r1, [pc, #236]	; (80026b8 <HAL_RCCEx_PeriphCLKConfig+0x164>)
 80025cc:	400b      	ands	r3, r1
        /* RTC Clock selection can be changed only if the Backup Domain is reset */
        __HAL_RCC_BACKUPRESET_FORCE();
 80025ce:	6dd0      	ldr	r0, [r2, #92]	; 0x5c
 80025d0:	2180      	movs	r1, #128	; 0x80
 80025d2:	0249      	lsls	r1, r1, #9
 80025d4:	4301      	orrs	r1, r0
 80025d6:	65d1      	str	r1, [r2, #92]	; 0x5c
        __HAL_RCC_BACKUPRESET_RELEASE();
 80025d8:	6dd1      	ldr	r1, [r2, #92]	; 0x5c
 80025da:	4838      	ldr	r0, [pc, #224]	; (80026bc <HAL_RCCEx_PeriphCLKConfig+0x168>)
 80025dc:	4001      	ands	r1, r0
 80025de:	65d1      	str	r1, [r2, #92]	; 0x5c
        /* Restore the Content of BDCR register */
        RCC->BDCR = tmpregister;
 80025e0:	65d3      	str	r3, [r2, #92]	; 0x5c
      }

      /* Wait for LSE reactivation if LSE was enable prior to Backup Domain reset */
      if (HAL_IS_BIT_SET(tmpregister, RCC_BDCR_LSEON))
 80025e2:	07db      	lsls	r3, r3, #31
 80025e4:	d410      	bmi.n	8002608 <HAL_RCCEx_PeriphCLKConfig+0xb4>
            break;
          }
        }
      }

      if (ret == HAL_OK)
 80025e6:	2d00      	cmp	r5, #0
 80025e8:	d106      	bne.n	80025f8 <HAL_RCCEx_PeriphCLKConfig+0xa4>
      {
        /* Apply new RTC clock source selection */
        __HAL_RCC_RTC_CONFIG(PeriphClkInit->RTCClockSelection);
 80025ea:	4a31      	ldr	r2, [pc, #196]	; (80026b0 <HAL_RCCEx_PeriphCLKConfig+0x15c>)
 80025ec:	6dd3      	ldr	r3, [r2, #92]	; 0x5c
 80025ee:	4932      	ldr	r1, [pc, #200]	; (80026b8 <HAL_RCCEx_PeriphCLKConfig+0x164>)
 80025f0:	400b      	ands	r3, r1
 80025f2:	6961      	ldr	r1, [r4, #20]
 80025f4:	430b      	orrs	r3, r1
 80025f6:	65d3      	str	r3, [r2, #92]	; 0x5c
      /* set overall return value */
      status = ret;
    }

    /* Restore clock configuration if changed */
    if (pwrclkchanged == SET)
 80025f8:	2e01      	cmp	r6, #1
 80025fa:	d115      	bne.n	8002628 <HAL_RCCEx_PeriphCLKConfig+0xd4>
    {
      __HAL_RCC_PWR_CLK_DISABLE();
 80025fc:	4a2c      	ldr	r2, [pc, #176]	; (80026b0 <HAL_RCCEx_PeriphCLKConfig+0x15c>)
 80025fe:	6bd3      	ldr	r3, [r2, #60]	; 0x3c
 8002600:	492f      	ldr	r1, [pc, #188]	; (80026c0 <HAL_RCCEx_PeriphCLKConfig+0x16c>)
 8002602:	400b      	ands	r3, r1
 8002604:	63d3      	str	r3, [r2, #60]	; 0x3c
 8002606:	e00f      	b.n	8002628 <HAL_RCCEx_PeriphCLKConfig+0xd4>
        tickstart = HAL_GetTick();
 8002608:	f7fe fcbe 	bl	8000f88 <HAL_GetTick>
 800260c:	0007      	movs	r7, r0
        while (READ_BIT(RCC->BDCR, RCC_BDCR_LSERDY) == 0U)
 800260e:	4b28      	ldr	r3, [pc, #160]	; (80026b0 <HAL_RCCEx_PeriphCLKConfig+0x15c>)
 8002610:	6ddb      	ldr	r3, [r3, #92]	; 0x5c
 8002612:	079b      	lsls	r3, r3, #30
 8002614:	d4e7      	bmi.n	80025e6 <HAL_RCCEx_PeriphCLKConfig+0x92>
          if ((HAL_GetTick() - tickstart) > RCC_LSE_TIMEOUT_VALUE)
 8002616:	f7fe fcb7 	bl	8000f88 <HAL_GetTick>
 800261a:	1bc0      	subs	r0, r0, r7
 800261c:	4b29      	ldr	r3, [pc, #164]	; (80026c4 <HAL_RCCEx_PeriphCLKConfig+0x170>)
 800261e:	4298      	cmp	r0, r3
 8002620:	d9f5      	bls.n	800260e <HAL_RCCEx_PeriphCLKConfig+0xba>
            ret = HAL_TIMEOUT;
 8002622:	2503      	movs	r5, #3
 8002624:	e7df      	b.n	80025e6 <HAL_RCCEx_PeriphCLKConfig+0x92>
  HAL_StatusTypeDef status = HAL_OK;   /* Final status */
 8002626:	2500      	movs	r5, #0
    }
  }

  /*-------------------------- USART1 clock source configuration -------------------*/
  if (((PeriphClkInit->PeriphClockSelection) & RCC_PERIPHCLK_USART1) == RCC_PERIPHCLK_USART1)
 8002628:	6823      	ldr	r3, [r4, #0]
 800262a:	07db      	lsls	r3, r3, #31
 800262c:	d506      	bpl.n	800263c <HAL_RCCEx_PeriphCLKConfig+0xe8>
  {
    /* Check the parameters */
    assert_param(IS_RCC_USART1CLKSOURCE(PeriphClkInit->Usart1ClockSelection));

    /* Configure the USART1 clock source */
    __HAL_RCC_USART1_CONFIG(PeriphClkInit->Usart1ClockSelection);
 800262e:	4a20      	ldr	r2, [pc, #128]	; (80026b0 <HAL_RCCEx_PeriphCLKConfig+0x15c>)
 8002630:	6d53      	ldr	r3, [r2, #84]	; 0x54
 8002632:	2103      	movs	r1, #3
 8002634:	438b      	bics	r3, r1
 8002636:	6861      	ldr	r1, [r4, #4]
 8002638:	430b      	orrs	r3, r1
 800263a:	6553      	str	r3, [r2, #84]	; 0x54
    __HAL_RCC_LPTIM2_CONFIG(PeriphClkInit->Lptim2ClockSelection);
  }
#endif /* RCC_CCIPR_LPTIM2SEL */

  /*-------------------------- I2C1 clock source configuration ---------------------*/
  if (((PeriphClkInit->PeriphClockSelection) & RCC_PERIPHCLK_I2C1) == RCC_PERIPHCLK_I2C1)
 800263c:	6823      	ldr	r3, [r4, #0]
 800263e:	069b      	lsls	r3, r3, #26
 8002640:	d506      	bpl.n	8002650 <HAL_RCCEx_PeriphCLKConfig+0xfc>
  {
    /* Check the parameters */
    assert_param(IS_RCC_I2C1CLKSOURCE(PeriphClkInit->I2c1ClockSelection));

    /* Configure the I2C1 clock source */
    __HAL_RCC_I2C1_CONFIG(PeriphClkInit->I2c1ClockSelection);
 8002642:	4a1b      	ldr	r2, [pc, #108]	; (80026b0 <HAL_RCCEx_PeriphCLKConfig+0x15c>)
 8002644:	6d53      	ldr	r3, [r2, #84]	; 0x54
 8002646:	4920      	ldr	r1, [pc, #128]	; (80026c8 <HAL_RCCEx_PeriphCLKConfig+0x174>)
 8002648:	400b      	ands	r3, r1
 800264a:	68a1      	ldr	r1, [r4, #8]
 800264c:	430b      	orrs	r3, r1
 800264e:	6553      	str	r3, [r2, #84]	; 0x54
      __HAL_RCC_PLLCLKOUT_ENABLE(RCC_PLLQCLK);
    }
  }
#endif /* RNG */
  /*-------------------------- ADC clock source configuration ----------------------*/
  if (((PeriphClkInit->PeriphClockSelection) & RCC_PERIPHCLK_ADC) == RCC_PERIPHCLK_ADC)
 8002650:	6823      	ldr	r3, [r4, #0]
 8002652:	045b      	lsls	r3, r3, #17
 8002654:	d50b      	bpl.n	800266e <HAL_RCCEx_PeriphCLKConfig+0x11a>
  {
    /* Check the parameters */
    assert_param(IS_RCC_ADCCLKSOURCE(PeriphClkInit->AdcClockSelection));

    /* Configure the ADC interface clock source */
    __HAL_RCC_ADC_CONFIG(PeriphClkInit->AdcClockSelection);
 8002656:	4a16      	ldr	r2, [pc, #88]	; (80026b0 <HAL_RCCEx_PeriphCLKConfig+0x15c>)
 8002658:	6d53      	ldr	r3, [r2, #84]	; 0x54
 800265a:	009b      	lsls	r3, r3, #2
 800265c:	089b      	lsrs	r3, r3, #2
 800265e:	6921      	ldr	r1, [r4, #16]
 8002660:	430b      	orrs	r3, r1
 8002662:	6553      	str	r3, [r2, #84]	; 0x54

    if (PeriphClkInit->AdcClockSelection == RCC_ADCCLKSOURCE_PLLADC)
 8002664:	2380      	movs	r3, #128	; 0x80
 8002666:	05db      	lsls	r3, r3, #23
 8002668:	6922      	ldr	r2, [r4, #16]
 800266a:	429a      	cmp	r2, r3
 800266c:	d011      	beq.n	8002692 <HAL_RCCEx_PeriphCLKConfig+0x13e>
    }
  }
#endif /* RCC_CCIPR_TIM15SEL */

  /*-------------------------- I2S1 clock source configuration ---------------------*/
  if (((PeriphClkInit->PeriphClockSelection) & RCC_PERIPHCLK_I2S1) == RCC_PERIPHCLK_I2S1)
 800266e:	6823      	ldr	r3, [r4, #0]
 8002670:	051b      	lsls	r3, r3, #20
 8002672:	d50b      	bpl.n	800268c <HAL_RCCEx_PeriphCLKConfig+0x138>
  {
    /* Check the parameters */
    assert_param(IS_RCC_I2S1CLKSOURCE(PeriphClkInit->I2s1ClockSelection));

    /* Configure the I2S1 clock source */
    __HAL_RCC_I2S1_CONFIG(PeriphClkInit->I2s1ClockSelection);
 8002674:	4a0e      	ldr	r2, [pc, #56]	; (80026b0 <HAL_RCCEx_PeriphCLKConfig+0x15c>)
 8002676:	6d53      	ldr	r3, [r2, #84]	; 0x54
 8002678:	4914      	ldr	r1, [pc, #80]	; (80026cc <HAL_RCCEx_PeriphCLKConfig+0x178>)
 800267a:	400b      	ands	r3, r1
 800267c:	68e1      	ldr	r1, [r4, #12]
 800267e:	430b      	orrs	r3, r1
 8002680:	6553      	str	r3, [r2, #84]	; 0x54

    if (PeriphClkInit->I2s1ClockSelection == RCC_I2S1CLKSOURCE_PLL)
 8002682:	68e2      	ldr	r2, [r4, #12]
 8002684:	2380      	movs	r3, #128	; 0x80
 8002686:	01db      	lsls	r3, r3, #7
 8002688:	429a      	cmp	r2, r3
 800268a:	d009      	beq.n	80026a0 <HAL_RCCEx_PeriphCLKConfig+0x14c>
    }
  }
#endif /* FDCAN1 || FDCAN2 */

  return status;
}
 800268c:	0028      	movs	r0, r5
 800268e:	b003      	add	sp, #12
 8002690:	bdf0      	pop	{r4, r5, r6, r7, pc}
      __HAL_RCC_PLLCLKOUT_ENABLE(RCC_PLLPCLK);
 8002692:	4a07      	ldr	r2, [pc, #28]	; (80026b0 <HAL_RCCEx_PeriphCLKConfig+0x15c>)
 8002694:	68d1      	ldr	r1, [r2, #12]
 8002696:	2380      	movs	r3, #128	; 0x80
 8002698:	025b      	lsls	r3, r3, #9
 800269a:	430b      	orrs	r3, r1
 800269c:	60d3      	str	r3, [r2, #12]
 800269e:	e7e6      	b.n	800266e <HAL_RCCEx_PeriphCLKConfig+0x11a>
      __HAL_RCC_PLLCLKOUT_ENABLE(RCC_PLLPCLK);
 80026a0:	4a03      	ldr	r2, [pc, #12]	; (80026b0 <HAL_RCCEx_PeriphCLKConfig+0x15c>)
 80026a2:	68d1      	ldr	r1, [r2, #12]
 80026a4:	2380      	movs	r3, #128	; 0x80
 80026a6:	025b      	lsls	r3, r3, #9
 80026a8:	430b      	orrs	r3, r1
 80026aa:	60d3      	str	r3, [r2, #12]
 80026ac:	e7ee      	b.n	800268c <HAL_RCCEx_PeriphCLKConfig+0x138>
 80026ae:	46c0      	nop			; (mov r8, r8)
 80026b0:	40021000 	.word	0x40021000
 80026b4:	40007000 	.word	0x40007000
 80026b8:	fffffcff 	.word	0xfffffcff
 80026bc:	fffeffff 	.word	0xfffeffff
 80026c0:	efffffff 	.word	0xefffffff
 80026c4:	00001388 	.word	0x00001388
 80026c8:	ffffcfff 	.word	0xffffcfff
 80026cc:	ffff3fff 	.word	0xffff3fff

080026d0 <HAL_RTC_WaitForSynchro>:
  *         correctly copied into the RTC_TR and RTC_DR shadow registers.
  * @param  hrtc RTC handle
  * @retval HAL status
  */
HAL_StatusTypeDef HAL_RTC_WaitForSynchro(RTC_HandleTypeDef* hrtc)
{
 80026d0:	b570      	push	{r4, r5, r6, lr}
 80026d2:	0004      	movs	r4, r0
  uint32_t tickstart;

  /* Clear RSF flag */
  hrtc->Instance->ICSR &= (uint32_t)RTC_RSF_MASK;
 80026d4:	6802      	ldr	r2, [r0, #0]
 80026d6:	68d3      	ldr	r3, [r2, #12]
 80026d8:	21a0      	movs	r1, #160	; 0xa0
 80026da:	438b      	bics	r3, r1
 80026dc:	60d3      	str	r3, [r2, #12]

  tickstart = HAL_GetTick();
 80026de:	f7fe fc53 	bl	8000f88 <HAL_GetTick>
 80026e2:	0005      	movs	r5, r0

  /* Wait the registers to be synchronised */
  while((hrtc->Instance->ICSR & RTC_ICSR_RSF) == 0U)
 80026e4:	6823      	ldr	r3, [r4, #0]
 80026e6:	68db      	ldr	r3, [r3, #12]
 80026e8:	069b      	lsls	r3, r3, #26
 80026ea:	d408      	bmi.n	80026fe <HAL_RTC_WaitForSynchro+0x2e>
  {
    if((HAL_GetTick() - tickstart ) > RTC_TIMEOUT_VALUE)
 80026ec:	f7fe fc4c 	bl	8000f88 <HAL_GetTick>
 80026f0:	1b40      	subs	r0, r0, r5
 80026f2:	23fa      	movs	r3, #250	; 0xfa
 80026f4:	009b      	lsls	r3, r3, #2
 80026f6:	4298      	cmp	r0, r3
 80026f8:	d9f4      	bls.n	80026e4 <HAL_RTC_WaitForSynchro+0x14>
    {
      return HAL_TIMEOUT;
 80026fa:	2003      	movs	r0, #3
 80026fc:	e000      	b.n	8002700 <HAL_RTC_WaitForSynchro+0x30>
    }
  }

  return HAL_OK;
 80026fe:	2000      	movs	r0, #0
}
 8002700:	bd70      	pop	{r4, r5, r6, pc}

08002702 <RTC_EnterInitMode>:
  *         __HAL_RTC_WRITEPROTECTION_DISABLE() before calling this function.
  * @param  hrtc RTC handle
  * @retval HAL status
  */
HAL_StatusTypeDef RTC_EnterInitMode(RTC_HandleTypeDef* hrtc)
{
 8002702:	b570      	push	{r4, r5, r6, lr}
 8002704:	0004      	movs	r4, r0
  uint32_t tickstart;
  HAL_StatusTypeDef status = HAL_OK;  

  /* Check if the Initialization mode is set */
  if((hrtc->Instance->ICSR & RTC_ICSR_INITF) == 0U)
 8002706:	6803      	ldr	r3, [r0, #0]
 8002708:	68da      	ldr	r2, [r3, #12]
 800270a:	0652      	lsls	r2, r2, #25
 800270c:	d502      	bpl.n	8002714 <RTC_EnterInitMode+0x12>
  HAL_StatusTypeDef status = HAL_OK;  
 800270e:	2500      	movs	r5, #0
      }
    }
  }

  return status;
}
 8002710:	0028      	movs	r0, r5
 8002712:	bd70      	pop	{r4, r5, r6, pc}
    SET_BIT(hrtc->Instance->ICSR, RTC_ICSR_INIT);
 8002714:	68da      	ldr	r2, [r3, #12]
 8002716:	2180      	movs	r1, #128	; 0x80
 8002718:	430a      	orrs	r2, r1
 800271a:	60da      	str	r2, [r3, #12]
    tickstart = HAL_GetTick();
 800271c:	f7fe fc34 	bl	8000f88 <HAL_GetTick>
 8002720:	0006      	movs	r6, r0
  HAL_StatusTypeDef status = HAL_OK;  
 8002722:	2500      	movs	r5, #0
    while(((hrtc->Instance->ICSR & RTC_ICSR_INITF) == 0U) && (status != HAL_TIMEOUT))
 8002724:	6823      	ldr	r3, [r4, #0]
 8002726:	68db      	ldr	r3, [r3, #12]
 8002728:	065b      	lsls	r3, r3, #25
 800272a:	d4f1      	bmi.n	8002710 <RTC_EnterInitMode+0xe>
 800272c:	2d03      	cmp	r5, #3
 800272e:	d0ef      	beq.n	8002710 <RTC_EnterInitMode+0xe>
      if((HAL_GetTick()  - tickstart ) > RTC_TIMEOUT_VALUE)
 8002730:	f7fe fc2a 	bl	8000f88 <HAL_GetTick>
 8002734:	1b80      	subs	r0, r0, r6
 8002736:	22fa      	movs	r2, #250	; 0xfa
 8002738:	0092      	lsls	r2, r2, #2
 800273a:	4290      	cmp	r0, r2
 800273c:	d9f2      	bls.n	8002724 <RTC_EnterInitMode+0x22>
        hrtc->State = HAL_RTC_STATE_TIMEOUT;
 800273e:	2329      	movs	r3, #41	; 0x29
 8002740:	2203      	movs	r2, #3
 8002742:	54e2      	strb	r2, [r4, r3]
        status = HAL_TIMEOUT;
 8002744:	2503      	movs	r5, #3
 8002746:	e7ed      	b.n	8002724 <RTC_EnterInitMode+0x22>

08002748 <RTC_ExitInitMode>:
  * @brief  Exit the RTC Initialization mode.
  * @param  hrtc RTC handle
  * @retval HAL status
  */
HAL_StatusTypeDef RTC_ExitInitMode(RTC_HandleTypeDef *hrtc)
{
 8002748:	b510      	push	{r4, lr}
 800274a:	0004      	movs	r4, r0
  HAL_StatusTypeDef status = HAL_OK;

  /* Exit Initialization mode */
  CLEAR_BIT(RTC->ICSR, RTC_ICSR_INIT);
 800274c:	4b11      	ldr	r3, [pc, #68]	; (8002794 <RTC_ExitInitMode+0x4c>)
 800274e:	68da      	ldr	r2, [r3, #12]
 8002750:	2180      	movs	r1, #128	; 0x80
 8002752:	438a      	bics	r2, r1
 8002754:	60da      	str	r2, [r3, #12]

  /* If CR_BYPSHAD bit = 0, wait for synchro */
  if (READ_BIT(RTC->CR, RTC_CR_BYPSHAD) == 0U)
 8002756:	699b      	ldr	r3, [r3, #24]
 8002758:	069b      	lsls	r3, r3, #26
 800275a:	d408      	bmi.n	800276e <RTC_ExitInitMode+0x26>
  {
    if (HAL_RTC_WaitForSynchro(hrtc) != HAL_OK)
 800275c:	f7ff ffb8 	bl	80026d0 <HAL_RTC_WaitForSynchro>
 8002760:	2800      	cmp	r0, #0
 8002762:	d016      	beq.n	8002792 <RTC_ExitInitMode+0x4a>
    {
      hrtc->State = HAL_RTC_STATE_TIMEOUT;
 8002764:	2329      	movs	r3, #41	; 0x29
 8002766:	2203      	movs	r2, #3
 8002768:	54e2      	strb	r2, [r4, r3]
      status = HAL_TIMEOUT;
 800276a:	2003      	movs	r0, #3
 800276c:	e011      	b.n	8002792 <RTC_ExitInitMode+0x4a>
  }
  else /* WA 2.7.1 Calendar initialization may fail in case of consecutive INIT mode entry.
          Please look at STM32G0 Errata sheet on the internet for details. */
  {
    /* Clear BYPSHAD bit */
    CLEAR_BIT(RTC->CR, RTC_CR_BYPSHAD);
 800276e:	4a09      	ldr	r2, [pc, #36]	; (8002794 <RTC_ExitInitMode+0x4c>)
 8002770:	6993      	ldr	r3, [r2, #24]
 8002772:	2120      	movs	r1, #32
 8002774:	438b      	bics	r3, r1
 8002776:	6193      	str	r3, [r2, #24]
    if (HAL_RTC_WaitForSynchro(hrtc) != HAL_OK)
 8002778:	f7ff ffaa 	bl	80026d0 <HAL_RTC_WaitForSynchro>
 800277c:	2800      	cmp	r0, #0
 800277e:	d003      	beq.n	8002788 <RTC_ExitInitMode+0x40>
    {
      hrtc->State = HAL_RTC_STATE_TIMEOUT;
 8002780:	2329      	movs	r3, #41	; 0x29
 8002782:	2203      	movs	r2, #3
 8002784:	54e2      	strb	r2, [r4, r3]
      status = HAL_TIMEOUT;
 8002786:	2003      	movs	r0, #3
    }
    /* Restore BYPSHAD bit */
    SET_BIT(RTC->CR, RTC_CR_BYPSHAD);
 8002788:	4a02      	ldr	r2, [pc, #8]	; (8002794 <RTC_ExitInitMode+0x4c>)
 800278a:	6993      	ldr	r3, [r2, #24]
 800278c:	2120      	movs	r1, #32
 800278e:	430b      	orrs	r3, r1
 8002790:	6193      	str	r3, [r2, #24]
  }

  return status;
}
 8002792:	bd10      	pop	{r4, pc}
 8002794:	40002800 	.word	0x40002800

08002798 <HAL_RTC_Init>:
{
 8002798:	b570      	push	{r4, r5, r6, lr}
 800279a:	1e04      	subs	r4, r0, #0
  if(hrtc != NULL)
 800279c:	d053      	beq.n	8002846 <HAL_RTC_Init+0xae>
    if(hrtc->State == HAL_RTC_STATE_RESET)
 800279e:	2329      	movs	r3, #41	; 0x29
 80027a0:	5cc3      	ldrb	r3, [r0, r3]
 80027a2:	2b00      	cmp	r3, #0
 80027a4:	d00b      	beq.n	80027be <HAL_RTC_Init+0x26>
    hrtc->State = HAL_RTC_STATE_BUSY;
 80027a6:	2329      	movs	r3, #41	; 0x29
 80027a8:	2202      	movs	r2, #2
 80027aa:	54e2      	strb	r2, [r4, r3]
    if (__HAL_RTC_IS_CALENDAR_INITIALIZED(hrtc) == 0U)
 80027ac:	6823      	ldr	r3, [r4, #0]
 80027ae:	68da      	ldr	r2, [r3, #12]
 80027b0:	06d2      	lsls	r2, r2, #27
 80027b2:	d50d      	bpl.n	80027d0 <HAL_RTC_Init+0x38>
      status = HAL_OK;
 80027b4:	2000      	movs	r0, #0
      hrtc->State = HAL_RTC_STATE_READY;
 80027b6:	2329      	movs	r3, #41	; 0x29
 80027b8:	2201      	movs	r2, #1
 80027ba:	54e2      	strb	r2, [r4, r3]
}
 80027bc:	bd70      	pop	{r4, r5, r6, pc}
      hrtc->Lock = HAL_UNLOCKED;
 80027be:	3328      	adds	r3, #40	; 0x28
 80027c0:	2200      	movs	r2, #0
 80027c2:	54c2      	strb	r2, [r0, r3]
      hrtc->TampOffset = (TAMP_BASE - RTC_BASE);
 80027c4:	2388      	movs	r3, #136	; 0x88
 80027c6:	021b      	lsls	r3, r3, #8
 80027c8:	6043      	str	r3, [r0, #4]
      HAL_RTC_MspInit(hrtc);
 80027ca:	f7fe fa17 	bl	8000bfc <HAL_RTC_MspInit>
 80027ce:	e7ea      	b.n	80027a6 <HAL_RTC_Init+0xe>
      __HAL_RTC_WRITEPROTECTION_DISABLE(hrtc);
 80027d0:	22ca      	movs	r2, #202	; 0xca
 80027d2:	625a      	str	r2, [r3, #36]	; 0x24
 80027d4:	6823      	ldr	r3, [r4, #0]
 80027d6:	3a77      	subs	r2, #119	; 0x77
 80027d8:	625a      	str	r2, [r3, #36]	; 0x24
      status = RTC_EnterInitMode(hrtc);
 80027da:	0020      	movs	r0, r4
 80027dc:	f7ff ff91 	bl	8002702 <RTC_EnterInitMode>
      if(status == HAL_OK)
 80027e0:	2800      	cmp	r0, #0
 80027e2:	d015      	beq.n	8002810 <HAL_RTC_Init+0x78>
      if (status == HAL_OK)
 80027e4:	2800      	cmp	r0, #0
 80027e6:	d10d      	bne.n	8002804 <HAL_RTC_Init+0x6c>
        hrtc->Instance->CR &= ~(RTC_CR_TAMPALRM_PU |RTC_CR_TAMPALRM_TYPE | RTC_CR_OUT2EN);
 80027e8:	6822      	ldr	r2, [r4, #0]
 80027ea:	6993      	ldr	r3, [r2, #24]
 80027ec:	00db      	lsls	r3, r3, #3
 80027ee:	08db      	lsrs	r3, r3, #3
 80027f0:	6193      	str	r3, [r2, #24]
        hrtc->Instance->CR |= (hrtc->Init.OutPutPullUp | hrtc->Init.OutPutType | hrtc->Init.OutPutRemap);
 80027f2:	6821      	ldr	r1, [r4, #0]
 80027f4:	698a      	ldr	r2, [r1, #24]
 80027f6:	6a63      	ldr	r3, [r4, #36]	; 0x24
 80027f8:	6a25      	ldr	r5, [r4, #32]
 80027fa:	432b      	orrs	r3, r5
 80027fc:	69a5      	ldr	r5, [r4, #24]
 80027fe:	432b      	orrs	r3, r5
 8002800:	4313      	orrs	r3, r2
 8002802:	618b      	str	r3, [r1, #24]
      __HAL_RTC_WRITEPROTECTION_ENABLE(hrtc);
 8002804:	6823      	ldr	r3, [r4, #0]
 8002806:	22ff      	movs	r2, #255	; 0xff
 8002808:	625a      	str	r2, [r3, #36]	; 0x24
    if (status == HAL_OK)
 800280a:	2800      	cmp	r0, #0
 800280c:	d1d6      	bne.n	80027bc <HAL_RTC_Init+0x24>
 800280e:	e7d2      	b.n	80027b6 <HAL_RTC_Init+0x1e>
        hrtc->Instance->CR &= ~(RTC_CR_FMT | RTC_CR_POL | RTC_CR_OSEL | RTC_CR_TAMPOE);
 8002810:	6822      	ldr	r2, [r4, #0]
 8002812:	6993      	ldr	r3, [r2, #24]
 8002814:	490d      	ldr	r1, [pc, #52]	; (800284c <HAL_RTC_Init+0xb4>)
 8002816:	400b      	ands	r3, r1
 8002818:	6193      	str	r3, [r2, #24]
        hrtc->Instance->CR |= (hrtc->Init.HourFormat | hrtc->Init.OutPut | hrtc->Init.OutPutPolarity);
 800281a:	6821      	ldr	r1, [r4, #0]
 800281c:	698a      	ldr	r2, [r1, #24]
 800281e:	68a3      	ldr	r3, [r4, #8]
 8002820:	6960      	ldr	r0, [r4, #20]
 8002822:	4303      	orrs	r3, r0
 8002824:	69e0      	ldr	r0, [r4, #28]
 8002826:	4303      	orrs	r3, r0
 8002828:	4313      	orrs	r3, r2
 800282a:	618b      	str	r3, [r1, #24]
        hrtc->Instance->PRER = (hrtc->Init.SynchPrediv);
 800282c:	6823      	ldr	r3, [r4, #0]
 800282e:	6922      	ldr	r2, [r4, #16]
 8002830:	611a      	str	r2, [r3, #16]
        hrtc->Instance->PRER |= (hrtc->Init.AsynchPrediv << RTC_PRER_PREDIV_A_Pos);
 8002832:	6821      	ldr	r1, [r4, #0]
 8002834:	690b      	ldr	r3, [r1, #16]
 8002836:	68e2      	ldr	r2, [r4, #12]
 8002838:	0412      	lsls	r2, r2, #16
 800283a:	4313      	orrs	r3, r2
 800283c:	610b      	str	r3, [r1, #16]
        status = RTC_ExitInitMode(hrtc);
 800283e:	0020      	movs	r0, r4
 8002840:	f7ff ff82 	bl	8002748 <RTC_ExitInitMode>
 8002844:	e7ce      	b.n	80027e4 <HAL_RTC_Init+0x4c>
  HAL_StatusTypeDef status = HAL_ERROR;
 8002846:	2001      	movs	r0, #1
 8002848:	e7b8      	b.n	80027bc <HAL_RTC_Init+0x24>
 800284a:	46c0      	nop			; (mov r8, r8)
 800284c:	fb8fffbf 	.word	0xfb8fffbf

08002850 <HAL_TIM_Base_Start>:

  /* Check the parameters */
  assert_param(IS_TIM_INSTANCE(htim->Instance));

  /* Check the TIM state */
  if (htim->State != HAL_TIM_STATE_READY)
 8002850:	233d      	movs	r3, #61	; 0x3d
 8002852:	5cc3      	ldrb	r3, [r0, r3]
 8002854:	2b01      	cmp	r3, #1
 8002856:	d11d      	bne.n	8002894 <HAL_TIM_Base_Start+0x44>
  {
    return HAL_ERROR;
  }

  /* Set the TIM state */
  htim->State = HAL_TIM_STATE_BUSY;
 8002858:	333c      	adds	r3, #60	; 0x3c
 800285a:	2202      	movs	r2, #2
 800285c:	54c2      	strb	r2, [r0, r3]

  /* Enable the Peripheral, except in trigger mode where enable is automatically done with trigger */
  if (IS_TIM_SLAVE_INSTANCE(htim->Instance))
 800285e:	6803      	ldr	r3, [r0, #0]
 8002860:	4a0f      	ldr	r2, [pc, #60]	; (80028a0 <HAL_TIM_Base_Start+0x50>)
 8002862:	4293      	cmp	r3, r2
 8002864:	d008      	beq.n	8002878 <HAL_TIM_Base_Start+0x28>
 8002866:	4a0f      	ldr	r2, [pc, #60]	; (80028a4 <HAL_TIM_Base_Start+0x54>)
 8002868:	4293      	cmp	r3, r2
 800286a:	d005      	beq.n	8002878 <HAL_TIM_Base_Start+0x28>
      __HAL_TIM_ENABLE(htim);
    }
  }
  else
  {
    __HAL_TIM_ENABLE(htim);
 800286c:	681a      	ldr	r2, [r3, #0]
 800286e:	2101      	movs	r1, #1
 8002870:	430a      	orrs	r2, r1
 8002872:	601a      	str	r2, [r3, #0]
  }

  /* Return function status */
  return HAL_OK;
 8002874:	2000      	movs	r0, #0
 8002876:	e00e      	b.n	8002896 <HAL_TIM_Base_Start+0x46>
    tmpsmcr = htim->Instance->SMCR & TIM_SMCR_SMS;
 8002878:	689a      	ldr	r2, [r3, #8]
 800287a:	490b      	ldr	r1, [pc, #44]	; (80028a8 <HAL_TIM_Base_Start+0x58>)
 800287c:	400a      	ands	r2, r1
    if (!IS_TIM_SLAVEMODE_TRIGGER_ENABLED(tmpsmcr))
 800287e:	2a06      	cmp	r2, #6
 8002880:	d00a      	beq.n	8002898 <HAL_TIM_Base_Start+0x48>
 8002882:	3907      	subs	r1, #7
 8002884:	428a      	cmp	r2, r1
 8002886:	d009      	beq.n	800289c <HAL_TIM_Base_Start+0x4c>
      __HAL_TIM_ENABLE(htim);
 8002888:	681a      	ldr	r2, [r3, #0]
 800288a:	2101      	movs	r1, #1
 800288c:	430a      	orrs	r2, r1
 800288e:	601a      	str	r2, [r3, #0]
  return HAL_OK;
 8002890:	2000      	movs	r0, #0
 8002892:	e000      	b.n	8002896 <HAL_TIM_Base_Start+0x46>
    return HAL_ERROR;
 8002894:	2001      	movs	r0, #1
}
 8002896:	4770      	bx	lr
  return HAL_OK;
 8002898:	2000      	movs	r0, #0
 800289a:	e7fc      	b.n	8002896 <HAL_TIM_Base_Start+0x46>
 800289c:	2000      	movs	r0, #0
 800289e:	e7fa      	b.n	8002896 <HAL_TIM_Base_Start+0x46>
 80028a0:	40012c00 	.word	0x40012c00
 80028a4:	40000400 	.word	0x40000400
 80028a8:	00010007 	.word	0x00010007

080028ac <TIM_Base_SetConfig>:
  * @retval None
  */
void TIM_Base_SetConfig(TIM_TypeDef *TIMx, const TIM_Base_InitTypeDef *Structure)
{
  uint32_t tmpcr1;
  tmpcr1 = TIMx->CR1;
 80028ac:	6803      	ldr	r3, [r0, #0]

  /* Set TIM Time Base Unit parameters ---------------------------------------*/
  if (IS_TIM_COUNTER_MODE_SELECT_INSTANCE(TIMx))
 80028ae:	4a1a      	ldr	r2, [pc, #104]	; (8002918 <TIM_Base_SetConfig+0x6c>)
 80028b0:	4290      	cmp	r0, r2
 80028b2:	d002      	beq.n	80028ba <TIM_Base_SetConfig+0xe>
 80028b4:	4a19      	ldr	r2, [pc, #100]	; (800291c <TIM_Base_SetConfig+0x70>)
 80028b6:	4290      	cmp	r0, r2
 80028b8:	d103      	bne.n	80028c2 <TIM_Base_SetConfig+0x16>
  {
    /* Select the Counter Mode */
    tmpcr1 &= ~(TIM_CR1_DIR | TIM_CR1_CMS);
 80028ba:	2270      	movs	r2, #112	; 0x70
 80028bc:	4393      	bics	r3, r2
    tmpcr1 |= Structure->CounterMode;
 80028be:	684a      	ldr	r2, [r1, #4]
 80028c0:	4313      	orrs	r3, r2
  }

  if (IS_TIM_CLOCK_DIVISION_INSTANCE(TIMx))
 80028c2:	4a15      	ldr	r2, [pc, #84]	; (8002918 <TIM_Base_SetConfig+0x6c>)
 80028c4:	4290      	cmp	r0, r2
 80028c6:	d00b      	beq.n	80028e0 <TIM_Base_SetConfig+0x34>
 80028c8:	4a14      	ldr	r2, [pc, #80]	; (800291c <TIM_Base_SetConfig+0x70>)
 80028ca:	4290      	cmp	r0, r2
 80028cc:	d008      	beq.n	80028e0 <TIM_Base_SetConfig+0x34>
 80028ce:	4a14      	ldr	r2, [pc, #80]	; (8002920 <TIM_Base_SetConfig+0x74>)
 80028d0:	4290      	cmp	r0, r2
 80028d2:	d005      	beq.n	80028e0 <TIM_Base_SetConfig+0x34>
 80028d4:	4a13      	ldr	r2, [pc, #76]	; (8002924 <TIM_Base_SetConfig+0x78>)
 80028d6:	4290      	cmp	r0, r2
 80028d8:	d002      	beq.n	80028e0 <TIM_Base_SetConfig+0x34>
 80028da:	4a13      	ldr	r2, [pc, #76]	; (8002928 <TIM_Base_SetConfig+0x7c>)
 80028dc:	4290      	cmp	r0, r2
 80028de:	d103      	bne.n	80028e8 <TIM_Base_SetConfig+0x3c>
  {
    /* Set the clock division */
    tmpcr1 &= ~TIM_CR1_CKD;
 80028e0:	4a12      	ldr	r2, [pc, #72]	; (800292c <TIM_Base_SetConfig+0x80>)
 80028e2:	4013      	ands	r3, r2
    tmpcr1 |= (uint32_t)Structure->ClockDivision;
 80028e4:	68ca      	ldr	r2, [r1, #12]
 80028e6:	4313      	orrs	r3, r2
  }

  /* Set the auto-reload preload */
  MODIFY_REG(tmpcr1, TIM_CR1_ARPE, Structure->AutoReloadPreload);
 80028e8:	2280      	movs	r2, #128	; 0x80
 80028ea:	4393      	bics	r3, r2
 80028ec:	694a      	ldr	r2, [r1, #20]
 80028ee:	4313      	orrs	r3, r2

  TIMx->CR1 = tmpcr1;
 80028f0:	6003      	str	r3, [r0, #0]

  /* Set the Autoreload value */
  TIMx->ARR = (uint32_t)Structure->Period ;
 80028f2:	688b      	ldr	r3, [r1, #8]
 80028f4:	62c3      	str	r3, [r0, #44]	; 0x2c

  /* Set the Prescaler value */
  TIMx->PSC = Structure->Prescaler;
 80028f6:	680b      	ldr	r3, [r1, #0]
 80028f8:	6283      	str	r3, [r0, #40]	; 0x28

  if (IS_TIM_REPETITION_COUNTER_INSTANCE(TIMx))
 80028fa:	4b07      	ldr	r3, [pc, #28]	; (8002918 <TIM_Base_SetConfig+0x6c>)
 80028fc:	4298      	cmp	r0, r3
 80028fe:	d005      	beq.n	800290c <TIM_Base_SetConfig+0x60>
 8002900:	4b08      	ldr	r3, [pc, #32]	; (8002924 <TIM_Base_SetConfig+0x78>)
 8002902:	4298      	cmp	r0, r3
 8002904:	d002      	beq.n	800290c <TIM_Base_SetConfig+0x60>
 8002906:	4b08      	ldr	r3, [pc, #32]	; (8002928 <TIM_Base_SetConfig+0x7c>)
 8002908:	4298      	cmp	r0, r3
 800290a:	d101      	bne.n	8002910 <TIM_Base_SetConfig+0x64>
  {
    /* Set the Repetition Counter value */
    TIMx->RCR = Structure->RepetitionCounter;
 800290c:	690b      	ldr	r3, [r1, #16]
 800290e:	6303      	str	r3, [r0, #48]	; 0x30
  }

  /* Generate an update event to reload the Prescaler
     and the repetition counter (only for advanced timer) value immediately */
  TIMx->EGR = TIM_EGR_UG;
 8002910:	2301      	movs	r3, #1
 8002912:	6143      	str	r3, [r0, #20]
}
 8002914:	4770      	bx	lr
 8002916:	46c0      	nop			; (mov r8, r8)
 8002918:	40012c00 	.word	0x40012c00
 800291c:	40000400 	.word	0x40000400
 8002920:	40002000 	.word	0x40002000
 8002924:	40014400 	.word	0x40014400
 8002928:	40014800 	.word	0x40014800
 800292c:	fffffcff 	.word	0xfffffcff

08002930 <HAL_TIM_Base_Init>:
{
 8002930:	b570      	push	{r4, r5, r6, lr}
 8002932:	1e04      	subs	r4, r0, #0
  if (htim == NULL)
 8002934:	d02a      	beq.n	800298c <HAL_TIM_Base_Init+0x5c>
  if (htim->State == HAL_TIM_STATE_RESET)
 8002936:	233d      	movs	r3, #61	; 0x3d
 8002938:	5cc3      	ldrb	r3, [r0, r3]
 800293a:	2b00      	cmp	r3, #0
 800293c:	d020      	beq.n	8002980 <HAL_TIM_Base_Init+0x50>
  htim->State = HAL_TIM_STATE_BUSY;
 800293e:	253d      	movs	r5, #61	; 0x3d
 8002940:	2302      	movs	r3, #2
 8002942:	5563      	strb	r3, [r4, r5]
  TIM_Base_SetConfig(htim->Instance, &htim->Init);
 8002944:	0021      	movs	r1, r4
 8002946:	c901      	ldmia	r1!, {r0}
 8002948:	f7ff ffb0 	bl	80028ac <TIM_Base_SetConfig>
  htim->DMABurstState = HAL_DMA_BURST_STATE_READY;
 800294c:	2301      	movs	r3, #1
 800294e:	2248      	movs	r2, #72	; 0x48
 8002950:	54a3      	strb	r3, [r4, r2]
  TIM_CHANNEL_STATE_SET_ALL(htim, HAL_TIM_CHANNEL_STATE_READY);
 8002952:	3a0a      	subs	r2, #10
 8002954:	54a3      	strb	r3, [r4, r2]
 8002956:	3201      	adds	r2, #1
 8002958:	54a3      	strb	r3, [r4, r2]
 800295a:	3201      	adds	r2, #1
 800295c:	54a3      	strb	r3, [r4, r2]
 800295e:	3201      	adds	r2, #1
 8002960:	54a3      	strb	r3, [r4, r2]
 8002962:	3201      	adds	r2, #1
 8002964:	54a3      	strb	r3, [r4, r2]
 8002966:	3201      	adds	r2, #1
 8002968:	54a3      	strb	r3, [r4, r2]
  TIM_CHANNEL_N_STATE_SET_ALL(htim, HAL_TIM_CHANNEL_STATE_READY);
 800296a:	3201      	adds	r2, #1
 800296c:	54a3      	strb	r3, [r4, r2]
 800296e:	3201      	adds	r2, #1
 8002970:	54a3      	strb	r3, [r4, r2]
 8002972:	3201      	adds	r2, #1
 8002974:	54a3      	strb	r3, [r4, r2]
 8002976:	3201      	adds	r2, #1
 8002978:	54a3      	strb	r3, [r4, r2]
  htim->State = HAL_TIM_STATE_READY;
 800297a:	5563      	strb	r3, [r4, r5]
  return HAL_OK;
 800297c:	2000      	movs	r0, #0
}
 800297e:	bd70      	pop	{r4, r5, r6, pc}
    htim->Lock = HAL_UNLOCKED;
 8002980:	333c      	adds	r3, #60	; 0x3c
 8002982:	2200      	movs	r2, #0
 8002984:	54c2      	strb	r2, [r0, r3]
    HAL_TIM_Base_MspInit(htim);
 8002986:	f7fe f9db 	bl	8000d40 <HAL_TIM_Base_MspInit>
 800298a:	e7d8      	b.n	800293e <HAL_TIM_Base_Init+0xe>
    return HAL_ERROR;
 800298c:	2001      	movs	r0, #1
 800298e:	e7f6      	b.n	800297e <HAL_TIM_Base_Init+0x4e>

08002990 <UART_EndTxTransfer>:
  * @brief  End ongoing Tx transfer on UART peripheral (following error detection or Transmit completion).
  * @param  huart UART handle.
  * @retval None
  */
static void UART_EndTxTransfer(UART_HandleTypeDef *huart)
{
 8002990:	b530      	push	{r4, r5, lr}
  __ASM volatile ("MRS %0, primask" : "=r" (result) :: "memory");
 8002992:	f3ef 8410 	mrs	r4, PRIMASK
  __ASM volatile ("MSR primask, %0" : : "r" (priMask) : "memory");
 8002996:	2201      	movs	r2, #1
 8002998:	f382 8810 	msr	PRIMASK, r2
  /* Disable TXEIE, TCIE, TXFT interrupts */
  ATOMIC_CLEAR_BIT(huart->Instance->CR1, (USART_CR1_TXEIE_TXFNFIE | USART_CR1_TCIE));
 800299c:	6801      	ldr	r1, [r0, #0]
 800299e:	680b      	ldr	r3, [r1, #0]
 80029a0:	25c0      	movs	r5, #192	; 0xc0
 80029a2:	43ab      	bics	r3, r5
 80029a4:	600b      	str	r3, [r1, #0]
 80029a6:	f384 8810 	msr	PRIMASK, r4
  __ASM volatile ("MRS %0, primask" : "=r" (result) :: "memory");
 80029aa:	f3ef 8110 	mrs	r1, PRIMASK
  __ASM volatile ("MSR primask, %0" : : "r" (priMask) : "memory");
 80029ae:	f382 8810 	msr	PRIMASK, r2
  ATOMIC_CLEAR_BIT(huart->Instance->CR3, (USART_CR3_TXFTIE));
 80029b2:	6802      	ldr	r2, [r0, #0]
 80029b4:	6893      	ldr	r3, [r2, #8]
 80029b6:	4c04      	ldr	r4, [pc, #16]	; (80029c8 <UART_EndTxTransfer+0x38>)
 80029b8:	4023      	ands	r3, r4
 80029ba:	6093      	str	r3, [r2, #8]
 80029bc:	f381 8810 	msr	PRIMASK, r1

  /* At end of Tx process, restore huart->gState to Ready */
  huart->gState = HAL_UART_STATE_READY;
 80029c0:	2388      	movs	r3, #136	; 0x88
 80029c2:	2220      	movs	r2, #32
 80029c4:	50c2      	str	r2, [r0, r3]
}
 80029c6:	bd30      	pop	{r4, r5, pc}
 80029c8:	ff7fffff 	.word	0xff7fffff

080029cc <UART_EndRxTransfer>:
  * @brief  End ongoing Rx transfer on UART peripheral (following error detection or Reception completion).
  * @param  huart UART handle.
  * @retval None
  */
static void UART_EndRxTransfer(UART_HandleTypeDef *huart)
{
 80029cc:	b530      	push	{r4, r5, lr}
  __ASM volatile ("MRS %0, primask" : "=r" (result) :: "memory");
 80029ce:	f3ef 8410 	mrs	r4, PRIMASK
  __ASM volatile ("MSR primask, %0" : : "r" (priMask) : "memory");
 80029d2:	2201      	movs	r2, #1
 80029d4:	f382 8810 	msr	PRIMASK, r2
  /* Disable RXNE, PE and ERR (Frame error, noise error, overrun error) interrupts */
  ATOMIC_CLEAR_BIT(huart->Instance->CR1, (USART_CR1_RXNEIE_RXFNEIE | USART_CR1_PEIE));
 80029d8:	6801      	ldr	r1, [r0, #0]
 80029da:	680b      	ldr	r3, [r1, #0]
 80029dc:	4d12      	ldr	r5, [pc, #72]	; (8002a28 <UART_EndRxTransfer+0x5c>)
 80029de:	402b      	ands	r3, r5
 80029e0:	600b      	str	r3, [r1, #0]
 80029e2:	f384 8810 	msr	PRIMASK, r4
  __ASM volatile ("MRS %0, primask" : "=r" (result) :: "memory");
 80029e6:	f3ef 8110 	mrs	r1, PRIMASK
  __ASM volatile ("MSR primask, %0" : : "r" (priMask) : "memory");
 80029ea:	f382 8810 	msr	PRIMASK, r2
  ATOMIC_CLEAR_BIT(huart->Instance->CR3, (USART_CR3_EIE | USART_CR3_RXFTIE));
 80029ee:	6802      	ldr	r2, [r0, #0]
 80029f0:	6893      	ldr	r3, [r2, #8]
 80029f2:	4c0e      	ldr	r4, [pc, #56]	; (8002a2c <UART_EndRxTransfer+0x60>)
 80029f4:	4023      	ands	r3, r4
 80029f6:	6093      	str	r3, [r2, #8]
 80029f8:	f381 8810 	msr	PRIMASK, r1

  /* In case of reception waiting for IDLE event, disable also the IDLE IE interrupt source */
  if (huart->ReceptionType == HAL_UART_RECEPTION_TOIDLE)
 80029fc:	6ec3      	ldr	r3, [r0, #108]	; 0x6c
 80029fe:	2b01      	cmp	r3, #1
 8002a00:	d006      	beq.n	8002a10 <UART_EndRxTransfer+0x44>
  {
    ATOMIC_CLEAR_BIT(huart->Instance->CR1, USART_CR1_IDLEIE);
  }

  /* At end of Rx process, restore huart->RxState to Ready */
  huart->RxState = HAL_UART_STATE_READY;
 8002a02:	238c      	movs	r3, #140	; 0x8c
 8002a04:	2220      	movs	r2, #32
 8002a06:	50c2      	str	r2, [r0, r3]
  huart->ReceptionType = HAL_UART_RECEPTION_STANDARD;
 8002a08:	2300      	movs	r3, #0
 8002a0a:	66c3      	str	r3, [r0, #108]	; 0x6c

  /* Reset RxIsr function pointer */
  huart->RxISR = NULL;
 8002a0c:	6743      	str	r3, [r0, #116]	; 0x74
}
 8002a0e:	bd30      	pop	{r4, r5, pc}
  __ASM volatile ("MRS %0, primask" : "=r" (result) :: "memory");
 8002a10:	f3ef 8110 	mrs	r1, PRIMASK
  __ASM volatile ("MSR primask, %0" : : "r" (priMask) : "memory");
 8002a14:	f383 8810 	msr	PRIMASK, r3
    ATOMIC_CLEAR_BIT(huart->Instance->CR1, USART_CR1_IDLEIE);
 8002a18:	6802      	ldr	r2, [r0, #0]
 8002a1a:	6813      	ldr	r3, [r2, #0]
 8002a1c:	2410      	movs	r4, #16
 8002a1e:	43a3      	bics	r3, r4
 8002a20:	6013      	str	r3, [r2, #0]
 8002a22:	f381 8810 	msr	PRIMASK, r1
}
 8002a26:	e7ec      	b.n	8002a02 <UART_EndRxTransfer+0x36>
 8002a28:	fffffedf 	.word	0xfffffedf
 8002a2c:	effffffe 	.word	0xeffffffe

08002a30 <HAL_UART_TxCpltCallback>:
}
 8002a30:	4770      	bx	lr

08002a32 <UART_EndTransmit_IT>:
  * @param  huart pointer to a UART_HandleTypeDef structure that contains
  *                the configuration information for the specified UART module.
  * @retval None
  */
static void UART_EndTransmit_IT(UART_HandleTypeDef *huart)
{
 8002a32:	b510      	push	{r4, lr}
  __ASM volatile ("MRS %0, primask" : "=r" (result) :: "memory");
 8002a34:	f3ef 8110 	mrs	r1, PRIMASK
  __ASM volatile ("MSR primask, %0" : : "r" (priMask) : "memory");
 8002a38:	2301      	movs	r3, #1
 8002a3a:	f383 8810 	msr	PRIMASK, r3
  /* Disable the UART Transmit Complete Interrupt */
  ATOMIC_CLEAR_BIT(huart->Instance->CR1, USART_CR1_TCIE);
 8002a3e:	6802      	ldr	r2, [r0, #0]
 8002a40:	6813      	ldr	r3, [r2, #0]
 8002a42:	2440      	movs	r4, #64	; 0x40
 8002a44:	43a3      	bics	r3, r4
 8002a46:	6013      	str	r3, [r2, #0]
 8002a48:	f381 8810 	msr	PRIMASK, r1

  /* Tx process is ended, restore huart->gState to Ready */
  huart->gState = HAL_UART_STATE_READY;
 8002a4c:	2388      	movs	r3, #136	; 0x88
 8002a4e:	2220      	movs	r2, #32
 8002a50:	50c2      	str	r2, [r0, r3]

  /* Cleat TxISR function pointer */
  huart->TxISR = NULL;
 8002a52:	2300      	movs	r3, #0
 8002a54:	6783      	str	r3, [r0, #120]	; 0x78
#if (USE_HAL_UART_REGISTER_CALLBACKS == 1)
  /*Call registered Tx complete callback*/
  huart->TxCpltCallback(huart);
#else
  /*Call legacy weak Tx complete callback*/
  HAL_UART_TxCpltCallback(huart);
 8002a56:	f7ff ffeb 	bl	8002a30 <HAL_UART_TxCpltCallback>
#endif /* USE_HAL_UART_REGISTER_CALLBACKS */
}
 8002a5a:	bd10      	pop	{r4, pc}

08002a5c <HAL_UART_RxCpltCallback>:
}
 8002a5c:	4770      	bx	lr

08002a5e <HAL_UART_RxHalfCpltCallback>:
}
 8002a5e:	4770      	bx	lr

08002a60 <HAL_UART_ErrorCallback>:
}
 8002a60:	4770      	bx	lr

08002a62 <UART_DMAError>:
{
 8002a62:	b570      	push	{r4, r5, r6, lr}
  UART_HandleTypeDef *huart = (UART_HandleTypeDef *)(hdma->Parent);
 8002a64:	6a84      	ldr	r4, [r0, #40]	; 0x28
  const HAL_UART_StateTypeDef gstate = huart->gState;
 8002a66:	2388      	movs	r3, #136	; 0x88
 8002a68:	58e2      	ldr	r2, [r4, r3]
  const HAL_UART_StateTypeDef rxstate = huart->RxState;
 8002a6a:	3304      	adds	r3, #4
 8002a6c:	58e5      	ldr	r5, [r4, r3]
  if ((HAL_IS_BIT_SET(huart->Instance->CR3, USART_CR3_DMAT)) &&
 8002a6e:	6823      	ldr	r3, [r4, #0]
 8002a70:	689b      	ldr	r3, [r3, #8]
 8002a72:	061b      	lsls	r3, r3, #24
 8002a74:	d501      	bpl.n	8002a7a <UART_DMAError+0x18>
 8002a76:	2a21      	cmp	r2, #33	; 0x21
 8002a78:	d00e      	beq.n	8002a98 <UART_DMAError+0x36>
  if ((HAL_IS_BIT_SET(huart->Instance->CR3, USART_CR3_DMAR)) &&
 8002a7a:	6823      	ldr	r3, [r4, #0]
 8002a7c:	689b      	ldr	r3, [r3, #8]
 8002a7e:	065b      	lsls	r3, r3, #25
 8002a80:	d501      	bpl.n	8002a86 <UART_DMAError+0x24>
 8002a82:	2d22      	cmp	r5, #34	; 0x22
 8002a84:	d00f      	beq.n	8002aa6 <UART_DMAError+0x44>
  huart->ErrorCode |= HAL_UART_ERROR_DMA;
 8002a86:	2290      	movs	r2, #144	; 0x90
 8002a88:	58a3      	ldr	r3, [r4, r2]
 8002a8a:	2110      	movs	r1, #16
 8002a8c:	430b      	orrs	r3, r1
 8002a8e:	50a3      	str	r3, [r4, r2]
  HAL_UART_ErrorCallback(huart);
 8002a90:	0020      	movs	r0, r4
 8002a92:	f7ff ffe5 	bl	8002a60 <HAL_UART_ErrorCallback>
}
 8002a96:	bd70      	pop	{r4, r5, r6, pc}
    huart->TxXferCount = 0U;
 8002a98:	2356      	movs	r3, #86	; 0x56
 8002a9a:	2200      	movs	r2, #0
 8002a9c:	52e2      	strh	r2, [r4, r3]
    UART_EndTxTransfer(huart);
 8002a9e:	0020      	movs	r0, r4
 8002aa0:	f7ff ff76 	bl	8002990 <UART_EndTxTransfer>
 8002aa4:	e7e9      	b.n	8002a7a <UART_DMAError+0x18>
    huart->RxXferCount = 0U;
 8002aa6:	235e      	movs	r3, #94	; 0x5e
 8002aa8:	2200      	movs	r2, #0
 8002aaa:	52e2      	strh	r2, [r4, r3]
    UART_EndRxTransfer(huart);
 8002aac:	0020      	movs	r0, r4
 8002aae:	f7ff ff8d 	bl	80029cc <UART_EndRxTransfer>
 8002ab2:	e7e8      	b.n	8002a86 <UART_DMAError+0x24>

08002ab4 <UART_DMAAbortOnError>:
{
 8002ab4:	b510      	push	{r4, lr}
  UART_HandleTypeDef *huart = (UART_HandleTypeDef *)(hdma->Parent);
 8002ab6:	6a80      	ldr	r0, [r0, #40]	; 0x28
  huart->RxXferCount = 0U;
 8002ab8:	2300      	movs	r3, #0
 8002aba:	225e      	movs	r2, #94	; 0x5e
 8002abc:	5283      	strh	r3, [r0, r2]
  huart->TxXferCount = 0U;
 8002abe:	3a08      	subs	r2, #8
 8002ac0:	5283      	strh	r3, [r0, r2]
  HAL_UART_ErrorCallback(huart);
 8002ac2:	f7ff ffcd 	bl	8002a60 <HAL_UART_ErrorCallback>
}
 8002ac6:	bd10      	pop	{r4, pc}

08002ac8 <HAL_UART_IRQHandler>:
{
 8002ac8:	b5f8      	push	{r3, r4, r5, r6, r7, lr}
 8002aca:	0004      	movs	r4, r0
  uint32_t isrflags   = READ_REG(huart->Instance->ISR);
 8002acc:	6802      	ldr	r2, [r0, #0]
 8002ace:	69d3      	ldr	r3, [r2, #28]
  uint32_t cr1its     = READ_REG(huart->Instance->CR1);
 8002ad0:	6810      	ldr	r0, [r2, #0]
  uint32_t cr3its     = READ_REG(huart->Instance->CR3);
 8002ad2:	6895      	ldr	r5, [r2, #8]
  errorflags = (isrflags & (uint32_t)(USART_ISR_PE | USART_ISR_FE | USART_ISR_ORE | USART_ISR_NE | USART_ISR_RTOF));
 8002ad4:	49bd      	ldr	r1, [pc, #756]	; (8002dcc <HAL_UART_IRQHandler+0x304>)
 8002ad6:	001e      	movs	r6, r3
 8002ad8:	400e      	ands	r6, r1
  if (errorflags == 0U)
 8002ada:	420b      	tst	r3, r1
 8002adc:	d105      	bne.n	8002aea <HAL_UART_IRQHandler+0x22>
    if (((isrflags & USART_ISR_RXNE_RXFNE) != 0U)
 8002ade:	0699      	lsls	r1, r3, #26
 8002ae0:	d503      	bpl.n	8002aea <HAL_UART_IRQHandler+0x22>
        && (((cr1its & USART_CR1_RXNEIE_RXFNEIE) != 0U)
 8002ae2:	0681      	lsls	r1, r0, #26
 8002ae4:	d42c      	bmi.n	8002b40 <HAL_UART_IRQHandler+0x78>
            || ((cr3its & USART_CR3_RXFTIE) != 0U)))
 8002ae6:	00e9      	lsls	r1, r5, #3
 8002ae8:	d42a      	bmi.n	8002b40 <HAL_UART_IRQHandler+0x78>
  if ((errorflags != 0U)
 8002aea:	2e00      	cmp	r6, #0
 8002aec:	d007      	beq.n	8002afe <HAL_UART_IRQHandler+0x36>
      && ((((cr3its & (USART_CR3_RXFTIE | USART_CR3_EIE)) != 0U)
 8002aee:	49b8      	ldr	r1, [pc, #736]	; (8002dd0 <HAL_UART_IRQHandler+0x308>)
 8002af0:	002e      	movs	r6, r5
 8002af2:	400e      	ands	r6, r1
 8002af4:	420d      	tst	r5, r1
 8002af6:	d129      	bne.n	8002b4c <HAL_UART_IRQHandler+0x84>
           || ((cr1its & (USART_CR1_RXNEIE_RXFNEIE | USART_CR1_PEIE | USART_CR1_RTOIE)) != 0U))))
 8002af8:	49b6      	ldr	r1, [pc, #728]	; (8002dd4 <HAL_UART_IRQHandler+0x30c>)
 8002afa:	4208      	tst	r0, r1
 8002afc:	d126      	bne.n	8002b4c <HAL_UART_IRQHandler+0x84>
  if ((huart->ReceptionType == HAL_UART_RECEPTION_TOIDLE)
 8002afe:	6ee1      	ldr	r1, [r4, #108]	; 0x6c
 8002b00:	2901      	cmp	r1, #1
 8002b02:	d100      	bne.n	8002b06 <HAL_UART_IRQHandler+0x3e>
 8002b04:	e0aa      	b.n	8002c5c <HAL_UART_IRQHandler+0x194>
  if (((isrflags & USART_ISR_WUF) != 0U) && ((cr3its & USART_CR3_WUFIE) != 0U))
 8002b06:	02d9      	lsls	r1, r3, #11
 8002b08:	d502      	bpl.n	8002b10 <HAL_UART_IRQHandler+0x48>
 8002b0a:	0269      	lsls	r1, r5, #9
 8002b0c:	d500      	bpl.n	8002b10 <HAL_UART_IRQHandler+0x48>
 8002b0e:	e143      	b.n	8002d98 <HAL_UART_IRQHandler+0x2d0>
  if (((isrflags & USART_ISR_TXE_TXFNF) != 0U)
 8002b10:	061a      	lsls	r2, r3, #24
 8002b12:	d505      	bpl.n	8002b20 <HAL_UART_IRQHandler+0x58>
      && (((cr1its & USART_CR1_TXEIE_TXFNFIE) != 0U)
 8002b14:	0602      	lsls	r2, r0, #24
 8002b16:	d500      	bpl.n	8002b1a <HAL_UART_IRQHandler+0x52>
 8002b18:	e145      	b.n	8002da6 <HAL_UART_IRQHandler+0x2de>
          || ((cr3its & USART_CR3_TXFTIE) != 0U)))
 8002b1a:	022a      	lsls	r2, r5, #8
 8002b1c:	d500      	bpl.n	8002b20 <HAL_UART_IRQHandler+0x58>
 8002b1e:	e142      	b.n	8002da6 <HAL_UART_IRQHandler+0x2de>
  if (((isrflags & USART_ISR_TC) != 0U) && ((cr1its & USART_CR1_TCIE) != 0U))
 8002b20:	065a      	lsls	r2, r3, #25
 8002b22:	d502      	bpl.n	8002b2a <HAL_UART_IRQHandler+0x62>
 8002b24:	0642      	lsls	r2, r0, #25
 8002b26:	d500      	bpl.n	8002b2a <HAL_UART_IRQHandler+0x62>
 8002b28:	e144      	b.n	8002db4 <HAL_UART_IRQHandler+0x2ec>
  if (((isrflags & USART_ISR_TXFE) != 0U) && ((cr1its & USART_CR1_TXFEIE) != 0U))
 8002b2a:	021a      	lsls	r2, r3, #8
 8002b2c:	d502      	bpl.n	8002b34 <HAL_UART_IRQHandler+0x6c>
 8002b2e:	0042      	lsls	r2, r0, #1
 8002b30:	d500      	bpl.n	8002b34 <HAL_UART_IRQHandler+0x6c>
 8002b32:	e143      	b.n	8002dbc <HAL_UART_IRQHandler+0x2f4>
  if (((isrflags & USART_ISR_RXFF) != 0U) && ((cr1its & USART_CR1_RXFFIE) != 0U))
 8002b34:	01db      	lsls	r3, r3, #7
 8002b36:	d502      	bpl.n	8002b3e <HAL_UART_IRQHandler+0x76>
 8002b38:	2800      	cmp	r0, #0
 8002b3a:	da00      	bge.n	8002b3e <HAL_UART_IRQHandler+0x76>
 8002b3c:	e142      	b.n	8002dc4 <HAL_UART_IRQHandler+0x2fc>
}
 8002b3e:	bdf8      	pop	{r3, r4, r5, r6, r7, pc}
      if (huart->RxISR != NULL)
 8002b40:	6f63      	ldr	r3, [r4, #116]	; 0x74
 8002b42:	2b00      	cmp	r3, #0
 8002b44:	d0fb      	beq.n	8002b3e <HAL_UART_IRQHandler+0x76>
        huart->RxISR(huart);
 8002b46:	0020      	movs	r0, r4
 8002b48:	4798      	blx	r3
      return;
 8002b4a:	e7f8      	b.n	8002b3e <HAL_UART_IRQHandler+0x76>
    if (((isrflags & USART_ISR_PE) != 0U) && ((cr1its & USART_CR1_PEIE) != 0U))
 8002b4c:	07d9      	lsls	r1, r3, #31
 8002b4e:	d507      	bpl.n	8002b60 <HAL_UART_IRQHandler+0x98>
 8002b50:	05c1      	lsls	r1, r0, #23
 8002b52:	d505      	bpl.n	8002b60 <HAL_UART_IRQHandler+0x98>
      __HAL_UART_CLEAR_FLAG(huart, UART_CLEAR_PEF);
 8002b54:	2701      	movs	r7, #1
 8002b56:	6217      	str	r7, [r2, #32]
      huart->ErrorCode |= HAL_UART_ERROR_PE;
 8002b58:	2190      	movs	r1, #144	; 0x90
 8002b5a:	5862      	ldr	r2, [r4, r1]
 8002b5c:	433a      	orrs	r2, r7
 8002b5e:	5062      	str	r2, [r4, r1]
    if (((isrflags & USART_ISR_FE) != 0U) && ((cr3its & USART_CR3_EIE) != 0U))
 8002b60:	079a      	lsls	r2, r3, #30
 8002b62:	d509      	bpl.n	8002b78 <HAL_UART_IRQHandler+0xb0>
 8002b64:	07ea      	lsls	r2, r5, #31
 8002b66:	d507      	bpl.n	8002b78 <HAL_UART_IRQHandler+0xb0>
      __HAL_UART_CLEAR_FLAG(huart, UART_CLEAR_FEF);
 8002b68:	6822      	ldr	r2, [r4, #0]
 8002b6a:	2102      	movs	r1, #2
 8002b6c:	6211      	str	r1, [r2, #32]
      huart->ErrorCode |= HAL_UART_ERROR_FE;
 8002b6e:	318e      	adds	r1, #142	; 0x8e
 8002b70:	5862      	ldr	r2, [r4, r1]
 8002b72:	2704      	movs	r7, #4
 8002b74:	433a      	orrs	r2, r7
 8002b76:	5062      	str	r2, [r4, r1]
    if (((isrflags & USART_ISR_NE) != 0U) && ((cr3its & USART_CR3_EIE) != 0U))
 8002b78:	075a      	lsls	r2, r3, #29
 8002b7a:	d509      	bpl.n	8002b90 <HAL_UART_IRQHandler+0xc8>
 8002b7c:	07ea      	lsls	r2, r5, #31
 8002b7e:	d507      	bpl.n	8002b90 <HAL_UART_IRQHandler+0xc8>
      __HAL_UART_CLEAR_FLAG(huart, UART_CLEAR_NEF);
 8002b80:	6822      	ldr	r2, [r4, #0]
 8002b82:	2104      	movs	r1, #4
 8002b84:	6211      	str	r1, [r2, #32]
      huart->ErrorCode |= HAL_UART_ERROR_NE;
 8002b86:	318c      	adds	r1, #140	; 0x8c
 8002b88:	5862      	ldr	r2, [r4, r1]
 8002b8a:	2702      	movs	r7, #2
 8002b8c:	433a      	orrs	r2, r7
 8002b8e:	5062      	str	r2, [r4, r1]
    if (((isrflags & USART_ISR_ORE) != 0U)
 8002b90:	071a      	lsls	r2, r3, #28
 8002b92:	d50a      	bpl.n	8002baa <HAL_UART_IRQHandler+0xe2>
        && (((cr1its & USART_CR1_RXNEIE_RXFNEIE) != 0U) ||
 8002b94:	0682      	lsls	r2, r0, #26
 8002b96:	d401      	bmi.n	8002b9c <HAL_UART_IRQHandler+0xd4>
 8002b98:	2e00      	cmp	r6, #0
 8002b9a:	d006      	beq.n	8002baa <HAL_UART_IRQHandler+0xe2>
      __HAL_UART_CLEAR_FLAG(huart, UART_CLEAR_OREF);
 8002b9c:	6822      	ldr	r2, [r4, #0]
 8002b9e:	2608      	movs	r6, #8
 8002ba0:	6216      	str	r6, [r2, #32]
      huart->ErrorCode |= HAL_UART_ERROR_ORE;
 8002ba2:	2190      	movs	r1, #144	; 0x90
 8002ba4:	5862      	ldr	r2, [r4, r1]
 8002ba6:	4332      	orrs	r2, r6
 8002ba8:	5062      	str	r2, [r4, r1]
    if (((isrflags & USART_ISR_RTOF) != 0U) && ((cr1its & USART_CR1_RTOIE) != 0U))
 8002baa:	051a      	lsls	r2, r3, #20
 8002bac:	d50a      	bpl.n	8002bc4 <HAL_UART_IRQHandler+0xfc>
 8002bae:	0142      	lsls	r2, r0, #5
 8002bb0:	d508      	bpl.n	8002bc4 <HAL_UART_IRQHandler+0xfc>
      __HAL_UART_CLEAR_FLAG(huart, UART_CLEAR_RTOF);
 8002bb2:	6822      	ldr	r2, [r4, #0]
 8002bb4:	2180      	movs	r1, #128	; 0x80
 8002bb6:	0109      	lsls	r1, r1, #4
 8002bb8:	6211      	str	r1, [r2, #32]
      huart->ErrorCode |= HAL_UART_ERROR_RTO;
 8002bba:	2190      	movs	r1, #144	; 0x90
 8002bbc:	5862      	ldr	r2, [r4, r1]
 8002bbe:	2620      	movs	r6, #32
 8002bc0:	4332      	orrs	r2, r6
 8002bc2:	5062      	str	r2, [r4, r1]
    if (huart->ErrorCode != HAL_UART_ERROR_NONE)
 8002bc4:	2290      	movs	r2, #144	; 0x90
 8002bc6:	58a2      	ldr	r2, [r4, r2]
 8002bc8:	2a00      	cmp	r2, #0
 8002bca:	d0b8      	beq.n	8002b3e <HAL_UART_IRQHandler+0x76>
      if (((isrflags & USART_ISR_RXNE_RXFNE) != 0U)
 8002bcc:	069b      	lsls	r3, r3, #26
 8002bce:	d508      	bpl.n	8002be2 <HAL_UART_IRQHandler+0x11a>
          && (((cr1its & USART_CR1_RXNEIE_RXFNEIE) != 0U)
 8002bd0:	0683      	lsls	r3, r0, #26
 8002bd2:	d401      	bmi.n	8002bd8 <HAL_UART_IRQHandler+0x110>
              || ((cr3its & USART_CR3_RXFTIE) != 0U)))
 8002bd4:	00eb      	lsls	r3, r5, #3
 8002bd6:	d504      	bpl.n	8002be2 <HAL_UART_IRQHandler+0x11a>
        if (huart->RxISR != NULL)
 8002bd8:	6f63      	ldr	r3, [r4, #116]	; 0x74
 8002bda:	2b00      	cmp	r3, #0
 8002bdc:	d001      	beq.n	8002be2 <HAL_UART_IRQHandler+0x11a>
          huart->RxISR(huart);
 8002bde:	0020      	movs	r0, r4
 8002be0:	4798      	blx	r3
      errorcode = huart->ErrorCode;
 8002be2:	2390      	movs	r3, #144	; 0x90
 8002be4:	58e2      	ldr	r2, [r4, r3]
      if ((HAL_IS_BIT_SET(huart->Instance->CR3, USART_CR3_DMAR)) ||
 8002be6:	6823      	ldr	r3, [r4, #0]
 8002be8:	689b      	ldr	r3, [r3, #8]
 8002bea:	065b      	lsls	r3, r3, #25
 8002bec:	d402      	bmi.n	8002bf4 <HAL_UART_IRQHandler+0x12c>
          ((errorcode & (HAL_UART_ERROR_RTO | HAL_UART_ERROR_ORE)) != 0U))
 8002bee:	2328      	movs	r3, #40	; 0x28
      if ((HAL_IS_BIT_SET(huart->Instance->CR3, USART_CR3_DMAR)) ||
 8002bf0:	4213      	tst	r3, r2
 8002bf2:	d02c      	beq.n	8002c4e <HAL_UART_IRQHandler+0x186>
        UART_EndRxTransfer(huart);
 8002bf4:	0020      	movs	r0, r4
 8002bf6:	f7ff fee9 	bl	80029cc <UART_EndRxTransfer>
        if (HAL_IS_BIT_SET(huart->Instance->CR3, USART_CR3_DMAR))
 8002bfa:	6823      	ldr	r3, [r4, #0]
 8002bfc:	689b      	ldr	r3, [r3, #8]
 8002bfe:	065b      	lsls	r3, r3, #25
 8002c00:	d521      	bpl.n	8002c46 <HAL_UART_IRQHandler+0x17e>
  __ASM volatile ("MRS %0, primask" : "=r" (result) :: "memory");
 8002c02:	f3ef 8110 	mrs	r1, PRIMASK
  __ASM volatile ("MSR primask, %0" : : "r" (priMask) : "memory");
 8002c06:	2301      	movs	r3, #1
 8002c08:	f383 8810 	msr	PRIMASK, r3
          ATOMIC_CLEAR_BIT(huart->Instance->CR3, USART_CR3_DMAR);
 8002c0c:	6822      	ldr	r2, [r4, #0]
 8002c0e:	6893      	ldr	r3, [r2, #8]
 8002c10:	2040      	movs	r0, #64	; 0x40
 8002c12:	4383      	bics	r3, r0
 8002c14:	6093      	str	r3, [r2, #8]
 8002c16:	f381 8810 	msr	PRIMASK, r1
          if (huart->hdmarx != NULL)
 8002c1a:	2380      	movs	r3, #128	; 0x80
 8002c1c:	58e3      	ldr	r3, [r4, r3]
 8002c1e:	2b00      	cmp	r3, #0
 8002c20:	d00d      	beq.n	8002c3e <HAL_UART_IRQHandler+0x176>
            huart->hdmarx->XferAbortCallback = UART_DMAAbortOnError;
 8002c22:	4a6d      	ldr	r2, [pc, #436]	; (8002dd8 <HAL_UART_IRQHandler+0x310>)
 8002c24:	639a      	str	r2, [r3, #56]	; 0x38
            if (HAL_DMA_Abort_IT(huart->hdmarx) != HAL_OK)
 8002c26:	2380      	movs	r3, #128	; 0x80
 8002c28:	58e0      	ldr	r0, [r4, r3]
 8002c2a:	f7fe fb75 	bl	8001318 <HAL_DMA_Abort_IT>
 8002c2e:	2800      	cmp	r0, #0
 8002c30:	d100      	bne.n	8002c34 <HAL_UART_IRQHandler+0x16c>
 8002c32:	e784      	b.n	8002b3e <HAL_UART_IRQHandler+0x76>
              huart->hdmarx->XferAbortCallback(huart->hdmarx);
 8002c34:	2380      	movs	r3, #128	; 0x80
 8002c36:	58e0      	ldr	r0, [r4, r3]
 8002c38:	6b83      	ldr	r3, [r0, #56]	; 0x38
 8002c3a:	4798      	blx	r3
 8002c3c:	e77f      	b.n	8002b3e <HAL_UART_IRQHandler+0x76>
            HAL_UART_ErrorCallback(huart);
 8002c3e:	0020      	movs	r0, r4
 8002c40:	f7ff ff0e 	bl	8002a60 <HAL_UART_ErrorCallback>
 8002c44:	e77b      	b.n	8002b3e <HAL_UART_IRQHandler+0x76>
          HAL_UART_ErrorCallback(huart);
 8002c46:	0020      	movs	r0, r4
 8002c48:	f7ff ff0a 	bl	8002a60 <HAL_UART_ErrorCallback>
 8002c4c:	e777      	b.n	8002b3e <HAL_UART_IRQHandler+0x76>
        HAL_UART_ErrorCallback(huart);
 8002c4e:	0020      	movs	r0, r4
 8002c50:	f7ff ff06 	bl	8002a60 <HAL_UART_ErrorCallback>
        huart->ErrorCode = HAL_UART_ERROR_NONE;
 8002c54:	2390      	movs	r3, #144	; 0x90
 8002c56:	2200      	movs	r2, #0
 8002c58:	50e2      	str	r2, [r4, r3]
    return;
 8002c5a:	e770      	b.n	8002b3e <HAL_UART_IRQHandler+0x76>
      && ((isrflags & USART_ISR_IDLE) != 0U)
 8002c5c:	06d9      	lsls	r1, r3, #27
 8002c5e:	d400      	bmi.n	8002c62 <HAL_UART_IRQHandler+0x19a>
 8002c60:	e751      	b.n	8002b06 <HAL_UART_IRQHandler+0x3e>
      && ((cr1its & USART_ISR_IDLE) != 0U))
 8002c62:	06c1      	lsls	r1, r0, #27
 8002c64:	d400      	bmi.n	8002c68 <HAL_UART_IRQHandler+0x1a0>
 8002c66:	e74e      	b.n	8002b06 <HAL_UART_IRQHandler+0x3e>
    __HAL_UART_CLEAR_FLAG(huart, UART_CLEAR_IDLEF);
 8002c68:	2310      	movs	r3, #16
 8002c6a:	6213      	str	r3, [r2, #32]
    if (HAL_IS_BIT_SET(huart->Instance->CR3, USART_CR3_DMAR))
 8002c6c:	6823      	ldr	r3, [r4, #0]
 8002c6e:	689b      	ldr	r3, [r3, #8]
 8002c70:	065b      	lsls	r3, r3, #25
 8002c72:	d555      	bpl.n	8002d20 <HAL_UART_IRQHandler+0x258>
      uint16_t nb_remaining_rx_data = (uint16_t) __HAL_DMA_GET_COUNTER(huart->hdmarx);
 8002c74:	2380      	movs	r3, #128	; 0x80
 8002c76:	58e2      	ldr	r2, [r4, r3]
 8002c78:	6813      	ldr	r3, [r2, #0]
 8002c7a:	685b      	ldr	r3, [r3, #4]
 8002c7c:	b29b      	uxth	r3, r3
      if ((nb_remaining_rx_data > 0U)
 8002c7e:	2b00      	cmp	r3, #0
 8002c80:	d100      	bne.n	8002c84 <HAL_UART_IRQHandler+0x1bc>
 8002c82:	e75c      	b.n	8002b3e <HAL_UART_IRQHandler+0x76>
          && (nb_remaining_rx_data < huart->RxXferSize))
 8002c84:	215c      	movs	r1, #92	; 0x5c
 8002c86:	5a61      	ldrh	r1, [r4, r1]
 8002c88:	4299      	cmp	r1, r3
 8002c8a:	d800      	bhi.n	8002c8e <HAL_UART_IRQHandler+0x1c6>
 8002c8c:	e757      	b.n	8002b3e <HAL_UART_IRQHandler+0x76>
        huart->RxXferCount = nb_remaining_rx_data;
 8002c8e:	215e      	movs	r1, #94	; 0x5e
 8002c90:	5263      	strh	r3, [r4, r1]
        if (HAL_IS_BIT_CLR(huart->hdmarx->Instance->CCR, DMA_CCR_CIRC))
 8002c92:	6813      	ldr	r3, [r2, #0]
 8002c94:	681b      	ldr	r3, [r3, #0]
 8002c96:	069b      	lsls	r3, r3, #26
 8002c98:	d50b      	bpl.n	8002cb2 <HAL_UART_IRQHandler+0x1ea>
        huart->RxEventType = HAL_UART_RXEVENT_IDLE;
 8002c9a:	2302      	movs	r3, #2
 8002c9c:	6723      	str	r3, [r4, #112]	; 0x70
        HAL_UARTEx_RxEventCallback(huart, (huart->RxXferSize - huart->RxXferCount));
 8002c9e:	335a      	adds	r3, #90	; 0x5a
 8002ca0:	5ae1      	ldrh	r1, [r4, r3]
 8002ca2:	3302      	adds	r3, #2
 8002ca4:	5ae3      	ldrh	r3, [r4, r3]
 8002ca6:	1ac9      	subs	r1, r1, r3
 8002ca8:	b289      	uxth	r1, r1
 8002caa:	0020      	movs	r0, r4
 8002cac:	f7fd fdc6 	bl	800083c <HAL_UARTEx_RxEventCallback>
      return;
 8002cb0:	e745      	b.n	8002b3e <HAL_UART_IRQHandler+0x76>
  __ASM volatile ("MRS %0, primask" : "=r" (result) :: "memory");
 8002cb2:	f3ef 8010 	mrs	r0, PRIMASK
  __ASM volatile ("MSR primask, %0" : : "r" (priMask) : "memory");
 8002cb6:	2301      	movs	r3, #1
 8002cb8:	f383 8810 	msr	PRIMASK, r3
          ATOMIC_CLEAR_BIT(huart->Instance->CR1, USART_CR1_PEIE);
 8002cbc:	6821      	ldr	r1, [r4, #0]
 8002cbe:	680a      	ldr	r2, [r1, #0]
 8002cc0:	4d46      	ldr	r5, [pc, #280]	; (8002ddc <HAL_UART_IRQHandler+0x314>)
 8002cc2:	402a      	ands	r2, r5
 8002cc4:	600a      	str	r2, [r1, #0]
 8002cc6:	f380 8810 	msr	PRIMASK, r0
  __ASM volatile ("MRS %0, primask" : "=r" (result) :: "memory");
 8002cca:	f3ef 8010 	mrs	r0, PRIMASK
  __ASM volatile ("MSR primask, %0" : : "r" (priMask) : "memory");
 8002cce:	f383 8810 	msr	PRIMASK, r3
          ATOMIC_CLEAR_BIT(huart->Instance->CR3, USART_CR3_EIE);
 8002cd2:	6821      	ldr	r1, [r4, #0]
 8002cd4:	688a      	ldr	r2, [r1, #8]
 8002cd6:	439a      	bics	r2, r3
 8002cd8:	608a      	str	r2, [r1, #8]
 8002cda:	f380 8810 	msr	PRIMASK, r0
  __ASM volatile ("MRS %0, primask" : "=r" (result) :: "memory");
 8002cde:	f3ef 8010 	mrs	r0, PRIMASK
  __ASM volatile ("MSR primask, %0" : : "r" (priMask) : "memory");
 8002ce2:	f383 8810 	msr	PRIMASK, r3
          ATOMIC_CLEAR_BIT(huart->Instance->CR3, USART_CR3_DMAR);
 8002ce6:	6821      	ldr	r1, [r4, #0]
 8002ce8:	688a      	ldr	r2, [r1, #8]
 8002cea:	3542      	adds	r5, #66	; 0x42
 8002cec:	35ff      	adds	r5, #255	; 0xff
 8002cee:	43aa      	bics	r2, r5
 8002cf0:	608a      	str	r2, [r1, #8]
 8002cf2:	f380 8810 	msr	PRIMASK, r0
          huart->RxState = HAL_UART_STATE_READY;
 8002cf6:	228c      	movs	r2, #140	; 0x8c
 8002cf8:	2120      	movs	r1, #32
 8002cfa:	50a1      	str	r1, [r4, r2]
          huart->ReceptionType = HAL_UART_RECEPTION_STANDARD;
 8002cfc:	2200      	movs	r2, #0
 8002cfe:	66e2      	str	r2, [r4, #108]	; 0x6c
  __ASM volatile ("MRS %0, primask" : "=r" (result) :: "memory");
 8002d00:	f3ef 8110 	mrs	r1, PRIMASK
  __ASM volatile ("MSR primask, %0" : : "r" (priMask) : "memory");
 8002d04:	f383 8810 	msr	PRIMASK, r3
          ATOMIC_CLEAR_BIT(huart->Instance->CR1, USART_CR1_IDLEIE);
 8002d08:	6822      	ldr	r2, [r4, #0]
 8002d0a:	6813      	ldr	r3, [r2, #0]
 8002d0c:	2010      	movs	r0, #16
 8002d0e:	4383      	bics	r3, r0
 8002d10:	6013      	str	r3, [r2, #0]
 8002d12:	f381 8810 	msr	PRIMASK, r1
          (void)HAL_DMA_Abort(huart->hdmarx);
 8002d16:	2380      	movs	r3, #128	; 0x80
 8002d18:	58e0      	ldr	r0, [r4, r3]
 8002d1a:	f7fe fabd 	bl	8001298 <HAL_DMA_Abort>
 8002d1e:	e7bc      	b.n	8002c9a <HAL_UART_IRQHandler+0x1d2>
      uint16_t nb_rx_data = huart->RxXferSize - huart->RxXferCount;
 8002d20:	235c      	movs	r3, #92	; 0x5c
 8002d22:	5ae1      	ldrh	r1, [r4, r3]
 8002d24:	3302      	adds	r3, #2
 8002d26:	5ae2      	ldrh	r2, [r4, r3]
 8002d28:	1a89      	subs	r1, r1, r2
 8002d2a:	b289      	uxth	r1, r1
      if ((huart->RxXferCount > 0U)
 8002d2c:	5ae3      	ldrh	r3, [r4, r3]
 8002d2e:	b29b      	uxth	r3, r3
 8002d30:	2b00      	cmp	r3, #0
 8002d32:	d100      	bne.n	8002d36 <HAL_UART_IRQHandler+0x26e>
 8002d34:	e703      	b.n	8002b3e <HAL_UART_IRQHandler+0x76>
          && (nb_rx_data > 0U))
 8002d36:	2900      	cmp	r1, #0
 8002d38:	d100      	bne.n	8002d3c <HAL_UART_IRQHandler+0x274>
 8002d3a:	e700      	b.n	8002b3e <HAL_UART_IRQHandler+0x76>
  __ASM volatile ("MRS %0, primask" : "=r" (result) :: "memory");
 8002d3c:	f3ef 8510 	mrs	r5, PRIMASK
  __ASM volatile ("MSR primask, %0" : : "r" (priMask) : "memory");
 8002d40:	2301      	movs	r3, #1
 8002d42:	f383 8810 	msr	PRIMASK, r3
        ATOMIC_CLEAR_BIT(huart->Instance->CR1, (USART_CR1_RXNEIE_RXFNEIE | USART_CR1_PEIE));
 8002d46:	6820      	ldr	r0, [r4, #0]
 8002d48:	6802      	ldr	r2, [r0, #0]
 8002d4a:	4e25      	ldr	r6, [pc, #148]	; (8002de0 <HAL_UART_IRQHandler+0x318>)
 8002d4c:	4032      	ands	r2, r6
 8002d4e:	6002      	str	r2, [r0, #0]
 8002d50:	f385 8810 	msr	PRIMASK, r5
  __ASM volatile ("MRS %0, primask" : "=r" (result) :: "memory");
 8002d54:	f3ef 8510 	mrs	r5, PRIMASK
  __ASM volatile ("MSR primask, %0" : : "r" (priMask) : "memory");
 8002d58:	f383 8810 	msr	PRIMASK, r3
        ATOMIC_CLEAR_BIT(huart->Instance->CR3, (USART_CR3_EIE | USART_CR3_RXFTIE));
 8002d5c:	6820      	ldr	r0, [r4, #0]
 8002d5e:	6882      	ldr	r2, [r0, #8]
 8002d60:	4e20      	ldr	r6, [pc, #128]	; (8002de4 <HAL_UART_IRQHandler+0x31c>)
 8002d62:	4032      	ands	r2, r6
 8002d64:	6082      	str	r2, [r0, #8]
 8002d66:	f385 8810 	msr	PRIMASK, r5
        huart->RxState = HAL_UART_STATE_READY;
 8002d6a:	228c      	movs	r2, #140	; 0x8c
 8002d6c:	2020      	movs	r0, #32
 8002d6e:	50a0      	str	r0, [r4, r2]
        huart->ReceptionType = HAL_UART_RECEPTION_STANDARD;
 8002d70:	2200      	movs	r2, #0
 8002d72:	66e2      	str	r2, [r4, #108]	; 0x6c
        huart->RxISR = NULL;
 8002d74:	6762      	str	r2, [r4, #116]	; 0x74
  __ASM volatile ("MRS %0, primask" : "=r" (result) :: "memory");
 8002d76:	f3ef 8010 	mrs	r0, PRIMASK
  __ASM volatile ("MSR primask, %0" : : "r" (priMask) : "memory");
 8002d7a:	f383 8810 	msr	PRIMASK, r3
        ATOMIC_CLEAR_BIT(huart->Instance->CR1, USART_CR1_IDLEIE);
 8002d7e:	6822      	ldr	r2, [r4, #0]
 8002d80:	6813      	ldr	r3, [r2, #0]
 8002d82:	2510      	movs	r5, #16
 8002d84:	43ab      	bics	r3, r5
 8002d86:	6013      	str	r3, [r2, #0]
 8002d88:	f380 8810 	msr	PRIMASK, r0
        huart->RxEventType = HAL_UART_RXEVENT_IDLE;
 8002d8c:	2302      	movs	r3, #2
 8002d8e:	6723      	str	r3, [r4, #112]	; 0x70
        HAL_UARTEx_RxEventCallback(huart, nb_rx_data);
 8002d90:	0020      	movs	r0, r4
 8002d92:	f7fd fd53 	bl	800083c <HAL_UARTEx_RxEventCallback>
      return;
 8002d96:	e6d2      	b.n	8002b3e <HAL_UART_IRQHandler+0x76>
    __HAL_UART_CLEAR_FLAG(huart, UART_CLEAR_WUF);
 8002d98:	2380      	movs	r3, #128	; 0x80
 8002d9a:	035b      	lsls	r3, r3, #13
 8002d9c:	6213      	str	r3, [r2, #32]
    HAL_UARTEx_WakeupCallback(huart);
 8002d9e:	0020      	movs	r0, r4
 8002da0:	f000 fba2 	bl	80034e8 <HAL_UARTEx_WakeupCallback>
    return;
 8002da4:	e6cb      	b.n	8002b3e <HAL_UART_IRQHandler+0x76>
    if (huart->TxISR != NULL)
 8002da6:	6fa3      	ldr	r3, [r4, #120]	; 0x78
 8002da8:	2b00      	cmp	r3, #0
 8002daa:	d100      	bne.n	8002dae <HAL_UART_IRQHandler+0x2e6>
 8002dac:	e6c7      	b.n	8002b3e <HAL_UART_IRQHandler+0x76>
      huart->TxISR(huart);
 8002dae:	0020      	movs	r0, r4
 8002db0:	4798      	blx	r3
    return;
 8002db2:	e6c4      	b.n	8002b3e <HAL_UART_IRQHandler+0x76>
    UART_EndTransmit_IT(huart);
 8002db4:	0020      	movs	r0, r4
 8002db6:	f7ff fe3c 	bl	8002a32 <UART_EndTransmit_IT>
    return;
 8002dba:	e6c0      	b.n	8002b3e <HAL_UART_IRQHandler+0x76>
    HAL_UARTEx_TxFifoEmptyCallback(huart);
 8002dbc:	0020      	movs	r0, r4
 8002dbe:	f000 fb95 	bl	80034ec <HAL_UARTEx_TxFifoEmptyCallback>
    return;
 8002dc2:	e6bc      	b.n	8002b3e <HAL_UART_IRQHandler+0x76>
    HAL_UARTEx_RxFifoFullCallback(huart);
 8002dc4:	0020      	movs	r0, r4
 8002dc6:	f000 fb90 	bl	80034ea <HAL_UARTEx_RxFifoFullCallback>
    return;
 8002dca:	e6b8      	b.n	8002b3e <HAL_UART_IRQHandler+0x76>
 8002dcc:	0000080f 	.word	0x0000080f
 8002dd0:	10000001 	.word	0x10000001
 8002dd4:	04000120 	.word	0x04000120
 8002dd8:	08002ab5 	.word	0x08002ab5
 8002ddc:	fffffeff 	.word	0xfffffeff
 8002de0:	fffffedf 	.word	0xfffffedf
 8002de4:	effffffe 	.word	0xeffffffe

08002de8 <UART_DMARxHalfCplt>:
{
 8002de8:	b510      	push	{r4, lr}
  UART_HandleTypeDef *huart = (UART_HandleTypeDef *)(hdma->Parent);
 8002dea:	6a80      	ldr	r0, [r0, #40]	; 0x28
  huart->RxEventType = HAL_UART_RXEVENT_HT;
 8002dec:	2301      	movs	r3, #1
 8002dee:	6703      	str	r3, [r0, #112]	; 0x70
  if (huart->ReceptionType == HAL_UART_RECEPTION_TOIDLE)
 8002df0:	6ec3      	ldr	r3, [r0, #108]	; 0x6c
 8002df2:	2b01      	cmp	r3, #1
 8002df4:	d002      	beq.n	8002dfc <UART_DMARxHalfCplt+0x14>
    HAL_UART_RxHalfCpltCallback(huart);
 8002df6:	f7ff fe32 	bl	8002a5e <HAL_UART_RxHalfCpltCallback>
}
 8002dfa:	bd10      	pop	{r4, pc}
    HAL_UARTEx_RxEventCallback(huart, huart->RxXferSize / 2U);
 8002dfc:	335b      	adds	r3, #91	; 0x5b
 8002dfe:	5ac1      	ldrh	r1, [r0, r3]
 8002e00:	0849      	lsrs	r1, r1, #1
 8002e02:	f7fd fd1b 	bl	800083c <HAL_UARTEx_RxEventCallback>
 8002e06:	e7f8      	b.n	8002dfa <UART_DMARxHalfCplt+0x12>

08002e08 <UART_DMAReceiveCplt>:
{
 8002e08:	b570      	push	{r4, r5, r6, lr}
 8002e0a:	0003      	movs	r3, r0
  UART_HandleTypeDef *huart = (UART_HandleTypeDef *)(hdma->Parent);
 8002e0c:	6a80      	ldr	r0, [r0, #40]	; 0x28
  if (HAL_IS_BIT_CLR(hdma->Instance->CCR, DMA_CCR_CIRC))
 8002e0e:	681b      	ldr	r3, [r3, #0]
 8002e10:	681b      	ldr	r3, [r3, #0]
 8002e12:	069b      	lsls	r3, r3, #26
 8002e14:	d429      	bmi.n	8002e6a <UART_DMAReceiveCplt+0x62>
    huart->RxXferCount = 0U;
 8002e16:	235e      	movs	r3, #94	; 0x5e
 8002e18:	2200      	movs	r2, #0
 8002e1a:	52c2      	strh	r2, [r0, r3]
  __ASM volatile ("MRS %0, primask" : "=r" (result) :: "memory");
 8002e1c:	f3ef 8410 	mrs	r4, PRIMASK
  __ASM volatile ("MSR primask, %0" : : "r" (priMask) : "memory");
 8002e20:	3b5d      	subs	r3, #93	; 0x5d
 8002e22:	f383 8810 	msr	PRIMASK, r3
    ATOMIC_CLEAR_BIT(huart->Instance->CR1, USART_CR1_PEIE);
 8002e26:	6801      	ldr	r1, [r0, #0]
 8002e28:	680a      	ldr	r2, [r1, #0]
 8002e2a:	4d1c      	ldr	r5, [pc, #112]	; (8002e9c <UART_DMAReceiveCplt+0x94>)
 8002e2c:	402a      	ands	r2, r5
 8002e2e:	600a      	str	r2, [r1, #0]
 8002e30:	f384 8810 	msr	PRIMASK, r4
  __ASM volatile ("MRS %0, primask" : "=r" (result) :: "memory");
 8002e34:	f3ef 8410 	mrs	r4, PRIMASK
  __ASM volatile ("MSR primask, %0" : : "r" (priMask) : "memory");
 8002e38:	f383 8810 	msr	PRIMASK, r3
    ATOMIC_CLEAR_BIT(huart->Instance->CR3, USART_CR3_EIE);
 8002e3c:	6801      	ldr	r1, [r0, #0]
 8002e3e:	688a      	ldr	r2, [r1, #8]
 8002e40:	439a      	bics	r2, r3
 8002e42:	608a      	str	r2, [r1, #8]
 8002e44:	f384 8810 	msr	PRIMASK, r4
  __ASM volatile ("MRS %0, primask" : "=r" (result) :: "memory");
 8002e48:	f3ef 8110 	mrs	r1, PRIMASK
  __ASM volatile ("MSR primask, %0" : : "r" (priMask) : "memory");
 8002e4c:	f383 8810 	msr	PRIMASK, r3
    ATOMIC_CLEAR_BIT(huart->Instance->CR3, USART_CR3_DMAR);
 8002e50:	6802      	ldr	r2, [r0, #0]
 8002e52:	6893      	ldr	r3, [r2, #8]
 8002e54:	2440      	movs	r4, #64	; 0x40
 8002e56:	43a3      	bics	r3, r4
 8002e58:	6093      	str	r3, [r2, #8]
 8002e5a:	f381 8810 	msr	PRIMASK, r1
    huart->RxState = HAL_UART_STATE_READY;
 8002e5e:	238c      	movs	r3, #140	; 0x8c
 8002e60:	2220      	movs	r2, #32
 8002e62:	50c2      	str	r2, [r0, r3]
    if (huart->ReceptionType == HAL_UART_RECEPTION_TOIDLE)
 8002e64:	6ec3      	ldr	r3, [r0, #108]	; 0x6c
 8002e66:	2b01      	cmp	r3, #1
 8002e68:	d007      	beq.n	8002e7a <UART_DMAReceiveCplt+0x72>
  huart->RxEventType = HAL_UART_RXEVENT_TC;
 8002e6a:	2300      	movs	r3, #0
 8002e6c:	6703      	str	r3, [r0, #112]	; 0x70
  if (huart->ReceptionType == HAL_UART_RECEPTION_TOIDLE)
 8002e6e:	6ec3      	ldr	r3, [r0, #108]	; 0x6c
 8002e70:	2b01      	cmp	r3, #1
 8002e72:	d00e      	beq.n	8002e92 <UART_DMAReceiveCplt+0x8a>
    HAL_UART_RxCpltCallback(huart);
 8002e74:	f7ff fdf2 	bl	8002a5c <HAL_UART_RxCpltCallback>
}
 8002e78:	bd70      	pop	{r4, r5, r6, pc}
  __ASM volatile ("MRS %0, primask" : "=r" (result) :: "memory");
 8002e7a:	f3ef 8110 	mrs	r1, PRIMASK
  __ASM volatile ("MSR primask, %0" : : "r" (priMask) : "memory");
 8002e7e:	f383 8810 	msr	PRIMASK, r3
      ATOMIC_CLEAR_BIT(huart->Instance->CR1, USART_CR1_IDLEIE);
 8002e82:	6802      	ldr	r2, [r0, #0]
 8002e84:	6813      	ldr	r3, [r2, #0]
 8002e86:	3c30      	subs	r4, #48	; 0x30
 8002e88:	43a3      	bics	r3, r4
 8002e8a:	6013      	str	r3, [r2, #0]
 8002e8c:	f381 8810 	msr	PRIMASK, r1
}
 8002e90:	e7eb      	b.n	8002e6a <UART_DMAReceiveCplt+0x62>
    HAL_UARTEx_RxEventCallback(huart, huart->RxXferSize);
 8002e92:	335b      	adds	r3, #91	; 0x5b
 8002e94:	5ac1      	ldrh	r1, [r0, r3]
 8002e96:	f7fd fcd1 	bl	800083c <HAL_UARTEx_RxEventCallback>
 8002e9a:	e7ed      	b.n	8002e78 <UART_DMAReceiveCplt+0x70>
 8002e9c:	fffffeff 	.word	0xfffffeff

08002ea0 <UART_SetConfig>:
{
 8002ea0:	b510      	push	{r4, lr}
 8002ea2:	0004      	movs	r4, r0
  tmpreg = (uint32_t)huart->Init.WordLength | huart->Init.Parity | huart->Init.Mode | huart->Init.OverSampling ;
 8002ea4:	6883      	ldr	r3, [r0, #8]
 8002ea6:	6902      	ldr	r2, [r0, #16]
 8002ea8:	4313      	orrs	r3, r2
 8002eaa:	6942      	ldr	r2, [r0, #20]
 8002eac:	4313      	orrs	r3, r2
 8002eae:	69c2      	ldr	r2, [r0, #28]
 8002eb0:	4313      	orrs	r3, r2
  MODIFY_REG(huart->Instance->CR1, USART_CR1_FIELDS, tmpreg);
 8002eb2:	6801      	ldr	r1, [r0, #0]
 8002eb4:	680a      	ldr	r2, [r1, #0]
 8002eb6:	485c      	ldr	r0, [pc, #368]	; (8003028 <UART_SetConfig+0x188>)
 8002eb8:	4002      	ands	r2, r0
 8002eba:	4313      	orrs	r3, r2
 8002ebc:	600b      	str	r3, [r1, #0]
  MODIFY_REG(huart->Instance->CR2, USART_CR2_STOP, huart->Init.StopBits);
 8002ebe:	6822      	ldr	r2, [r4, #0]
 8002ec0:	6853      	ldr	r3, [r2, #4]
 8002ec2:	495a      	ldr	r1, [pc, #360]	; (800302c <UART_SetConfig+0x18c>)
 8002ec4:	400b      	ands	r3, r1
 8002ec6:	68e1      	ldr	r1, [r4, #12]
 8002ec8:	430b      	orrs	r3, r1
 8002eca:	6053      	str	r3, [r2, #4]
    tmpreg |= huart->Init.OneBitSampling;
 8002ecc:	6a22      	ldr	r2, [r4, #32]
 8002ece:	69a3      	ldr	r3, [r4, #24]
 8002ed0:	431a      	orrs	r2, r3
  MODIFY_REG(huart->Instance->CR3, USART_CR3_FIELDS, tmpreg);
 8002ed2:	6821      	ldr	r1, [r4, #0]
 8002ed4:	688b      	ldr	r3, [r1, #8]
 8002ed6:	4856      	ldr	r0, [pc, #344]	; (8003030 <UART_SetConfig+0x190>)
 8002ed8:	4003      	ands	r3, r0
 8002eda:	4313      	orrs	r3, r2
 8002edc:	608b      	str	r3, [r1, #8]
  MODIFY_REG(huart->Instance->PRESC, USART_PRESC_PRESCALER, huart->Init.ClockPrescaler);
 8002ede:	6822      	ldr	r2, [r4, #0]
 8002ee0:	6ad3      	ldr	r3, [r2, #44]	; 0x2c
 8002ee2:	210f      	movs	r1, #15
 8002ee4:	438b      	bics	r3, r1
 8002ee6:	6a61      	ldr	r1, [r4, #36]	; 0x24
 8002ee8:	430b      	orrs	r3, r1
 8002eea:	62d3      	str	r3, [r2, #44]	; 0x2c
  UART_GETCLOCKSOURCE(huart, clocksource);
 8002eec:	6823      	ldr	r3, [r4, #0]
 8002eee:	4a51      	ldr	r2, [pc, #324]	; (8003034 <UART_SetConfig+0x194>)
 8002ef0:	4293      	cmp	r3, r2
 8002ef2:	d02a      	beq.n	8002f4a <UART_SetConfig+0xaa>
 8002ef4:	4a50      	ldr	r2, [pc, #320]	; (8003038 <UART_SetConfig+0x198>)
 8002ef6:	4293      	cmp	r3, r2
 8002ef8:	d038      	beq.n	8002f6c <UART_SetConfig+0xcc>
 8002efa:	2310      	movs	r3, #16
  else if (huart->Init.OverSampling == UART_OVERSAMPLING_8)
 8002efc:	69e0      	ldr	r0, [r4, #28]
 8002efe:	2280      	movs	r2, #128	; 0x80
 8002f00:	0212      	lsls	r2, r2, #8
 8002f02:	4290      	cmp	r0, r2
 8002f04:	d03c      	beq.n	8002f80 <UART_SetConfig+0xe0>
    switch (clocksource)
 8002f06:	2b04      	cmp	r3, #4
 8002f08:	d100      	bne.n	8002f0c <UART_SetConfig+0x6c>
 8002f0a:	e085      	b.n	8003018 <UART_SetConfig+0x178>
 8002f0c:	d86e      	bhi.n	8002fec <UART_SetConfig+0x14c>
 8002f0e:	2b00      	cmp	r3, #0
 8002f10:	d100      	bne.n	8002f14 <UART_SetConfig+0x74>
 8002f12:	e07a      	b.n	800300a <UART_SetConfig+0x16a>
 8002f14:	2b02      	cmp	r3, #2
 8002f16:	d167      	bne.n	8002fe8 <UART_SetConfig+0x148>
 8002f18:	4848      	ldr	r0, [pc, #288]	; (800303c <UART_SetConfig+0x19c>)
      usartdiv = (uint32_t)(UART_DIV_SAMPLING16(pclk, huart->Init.BaudRate, huart->Init.ClockPrescaler));
 8002f1a:	6a63      	ldr	r3, [r4, #36]	; 0x24
 8002f1c:	005b      	lsls	r3, r3, #1
 8002f1e:	4a48      	ldr	r2, [pc, #288]	; (8003040 <UART_SetConfig+0x1a0>)
 8002f20:	5a99      	ldrh	r1, [r3, r2]
 8002f22:	f7fd f8f7 	bl	8000114 <__udivsi3>
 8002f26:	6863      	ldr	r3, [r4, #4]
 8002f28:	085b      	lsrs	r3, r3, #1
 8002f2a:	18c0      	adds	r0, r0, r3
 8002f2c:	6861      	ldr	r1, [r4, #4]
 8002f2e:	f7fd f8f1 	bl	8000114 <__udivsi3>
      if ((usartdiv >= UART_BRR_MIN) && (usartdiv <= UART_BRR_MAX))
 8002f32:	0002      	movs	r2, r0
 8002f34:	3a10      	subs	r2, #16
 8002f36:	4b43      	ldr	r3, [pc, #268]	; (8003044 <UART_SetConfig+0x1a4>)
 8002f38:	429a      	cmp	r2, r3
 8002f3a:	d900      	bls.n	8002f3e <UART_SetConfig+0x9e>
 8002f3c:	e071      	b.n	8003022 <UART_SetConfig+0x182>
        huart->Instance->BRR = (uint16_t)usartdiv;
 8002f3e:	6823      	ldr	r3, [r4, #0]
 8002f40:	0400      	lsls	r0, r0, #16
 8002f42:	0c00      	lsrs	r0, r0, #16
 8002f44:	60d8      	str	r0, [r3, #12]
 8002f46:	2000      	movs	r0, #0
 8002f48:	e056      	b.n	8002ff8 <UART_SetConfig+0x158>
  UART_GETCLOCKSOURCE(huart, clocksource);
 8002f4a:	4b3f      	ldr	r3, [pc, #252]	; (8003048 <UART_SetConfig+0x1a8>)
 8002f4c:	6d5a      	ldr	r2, [r3, #84]	; 0x54
 8002f4e:	2303      	movs	r3, #3
 8002f50:	4013      	ands	r3, r2
 8002f52:	2b02      	cmp	r3, #2
 8002f54:	d00c      	beq.n	8002f70 <UART_SetConfig+0xd0>
 8002f56:	d805      	bhi.n	8002f64 <UART_SetConfig+0xc4>
 8002f58:	2b00      	cmp	r3, #0
 8002f5a:	d00b      	beq.n	8002f74 <UART_SetConfig+0xd4>
 8002f5c:	2b01      	cmp	r3, #1
 8002f5e:	d10b      	bne.n	8002f78 <UART_SetConfig+0xd8>
 8002f60:	3303      	adds	r3, #3
 8002f62:	e7cb      	b.n	8002efc <UART_SetConfig+0x5c>
 8002f64:	2b03      	cmp	r3, #3
 8002f66:	d109      	bne.n	8002f7c <UART_SetConfig+0xdc>
 8002f68:	3305      	adds	r3, #5
 8002f6a:	e7c7      	b.n	8002efc <UART_SetConfig+0x5c>
 8002f6c:	2300      	movs	r3, #0
 8002f6e:	e7c5      	b.n	8002efc <UART_SetConfig+0x5c>
 8002f70:	2302      	movs	r3, #2
 8002f72:	e7c3      	b.n	8002efc <UART_SetConfig+0x5c>
 8002f74:	2300      	movs	r3, #0
 8002f76:	e7c1      	b.n	8002efc <UART_SetConfig+0x5c>
 8002f78:	2310      	movs	r3, #16
 8002f7a:	e7bf      	b.n	8002efc <UART_SetConfig+0x5c>
 8002f7c:	2310      	movs	r3, #16
 8002f7e:	e7bd      	b.n	8002efc <UART_SetConfig+0x5c>
    switch (clocksource)
 8002f80:	2b04      	cmp	r3, #4
 8002f82:	d02e      	beq.n	8002fe2 <UART_SetConfig+0x142>
 8002f84:	d823      	bhi.n	8002fce <UART_SetConfig+0x12e>
 8002f86:	2b00      	cmp	r3, #0
 8002f88:	d025      	beq.n	8002fd6 <UART_SetConfig+0x136>
 8002f8a:	2b02      	cmp	r3, #2
 8002f8c:	d11d      	bne.n	8002fca <UART_SetConfig+0x12a>
        pclk = (uint32_t) HSI_VALUE;
 8002f8e:	482b      	ldr	r0, [pc, #172]	; (800303c <UART_SetConfig+0x19c>)
      usartdiv = (uint32_t)(UART_DIV_SAMPLING8(pclk, huart->Init.BaudRate, huart->Init.ClockPrescaler));
 8002f90:	6a63      	ldr	r3, [r4, #36]	; 0x24
 8002f92:	005b      	lsls	r3, r3, #1
 8002f94:	4a2a      	ldr	r2, [pc, #168]	; (8003040 <UART_SetConfig+0x1a0>)
 8002f96:	5a99      	ldrh	r1, [r3, r2]
 8002f98:	f7fd f8bc 	bl	8000114 <__udivsi3>
 8002f9c:	0040      	lsls	r0, r0, #1
 8002f9e:	6863      	ldr	r3, [r4, #4]
 8002fa0:	085b      	lsrs	r3, r3, #1
 8002fa2:	18c0      	adds	r0, r0, r3
 8002fa4:	6861      	ldr	r1, [r4, #4]
 8002fa6:	f7fd f8b5 	bl	8000114 <__udivsi3>
      if ((usartdiv >= UART_BRR_MIN) && (usartdiv <= UART_BRR_MAX))
 8002faa:	0002      	movs	r2, r0
 8002fac:	3a10      	subs	r2, #16
 8002fae:	4b25      	ldr	r3, [pc, #148]	; (8003044 <UART_SetConfig+0x1a4>)
 8002fb0:	429a      	cmp	r2, r3
 8002fb2:	d834      	bhi.n	800301e <UART_SetConfig+0x17e>
        brrtemp = (uint16_t)(usartdiv & 0xFFF0U);
 8002fb4:	b282      	uxth	r2, r0
 8002fb6:	230f      	movs	r3, #15
 8002fb8:	439a      	bics	r2, r3
        brrtemp |= (uint16_t)((usartdiv & (uint16_t)0x000FU) >> 1U);
 8002fba:	0840      	lsrs	r0, r0, #1
 8002fbc:	3b08      	subs	r3, #8
 8002fbe:	4018      	ands	r0, r3
 8002fc0:	4310      	orrs	r0, r2
        huart->Instance->BRR = brrtemp;
 8002fc2:	6823      	ldr	r3, [r4, #0]
 8002fc4:	60d8      	str	r0, [r3, #12]
 8002fc6:	2000      	movs	r0, #0
 8002fc8:	e016      	b.n	8002ff8 <UART_SetConfig+0x158>
    switch (clocksource)
 8002fca:	2001      	movs	r0, #1
 8002fcc:	e014      	b.n	8002ff8 <UART_SetConfig+0x158>
 8002fce:	2b08      	cmp	r3, #8
 8002fd0:	d0de      	beq.n	8002f90 <UART_SetConfig+0xf0>
 8002fd2:	2001      	movs	r0, #1
 8002fd4:	e010      	b.n	8002ff8 <UART_SetConfig+0x158>
        pclk = HAL_RCC_GetPCLK1Freq();
 8002fd6:	f7ff faa9 	bl	800252c <HAL_RCC_GetPCLK1Freq>
    if (pclk != 0U)
 8002fda:	2800      	cmp	r0, #0
 8002fdc:	d1d8      	bne.n	8002f90 <UART_SetConfig+0xf0>
 8002fde:	2000      	movs	r0, #0
 8002fe0:	e00a      	b.n	8002ff8 <UART_SetConfig+0x158>
        pclk = HAL_RCC_GetSysClockFreq();
 8002fe2:	f7ff f97b 	bl	80022dc <HAL_RCC_GetSysClockFreq>
        break;
 8002fe6:	e7f8      	b.n	8002fda <UART_SetConfig+0x13a>
    switch (clocksource)
 8002fe8:	2001      	movs	r0, #1
 8002fea:	e005      	b.n	8002ff8 <UART_SetConfig+0x158>
 8002fec:	2b08      	cmp	r3, #8
 8002fee:	d102      	bne.n	8002ff6 <UART_SetConfig+0x156>
        pclk = (uint32_t) LSE_VALUE;
 8002ff0:	2080      	movs	r0, #128	; 0x80
 8002ff2:	0200      	lsls	r0, r0, #8
 8002ff4:	e791      	b.n	8002f1a <UART_SetConfig+0x7a>
    switch (clocksource)
 8002ff6:	2001      	movs	r0, #1
  huart->NbTxDataToProcess = 1;
 8002ff8:	2301      	movs	r3, #1
 8002ffa:	226a      	movs	r2, #106	; 0x6a
 8002ffc:	52a3      	strh	r3, [r4, r2]
  huart->NbRxDataToProcess = 1;
 8002ffe:	3a02      	subs	r2, #2
 8003000:	52a3      	strh	r3, [r4, r2]
  huart->RxISR = NULL;
 8003002:	2300      	movs	r3, #0
 8003004:	6763      	str	r3, [r4, #116]	; 0x74
  huart->TxISR = NULL;
 8003006:	67a3      	str	r3, [r4, #120]	; 0x78
}
 8003008:	bd10      	pop	{r4, pc}
        pclk = HAL_RCC_GetPCLK1Freq();
 800300a:	f7ff fa8f 	bl	800252c <HAL_RCC_GetPCLK1Freq>
    if (pclk != 0U)
 800300e:	2800      	cmp	r0, #0
 8003010:	d000      	beq.n	8003014 <UART_SetConfig+0x174>
 8003012:	e782      	b.n	8002f1a <UART_SetConfig+0x7a>
 8003014:	2000      	movs	r0, #0
 8003016:	e7ef      	b.n	8002ff8 <UART_SetConfig+0x158>
        pclk = HAL_RCC_GetSysClockFreq();
 8003018:	f7ff f960 	bl	80022dc <HAL_RCC_GetSysClockFreq>
        break;
 800301c:	e7f7      	b.n	800300e <UART_SetConfig+0x16e>
        ret = HAL_ERROR;
 800301e:	2001      	movs	r0, #1
 8003020:	e7ea      	b.n	8002ff8 <UART_SetConfig+0x158>
        ret = HAL_ERROR;
 8003022:	2001      	movs	r0, #1
 8003024:	e7e8      	b.n	8002ff8 <UART_SetConfig+0x158>
 8003026:	46c0      	nop			; (mov r8, r8)
 8003028:	cfff69f3 	.word	0xcfff69f3
 800302c:	ffffcfff 	.word	0xffffcfff
 8003030:	11fff4ff 	.word	0x11fff4ff
 8003034:	40013800 	.word	0x40013800
 8003038:	40004400 	.word	0x40004400
 800303c:	00f42400 	.word	0x00f42400
 8003040:	08004128 	.word	0x08004128
 8003044:	0000ffef 	.word	0x0000ffef
 8003048:	40021000 	.word	0x40021000

0800304c <UART_AdvFeatureConfig>:
  if (HAL_IS_BIT_SET(huart->AdvancedInit.AdvFeatureInit, UART_ADVFEATURE_TXINVERT_INIT))
 800304c:	6a83      	ldr	r3, [r0, #40]	; 0x28
 800304e:	07db      	lsls	r3, r3, #31
 8003050:	d506      	bpl.n	8003060 <UART_AdvFeatureConfig+0x14>
    MODIFY_REG(huart->Instance->CR2, USART_CR2_TXINV, huart->AdvancedInit.TxPinLevelInvert);
 8003052:	6802      	ldr	r2, [r0, #0]
 8003054:	6853      	ldr	r3, [r2, #4]
 8003056:	492c      	ldr	r1, [pc, #176]	; (8003108 <UART_AdvFeatureConfig+0xbc>)
 8003058:	400b      	ands	r3, r1
 800305a:	6ac1      	ldr	r1, [r0, #44]	; 0x2c
 800305c:	430b      	orrs	r3, r1
 800305e:	6053      	str	r3, [r2, #4]
  if (HAL_IS_BIT_SET(huart->AdvancedInit.AdvFeatureInit, UART_ADVFEATURE_RXINVERT_INIT))
 8003060:	6a83      	ldr	r3, [r0, #40]	; 0x28
 8003062:	079b      	lsls	r3, r3, #30
 8003064:	d506      	bpl.n	8003074 <UART_AdvFeatureConfig+0x28>
    MODIFY_REG(huart->Instance->CR2, USART_CR2_RXINV, huart->AdvancedInit.RxPinLevelInvert);
 8003066:	6802      	ldr	r2, [r0, #0]
 8003068:	6853      	ldr	r3, [r2, #4]
 800306a:	4928      	ldr	r1, [pc, #160]	; (800310c <UART_AdvFeatureConfig+0xc0>)
 800306c:	400b      	ands	r3, r1
 800306e:	6b01      	ldr	r1, [r0, #48]	; 0x30
 8003070:	430b      	orrs	r3, r1
 8003072:	6053      	str	r3, [r2, #4]
  if (HAL_IS_BIT_SET(huart->AdvancedInit.AdvFeatureInit, UART_ADVFEATURE_DATAINVERT_INIT))
 8003074:	6a83      	ldr	r3, [r0, #40]	; 0x28
 8003076:	075b      	lsls	r3, r3, #29
 8003078:	d506      	bpl.n	8003088 <UART_AdvFeatureConfig+0x3c>
    MODIFY_REG(huart->Instance->CR2, USART_CR2_DATAINV, huart->AdvancedInit.DataInvert);
 800307a:	6802      	ldr	r2, [r0, #0]
 800307c:	6853      	ldr	r3, [r2, #4]
 800307e:	4924      	ldr	r1, [pc, #144]	; (8003110 <UART_AdvFeatureConfig+0xc4>)
 8003080:	400b      	ands	r3, r1
 8003082:	6b41      	ldr	r1, [r0, #52]	; 0x34
 8003084:	430b      	orrs	r3, r1
 8003086:	6053      	str	r3, [r2, #4]
  if (HAL_IS_BIT_SET(huart->AdvancedInit.AdvFeatureInit, UART_ADVFEATURE_SWAP_INIT))
 8003088:	6a83      	ldr	r3, [r0, #40]	; 0x28
 800308a:	071b      	lsls	r3, r3, #28
 800308c:	d506      	bpl.n	800309c <UART_AdvFeatureConfig+0x50>
    MODIFY_REG(huart->Instance->CR2, USART_CR2_SWAP, huart->AdvancedInit.Swap);
 800308e:	6802      	ldr	r2, [r0, #0]
 8003090:	6853      	ldr	r3, [r2, #4]
 8003092:	4920      	ldr	r1, [pc, #128]	; (8003114 <UART_AdvFeatureConfig+0xc8>)
 8003094:	400b      	ands	r3, r1
 8003096:	6b81      	ldr	r1, [r0, #56]	; 0x38
 8003098:	430b      	orrs	r3, r1
 800309a:	6053      	str	r3, [r2, #4]
  if (HAL_IS_BIT_SET(huart->AdvancedInit.AdvFeatureInit, UART_ADVFEATURE_RXOVERRUNDISABLE_INIT))
 800309c:	6a83      	ldr	r3, [r0, #40]	; 0x28
 800309e:	06db      	lsls	r3, r3, #27
 80030a0:	d506      	bpl.n	80030b0 <UART_AdvFeatureConfig+0x64>
    MODIFY_REG(huart->Instance->CR3, USART_CR3_OVRDIS, huart->AdvancedInit.OverrunDisable);
 80030a2:	6802      	ldr	r2, [r0, #0]
 80030a4:	6893      	ldr	r3, [r2, #8]
 80030a6:	491c      	ldr	r1, [pc, #112]	; (8003118 <UART_AdvFeatureConfig+0xcc>)
 80030a8:	400b      	ands	r3, r1
 80030aa:	6bc1      	ldr	r1, [r0, #60]	; 0x3c
 80030ac:	430b      	orrs	r3, r1
 80030ae:	6093      	str	r3, [r2, #8]
  if (HAL_IS_BIT_SET(huart->AdvancedInit.AdvFeatureInit, UART_ADVFEATURE_DMADISABLEONERROR_INIT))
 80030b0:	6a83      	ldr	r3, [r0, #40]	; 0x28
 80030b2:	069b      	lsls	r3, r3, #26
 80030b4:	d506      	bpl.n	80030c4 <UART_AdvFeatureConfig+0x78>
    MODIFY_REG(huart->Instance->CR3, USART_CR3_DDRE, huart->AdvancedInit.DMADisableonRxError);
 80030b6:	6802      	ldr	r2, [r0, #0]
 80030b8:	6893      	ldr	r3, [r2, #8]
 80030ba:	4918      	ldr	r1, [pc, #96]	; (800311c <UART_AdvFeatureConfig+0xd0>)
 80030bc:	400b      	ands	r3, r1
 80030be:	6c01      	ldr	r1, [r0, #64]	; 0x40
 80030c0:	430b      	orrs	r3, r1
 80030c2:	6093      	str	r3, [r2, #8]
  if (HAL_IS_BIT_SET(huart->AdvancedInit.AdvFeatureInit, UART_ADVFEATURE_AUTOBAUDRATE_INIT))
 80030c4:	6a83      	ldr	r3, [r0, #40]	; 0x28
 80030c6:	065b      	lsls	r3, r3, #25
 80030c8:	d50b      	bpl.n	80030e2 <UART_AdvFeatureConfig+0x96>
    MODIFY_REG(huart->Instance->CR2, USART_CR2_ABREN, huart->AdvancedInit.AutoBaudRateEnable);
 80030ca:	6802      	ldr	r2, [r0, #0]
 80030cc:	6853      	ldr	r3, [r2, #4]
 80030ce:	4914      	ldr	r1, [pc, #80]	; (8003120 <UART_AdvFeatureConfig+0xd4>)
 80030d0:	400b      	ands	r3, r1
 80030d2:	6c41      	ldr	r1, [r0, #68]	; 0x44
 80030d4:	430b      	orrs	r3, r1
 80030d6:	6053      	str	r3, [r2, #4]
    if (huart->AdvancedInit.AutoBaudRateEnable == UART_ADVFEATURE_AUTOBAUDRATE_ENABLE)
 80030d8:	2380      	movs	r3, #128	; 0x80
 80030da:	035b      	lsls	r3, r3, #13
 80030dc:	6c42      	ldr	r2, [r0, #68]	; 0x44
 80030de:	429a      	cmp	r2, r3
 80030e0:	d00a      	beq.n	80030f8 <UART_AdvFeatureConfig+0xac>
  if (HAL_IS_BIT_SET(huart->AdvancedInit.AdvFeatureInit, UART_ADVFEATURE_MSBFIRST_INIT))
 80030e2:	6a83      	ldr	r3, [r0, #40]	; 0x28
 80030e4:	061b      	lsls	r3, r3, #24
 80030e6:	d506      	bpl.n	80030f6 <UART_AdvFeatureConfig+0xaa>
    MODIFY_REG(huart->Instance->CR2, USART_CR2_MSBFIRST, huart->AdvancedInit.MSBFirst);
 80030e8:	6802      	ldr	r2, [r0, #0]
 80030ea:	6853      	ldr	r3, [r2, #4]
 80030ec:	490d      	ldr	r1, [pc, #52]	; (8003124 <UART_AdvFeatureConfig+0xd8>)
 80030ee:	400b      	ands	r3, r1
 80030f0:	6cc1      	ldr	r1, [r0, #76]	; 0x4c
 80030f2:	430b      	orrs	r3, r1
 80030f4:	6053      	str	r3, [r2, #4]
}
 80030f6:	4770      	bx	lr
      MODIFY_REG(huart->Instance->CR2, USART_CR2_ABRMODE, huart->AdvancedInit.AutoBaudRateMode);
 80030f8:	6802      	ldr	r2, [r0, #0]
 80030fa:	6853      	ldr	r3, [r2, #4]
 80030fc:	490a      	ldr	r1, [pc, #40]	; (8003128 <UART_AdvFeatureConfig+0xdc>)
 80030fe:	400b      	ands	r3, r1
 8003100:	6c81      	ldr	r1, [r0, #72]	; 0x48
 8003102:	430b      	orrs	r3, r1
 8003104:	6053      	str	r3, [r2, #4]
 8003106:	e7ec      	b.n	80030e2 <UART_AdvFeatureConfig+0x96>
 8003108:	fffdffff 	.word	0xfffdffff
 800310c:	fffeffff 	.word	0xfffeffff
 8003110:	fffbffff 	.word	0xfffbffff
 8003114:	ffff7fff 	.word	0xffff7fff
 8003118:	ffffefff 	.word	0xffffefff
 800311c:	ffffdfff 	.word	0xffffdfff
 8003120:	ffefffff 	.word	0xffefffff
 8003124:	fff7ffff 	.word	0xfff7ffff
 8003128:	ff9fffff 	.word	0xff9fffff

0800312c <UART_WaitOnFlagUntilTimeout>:
{
 800312c:	b5f8      	push	{r3, r4, r5, r6, r7, lr}
 800312e:	46ce      	mov	lr, r9
 8003130:	4647      	mov	r7, r8
 8003132:	b580      	push	{r7, lr}
 8003134:	0006      	movs	r6, r0
 8003136:	000d      	movs	r5, r1
 8003138:	0017      	movs	r7, r2
 800313a:	4699      	mov	r9, r3
 800313c:	9b08      	ldr	r3, [sp, #32]
 800313e:	4698      	mov	r8, r3
  while ((__HAL_UART_GET_FLAG(huart, Flag) ? SET : RESET) == Status)
 8003140:	6833      	ldr	r3, [r6, #0]
 8003142:	69dc      	ldr	r4, [r3, #28]
 8003144:	402c      	ands	r4, r5
 8003146:	1b64      	subs	r4, r4, r5
 8003148:	4263      	negs	r3, r4
 800314a:	415c      	adcs	r4, r3
 800314c:	42bc      	cmp	r4, r7
 800314e:	d157      	bne.n	8003200 <UART_WaitOnFlagUntilTimeout+0xd4>
    if (Timeout != HAL_MAX_DELAY)
 8003150:	4643      	mov	r3, r8
 8003152:	3301      	adds	r3, #1
 8003154:	d0f4      	beq.n	8003140 <UART_WaitOnFlagUntilTimeout+0x14>
      if (((HAL_GetTick() - Tickstart) > Timeout) || (Timeout == 0U))
 8003156:	f7fd ff17 	bl	8000f88 <HAL_GetTick>
 800315a:	464b      	mov	r3, r9
 800315c:	1ac0      	subs	r0, r0, r3
 800315e:	4540      	cmp	r0, r8
 8003160:	d82e      	bhi.n	80031c0 <UART_WaitOnFlagUntilTimeout+0x94>
 8003162:	4643      	mov	r3, r8
 8003164:	2b00      	cmp	r3, #0
 8003166:	d02b      	beq.n	80031c0 <UART_WaitOnFlagUntilTimeout+0x94>
      if (READ_BIT(huart->Instance->CR1, USART_CR1_RE) != 0U)
 8003168:	6833      	ldr	r3, [r6, #0]
 800316a:	681a      	ldr	r2, [r3, #0]
 800316c:	0752      	lsls	r2, r2, #29
 800316e:	d5e7      	bpl.n	8003140 <UART_WaitOnFlagUntilTimeout+0x14>
        if (__HAL_UART_GET_FLAG(huart, UART_FLAG_RTOF) == SET)
 8003170:	69da      	ldr	r2, [r3, #28]
 8003172:	0512      	lsls	r2, r2, #20
 8003174:	d5e4      	bpl.n	8003140 <UART_WaitOnFlagUntilTimeout+0x14>
          __HAL_UART_CLEAR_FLAG(huart, UART_CLEAR_RTOF);
 8003176:	2280      	movs	r2, #128	; 0x80
 8003178:	0112      	lsls	r2, r2, #4
 800317a:	621a      	str	r2, [r3, #32]
  __ASM volatile ("MRS %0, primask" : "=r" (result) :: "memory");
 800317c:	f3ef 8010 	mrs	r0, PRIMASK
  __ASM volatile ("MSR primask, %0" : : "r" (priMask) : "memory");
 8003180:	2201      	movs	r2, #1
 8003182:	f382 8810 	msr	PRIMASK, r2
          ATOMIC_CLEAR_BIT(huart->Instance->CR1, (USART_CR1_RXNEIE_RXFNEIE | USART_CR1_PEIE |
 8003186:	6831      	ldr	r1, [r6, #0]
 8003188:	680b      	ldr	r3, [r1, #0]
 800318a:	4c20      	ldr	r4, [pc, #128]	; (800320c <UART_WaitOnFlagUntilTimeout+0xe0>)
 800318c:	4023      	ands	r3, r4
 800318e:	600b      	str	r3, [r1, #0]
 8003190:	f380 8810 	msr	PRIMASK, r0
  __ASM volatile ("MRS %0, primask" : "=r" (result) :: "memory");
 8003194:	f3ef 8010 	mrs	r0, PRIMASK
  __ASM volatile ("MSR primask, %0" : : "r" (priMask) : "memory");
 8003198:	f382 8810 	msr	PRIMASK, r2
          ATOMIC_CLEAR_BIT(huart->Instance->CR3, USART_CR3_EIE);
 800319c:	6831      	ldr	r1, [r6, #0]
 800319e:	688b      	ldr	r3, [r1, #8]
 80031a0:	4393      	bics	r3, r2
 80031a2:	608b      	str	r3, [r1, #8]
 80031a4:	f380 8810 	msr	PRIMASK, r0
          huart->gState = HAL_UART_STATE_READY;
 80031a8:	2320      	movs	r3, #32
 80031aa:	3287      	adds	r2, #135	; 0x87
 80031ac:	50b3      	str	r3, [r6, r2]
          huart->RxState = HAL_UART_STATE_READY;
 80031ae:	3204      	adds	r2, #4
 80031b0:	50b3      	str	r3, [r6, r2]
          huart->ErrorCode = HAL_UART_ERROR_RTO;
 80031b2:	3204      	adds	r2, #4
 80031b4:	50b3      	str	r3, [r6, r2]
          __HAL_UNLOCK(huart);
 80031b6:	3364      	adds	r3, #100	; 0x64
 80031b8:	2200      	movs	r2, #0
 80031ba:	54f2      	strb	r2, [r6, r3]
          return HAL_TIMEOUT;
 80031bc:	2003      	movs	r0, #3
 80031be:	e020      	b.n	8003202 <UART_WaitOnFlagUntilTimeout+0xd6>
  __ASM volatile ("MRS %0, primask" : "=r" (result) :: "memory");
 80031c0:	f3ef 8010 	mrs	r0, PRIMASK
  __ASM volatile ("MSR primask, %0" : : "r" (priMask) : "memory");
 80031c4:	2201      	movs	r2, #1
 80031c6:	f382 8810 	msr	PRIMASK, r2
        ATOMIC_CLEAR_BIT(huart->Instance->CR1, (USART_CR1_RXNEIE_RXFNEIE | USART_CR1_PEIE |
 80031ca:	6831      	ldr	r1, [r6, #0]
 80031cc:	680b      	ldr	r3, [r1, #0]
 80031ce:	4c0f      	ldr	r4, [pc, #60]	; (800320c <UART_WaitOnFlagUntilTimeout+0xe0>)
 80031d0:	4023      	ands	r3, r4
 80031d2:	600b      	str	r3, [r1, #0]
 80031d4:	f380 8810 	msr	PRIMASK, r0
  __ASM volatile ("MRS %0, primask" : "=r" (result) :: "memory");
 80031d8:	f3ef 8010 	mrs	r0, PRIMASK
  __ASM volatile ("MSR primask, %0" : : "r" (priMask) : "memory");
 80031dc:	f382 8810 	msr	PRIMASK, r2
        ATOMIC_CLEAR_BIT(huart->Instance->CR3, USART_CR3_EIE);
 80031e0:	6831      	ldr	r1, [r6, #0]
 80031e2:	688b      	ldr	r3, [r1, #8]
 80031e4:	4393      	bics	r3, r2
 80031e6:	608b      	str	r3, [r1, #8]
 80031e8:	f380 8810 	msr	PRIMASK, r0
        huart->gState = HAL_UART_STATE_READY;
 80031ec:	2320      	movs	r3, #32
 80031ee:	3287      	adds	r2, #135	; 0x87
 80031f0:	50b3      	str	r3, [r6, r2]
        huart->RxState = HAL_UART_STATE_READY;
 80031f2:	3204      	adds	r2, #4
 80031f4:	50b3      	str	r3, [r6, r2]
        __HAL_UNLOCK(huart);
 80031f6:	3364      	adds	r3, #100	; 0x64
 80031f8:	2200      	movs	r2, #0
 80031fa:	54f2      	strb	r2, [r6, r3]
        return HAL_TIMEOUT;
 80031fc:	2003      	movs	r0, #3
 80031fe:	e000      	b.n	8003202 <UART_WaitOnFlagUntilTimeout+0xd6>
  return HAL_OK;
 8003200:	2000      	movs	r0, #0
}
 8003202:	bcc0      	pop	{r6, r7}
 8003204:	46b9      	mov	r9, r7
 8003206:	46b0      	mov	r8, r6
 8003208:	bdf8      	pop	{r3, r4, r5, r6, r7, pc}
 800320a:	46c0      	nop			; (mov r8, r8)
 800320c:	fffffe5f 	.word	0xfffffe5f

08003210 <HAL_UART_Transmit>:
{
 8003210:	b5f0      	push	{r4, r5, r6, r7, lr}
 8003212:	46c6      	mov	lr, r8
 8003214:	b500      	push	{lr}
 8003216:	b082      	sub	sp, #8
 8003218:	0004      	movs	r4, r0
 800321a:	000d      	movs	r5, r1
 800321c:	4690      	mov	r8, r2
 800321e:	001e      	movs	r6, r3
  if (huart->gState == HAL_UART_STATE_READY)
 8003220:	2388      	movs	r3, #136	; 0x88
 8003222:	58c3      	ldr	r3, [r0, r3]
 8003224:	2b20      	cmp	r3, #32
 8003226:	d15c      	bne.n	80032e2 <HAL_UART_Transmit+0xd2>
    if ((pData == NULL) || (Size == 0U))
 8003228:	2900      	cmp	r1, #0
 800322a:	d05f      	beq.n	80032ec <HAL_UART_Transmit+0xdc>
 800322c:	2a00      	cmp	r2, #0
 800322e:	d05f      	beq.n	80032f0 <HAL_UART_Transmit+0xe0>
    if ((huart->Init.WordLength == UART_WORDLENGTH_9B) && (huart->Init.Parity == UART_PARITY_NONE))
 8003230:	2380      	movs	r3, #128	; 0x80
 8003232:	015b      	lsls	r3, r3, #5
 8003234:	6882      	ldr	r2, [r0, #8]
 8003236:	429a      	cmp	r2, r3
 8003238:	d104      	bne.n	8003244 <HAL_UART_Transmit+0x34>
 800323a:	6903      	ldr	r3, [r0, #16]
 800323c:	2b00      	cmp	r3, #0
 800323e:	d101      	bne.n	8003244 <HAL_UART_Transmit+0x34>
      if ((((uint32_t)pData) & 1U) != 0U)
 8003240:	07cb      	lsls	r3, r1, #31
 8003242:	d457      	bmi.n	80032f4 <HAL_UART_Transmit+0xe4>
    huart->ErrorCode = HAL_UART_ERROR_NONE;
 8003244:	2390      	movs	r3, #144	; 0x90
 8003246:	2200      	movs	r2, #0
 8003248:	50e2      	str	r2, [r4, r3]
    huart->gState = HAL_UART_STATE_BUSY_TX;
 800324a:	3b08      	subs	r3, #8
 800324c:	3221      	adds	r2, #33	; 0x21
 800324e:	50e2      	str	r2, [r4, r3]
    tickstart = HAL_GetTick();
 8003250:	f7fd fe9a 	bl	8000f88 <HAL_GetTick>
 8003254:	0007      	movs	r7, r0
    huart->TxXferSize  = Size;
 8003256:	2354      	movs	r3, #84	; 0x54
 8003258:	4642      	mov	r2, r8
 800325a:	52e2      	strh	r2, [r4, r3]
    huart->TxXferCount = Size;
 800325c:	3302      	adds	r3, #2
 800325e:	52e2      	strh	r2, [r4, r3]
    if ((huart->Init.WordLength == UART_WORDLENGTH_9B) && (huart->Init.Parity == UART_PARITY_NONE))
 8003260:	2380      	movs	r3, #128	; 0x80
 8003262:	015b      	lsls	r3, r3, #5
 8003264:	68a2      	ldr	r2, [r4, #8]
 8003266:	429a      	cmp	r2, r3
 8003268:	d002      	beq.n	8003270 <HAL_UART_Transmit+0x60>
      pdata16bits = NULL;
 800326a:	2300      	movs	r3, #0
 800326c:	4698      	mov	r8, r3
 800326e:	e013      	b.n	8003298 <HAL_UART_Transmit+0x88>
    if ((huart->Init.WordLength == UART_WORDLENGTH_9B) && (huart->Init.Parity == UART_PARITY_NONE))
 8003270:	6923      	ldr	r3, [r4, #16]
 8003272:	2b00      	cmp	r3, #0
 8003274:	d025      	beq.n	80032c2 <HAL_UART_Transmit+0xb2>
      pdata16bits = NULL;
 8003276:	2300      	movs	r3, #0
 8003278:	4698      	mov	r8, r3
 800327a:	e00d      	b.n	8003298 <HAL_UART_Transmit+0x88>
        huart->Instance->TDR = (uint16_t)(*pdata16bits & 0x01FFU);
 800327c:	4643      	mov	r3, r8
 800327e:	881b      	ldrh	r3, [r3, #0]
 8003280:	6822      	ldr	r2, [r4, #0]
 8003282:	05db      	lsls	r3, r3, #23
 8003284:	0ddb      	lsrs	r3, r3, #23
 8003286:	6293      	str	r3, [r2, #40]	; 0x28
        pdata16bits++;
 8003288:	2302      	movs	r3, #2
 800328a:	469c      	mov	ip, r3
 800328c:	44e0      	add	r8, ip
      huart->TxXferCount--;
 800328e:	2356      	movs	r3, #86	; 0x56
 8003290:	5ae2      	ldrh	r2, [r4, r3]
 8003292:	3a01      	subs	r2, #1
 8003294:	b292      	uxth	r2, r2
 8003296:	52e2      	strh	r2, [r4, r3]
    while (huart->TxXferCount > 0U)
 8003298:	2356      	movs	r3, #86	; 0x56
 800329a:	5ae3      	ldrh	r3, [r4, r3]
 800329c:	b29b      	uxth	r3, r3
 800329e:	2b00      	cmp	r3, #0
 80032a0:	d012      	beq.n	80032c8 <HAL_UART_Transmit+0xb8>
      if (UART_WaitOnFlagUntilTimeout(huart, UART_FLAG_TXE, RESET, tickstart, Timeout) != HAL_OK)
 80032a2:	9600      	str	r6, [sp, #0]
 80032a4:	003b      	movs	r3, r7
 80032a6:	2200      	movs	r2, #0
 80032a8:	2180      	movs	r1, #128	; 0x80
 80032aa:	0020      	movs	r0, r4
 80032ac:	f7ff ff3e 	bl	800312c <UART_WaitOnFlagUntilTimeout>
 80032b0:	2800      	cmp	r0, #0
 80032b2:	d121      	bne.n	80032f8 <HAL_UART_Transmit+0xe8>
      if (pdata8bits == NULL)
 80032b4:	2d00      	cmp	r5, #0
 80032b6:	d0e1      	beq.n	800327c <HAL_UART_Transmit+0x6c>
        huart->Instance->TDR = (uint8_t)(*pdata8bits & 0xFFU);
 80032b8:	782a      	ldrb	r2, [r5, #0]
 80032ba:	6823      	ldr	r3, [r4, #0]
 80032bc:	629a      	str	r2, [r3, #40]	; 0x28
        pdata8bits++;
 80032be:	3501      	adds	r5, #1
 80032c0:	e7e5      	b.n	800328e <HAL_UART_Transmit+0x7e>
      pdata16bits = (const uint16_t *) pData;
 80032c2:	46a8      	mov	r8, r5
      pdata8bits  = NULL;
 80032c4:	2500      	movs	r5, #0
 80032c6:	e7e7      	b.n	8003298 <HAL_UART_Transmit+0x88>
    if (UART_WaitOnFlagUntilTimeout(huart, UART_FLAG_TC, RESET, tickstart, Timeout) != HAL_OK)
 80032c8:	9600      	str	r6, [sp, #0]
 80032ca:	003b      	movs	r3, r7
 80032cc:	2200      	movs	r2, #0
 80032ce:	2140      	movs	r1, #64	; 0x40
 80032d0:	0020      	movs	r0, r4
 80032d2:	f7ff ff2b 	bl	800312c <UART_WaitOnFlagUntilTimeout>
 80032d6:	2800      	cmp	r0, #0
 80032d8:	d110      	bne.n	80032fc <HAL_UART_Transmit+0xec>
    huart->gState = HAL_UART_STATE_READY;
 80032da:	2388      	movs	r3, #136	; 0x88
 80032dc:	2220      	movs	r2, #32
 80032de:	50e2      	str	r2, [r4, r3]
    return HAL_OK;
 80032e0:	e000      	b.n	80032e4 <HAL_UART_Transmit+0xd4>
    return HAL_BUSY;
 80032e2:	2002      	movs	r0, #2
}
 80032e4:	b002      	add	sp, #8
 80032e6:	bc80      	pop	{r7}
 80032e8:	46b8      	mov	r8, r7
 80032ea:	bdf0      	pop	{r4, r5, r6, r7, pc}
      return  HAL_ERROR;
 80032ec:	2001      	movs	r0, #1
 80032ee:	e7f9      	b.n	80032e4 <HAL_UART_Transmit+0xd4>
 80032f0:	2001      	movs	r0, #1
 80032f2:	e7f7      	b.n	80032e4 <HAL_UART_Transmit+0xd4>
        return  HAL_ERROR;
 80032f4:	2001      	movs	r0, #1
 80032f6:	e7f5      	b.n	80032e4 <HAL_UART_Transmit+0xd4>
        return HAL_TIMEOUT;
 80032f8:	2003      	movs	r0, #3
 80032fa:	e7f3      	b.n	80032e4 <HAL_UART_Transmit+0xd4>
      return HAL_TIMEOUT;
 80032fc:	2003      	movs	r0, #3
 80032fe:	e7f1      	b.n	80032e4 <HAL_UART_Transmit+0xd4>

08003300 <UART_CheckIdleState>:
{
 8003300:	b530      	push	{r4, r5, lr}
 8003302:	b083      	sub	sp, #12
 8003304:	0004      	movs	r4, r0
  huart->ErrorCode = HAL_UART_ERROR_NONE;
 8003306:	2390      	movs	r3, #144	; 0x90
 8003308:	2200      	movs	r2, #0
 800330a:	50c2      	str	r2, [r0, r3]
  tickstart = HAL_GetTick();
 800330c:	f7fd fe3c 	bl	8000f88 <HAL_GetTick>
 8003310:	0005      	movs	r5, r0
  if ((huart->Instance->CR1 & USART_CR1_TE) == USART_CR1_TE)
 8003312:	6822      	ldr	r2, [r4, #0]
 8003314:	6812      	ldr	r2, [r2, #0]
 8003316:	0713      	lsls	r3, r2, #28
 8003318:	d410      	bmi.n	800333c <UART_CheckIdleState+0x3c>
  if ((huart->Instance->CR1 & USART_CR1_RE) == USART_CR1_RE)
 800331a:	6823      	ldr	r3, [r4, #0]
 800331c:	681b      	ldr	r3, [r3, #0]
 800331e:	075b      	lsls	r3, r3, #29
 8003320:	d419      	bmi.n	8003356 <UART_CheckIdleState+0x56>
  huart->gState = HAL_UART_STATE_READY;
 8003322:	2320      	movs	r3, #32
 8003324:	2288      	movs	r2, #136	; 0x88
 8003326:	50a3      	str	r3, [r4, r2]
  huart->RxState = HAL_UART_STATE_READY;
 8003328:	3204      	adds	r2, #4
 800332a:	50a3      	str	r3, [r4, r2]
  huart->ReceptionType = HAL_UART_RECEPTION_STANDARD;
 800332c:	2300      	movs	r3, #0
 800332e:	66e3      	str	r3, [r4, #108]	; 0x6c
  huart->RxEventType = HAL_UART_RXEVENT_TC;
 8003330:	6723      	str	r3, [r4, #112]	; 0x70
  __HAL_UNLOCK(huart);
 8003332:	3a08      	subs	r2, #8
 8003334:	54a3      	strb	r3, [r4, r2]
  return HAL_OK;
 8003336:	2000      	movs	r0, #0
}
 8003338:	b003      	add	sp, #12
 800333a:	bd30      	pop	{r4, r5, pc}
    if (UART_WaitOnFlagUntilTimeout(huart, USART_ISR_TEACK, RESET, tickstart, HAL_UART_TIMEOUT_VALUE) != HAL_OK)
 800333c:	2180      	movs	r1, #128	; 0x80
 800333e:	4b0c      	ldr	r3, [pc, #48]	; (8003370 <UART_CheckIdleState+0x70>)
 8003340:	9300      	str	r3, [sp, #0]
 8003342:	0003      	movs	r3, r0
 8003344:	2200      	movs	r2, #0
 8003346:	0389      	lsls	r1, r1, #14
 8003348:	0020      	movs	r0, r4
 800334a:	f7ff feef 	bl	800312c <UART_WaitOnFlagUntilTimeout>
 800334e:	2800      	cmp	r0, #0
 8003350:	d0e3      	beq.n	800331a <UART_CheckIdleState+0x1a>
      return HAL_TIMEOUT;
 8003352:	2003      	movs	r0, #3
 8003354:	e7f0      	b.n	8003338 <UART_CheckIdleState+0x38>
    if (UART_WaitOnFlagUntilTimeout(huart, USART_ISR_REACK, RESET, tickstart, HAL_UART_TIMEOUT_VALUE) != HAL_OK)
 8003356:	2180      	movs	r1, #128	; 0x80
 8003358:	4b05      	ldr	r3, [pc, #20]	; (8003370 <UART_CheckIdleState+0x70>)
 800335a:	9300      	str	r3, [sp, #0]
 800335c:	002b      	movs	r3, r5
 800335e:	2200      	movs	r2, #0
 8003360:	03c9      	lsls	r1, r1, #15
 8003362:	0020      	movs	r0, r4
 8003364:	f7ff fee2 	bl	800312c <UART_WaitOnFlagUntilTimeout>
 8003368:	2800      	cmp	r0, #0
 800336a:	d0da      	beq.n	8003322 <UART_CheckIdleState+0x22>
      return HAL_TIMEOUT;
 800336c:	2003      	movs	r0, #3
 800336e:	e7e3      	b.n	8003338 <UART_CheckIdleState+0x38>
 8003370:	01ffffff 	.word	0x01ffffff

08003374 <HAL_UART_Init>:
{
 8003374:	b510      	push	{r4, lr}
 8003376:	1e04      	subs	r4, r0, #0
  if (huart == NULL)
 8003378:	d030      	beq.n	80033dc <HAL_UART_Init+0x68>
  if (huart->gState == HAL_UART_STATE_RESET)
 800337a:	2388      	movs	r3, #136	; 0x88
 800337c:	58c3      	ldr	r3, [r0, r3]
 800337e:	2b00      	cmp	r3, #0
 8003380:	d022      	beq.n	80033c8 <HAL_UART_Init+0x54>
  huart->gState = HAL_UART_STATE_BUSY;
 8003382:	2388      	movs	r3, #136	; 0x88
 8003384:	2224      	movs	r2, #36	; 0x24
 8003386:	50e2      	str	r2, [r4, r3]
  __HAL_UART_DISABLE(huart);
 8003388:	6822      	ldr	r2, [r4, #0]
 800338a:	6813      	ldr	r3, [r2, #0]
 800338c:	2101      	movs	r1, #1
 800338e:	438b      	bics	r3, r1
 8003390:	6013      	str	r3, [r2, #0]
  if (UART_SetConfig(huart) == HAL_ERROR)
 8003392:	0020      	movs	r0, r4
 8003394:	f7ff fd84 	bl	8002ea0 <UART_SetConfig>
 8003398:	2801      	cmp	r0, #1
 800339a:	d014      	beq.n	80033c6 <HAL_UART_Init+0x52>
  if (huart->AdvancedInit.AdvFeatureInit != UART_ADVFEATURE_NO_INIT)
 800339c:	6aa3      	ldr	r3, [r4, #40]	; 0x28
 800339e:	2b00      	cmp	r3, #0
 80033a0:	d118      	bne.n	80033d4 <HAL_UART_Init+0x60>
  CLEAR_BIT(huart->Instance->CR2, (USART_CR2_LINEN | USART_CR2_CLKEN));
 80033a2:	6822      	ldr	r2, [r4, #0]
 80033a4:	6853      	ldr	r3, [r2, #4]
 80033a6:	490e      	ldr	r1, [pc, #56]	; (80033e0 <HAL_UART_Init+0x6c>)
 80033a8:	400b      	ands	r3, r1
 80033aa:	6053      	str	r3, [r2, #4]
  CLEAR_BIT(huart->Instance->CR3, (USART_CR3_SCEN | USART_CR3_HDSEL | USART_CR3_IREN));
 80033ac:	6822      	ldr	r2, [r4, #0]
 80033ae:	6893      	ldr	r3, [r2, #8]
 80033b0:	212a      	movs	r1, #42	; 0x2a
 80033b2:	438b      	bics	r3, r1
 80033b4:	6093      	str	r3, [r2, #8]
  __HAL_UART_ENABLE(huart);
 80033b6:	6822      	ldr	r2, [r4, #0]
 80033b8:	6813      	ldr	r3, [r2, #0]
 80033ba:	3929      	subs	r1, #41	; 0x29
 80033bc:	430b      	orrs	r3, r1
 80033be:	6013      	str	r3, [r2, #0]
  return (UART_CheckIdleState(huart));
 80033c0:	0020      	movs	r0, r4
 80033c2:	f7ff ff9d 	bl	8003300 <UART_CheckIdleState>
}
 80033c6:	bd10      	pop	{r4, pc}
    huart->Lock = HAL_UNLOCKED;
 80033c8:	3384      	adds	r3, #132	; 0x84
 80033ca:	2200      	movs	r2, #0
 80033cc:	54c2      	strb	r2, [r0, r3]
    HAL_UART_MspInit(huart);
 80033ce:	f7fd fd05 	bl	8000ddc <HAL_UART_MspInit>
 80033d2:	e7d6      	b.n	8003382 <HAL_UART_Init+0xe>
    UART_AdvFeatureConfig(huart);
 80033d4:	0020      	movs	r0, r4
 80033d6:	f7ff fe39 	bl	800304c <UART_AdvFeatureConfig>
 80033da:	e7e2      	b.n	80033a2 <HAL_UART_Init+0x2e>
    return HAL_ERROR;
 80033dc:	2001      	movs	r0, #1
 80033de:	e7f2      	b.n	80033c6 <HAL_UART_Init+0x52>
 80033e0:	ffffb7ff 	.word	0xffffb7ff

080033e4 <UART_Start_Receive_DMA>:
{
 80033e4:	b510      	push	{r4, lr}
 80033e6:	0004      	movs	r4, r0
 80033e8:	0013      	movs	r3, r2
  huart->pRxBuffPtr = pData;
 80033ea:	6581      	str	r1, [r0, #88]	; 0x58
  huart->RxXferSize = Size;
 80033ec:	225c      	movs	r2, #92	; 0x5c
 80033ee:	5283      	strh	r3, [r0, r2]
  huart->ErrorCode = HAL_UART_ERROR_NONE;
 80033f0:	3234      	adds	r2, #52	; 0x34
 80033f2:	2100      	movs	r1, #0
 80033f4:	5081      	str	r1, [r0, r2]
  huart->RxState = HAL_UART_STATE_BUSY_RX;
 80033f6:	3a04      	subs	r2, #4
 80033f8:	3122      	adds	r1, #34	; 0x22
 80033fa:	5081      	str	r1, [r0, r2]
  if (huart->hdmarx != NULL)
 80033fc:	3a0c      	subs	r2, #12
 80033fe:	5882      	ldr	r2, [r0, r2]
 8003400:	2a00      	cmp	r2, #0
 8003402:	d013      	beq.n	800342c <UART_Start_Receive_DMA+0x48>
    huart->hdmarx->XferCpltCallback = UART_DMAReceiveCplt;
 8003404:	4921      	ldr	r1, [pc, #132]	; (800348c <UART_Start_Receive_DMA+0xa8>)
 8003406:	62d1      	str	r1, [r2, #44]	; 0x2c
    huart->hdmarx->XferHalfCpltCallback = UART_DMARxHalfCplt;
 8003408:	2280      	movs	r2, #128	; 0x80
 800340a:	5881      	ldr	r1, [r0, r2]
 800340c:	4820      	ldr	r0, [pc, #128]	; (8003490 <UART_Start_Receive_DMA+0xac>)
 800340e:	6308      	str	r0, [r1, #48]	; 0x30
    huart->hdmarx->XferErrorCallback = UART_DMAError;
 8003410:	58a1      	ldr	r1, [r4, r2]
 8003412:	4820      	ldr	r0, [pc, #128]	; (8003494 <UART_Start_Receive_DMA+0xb0>)
 8003414:	6348      	str	r0, [r1, #52]	; 0x34
    huart->hdmarx->XferAbortCallback = NULL;
 8003416:	58a1      	ldr	r1, [r4, r2]
 8003418:	2000      	movs	r0, #0
 800341a:	6388      	str	r0, [r1, #56]	; 0x38
    if (HAL_DMA_Start_IT(huart->hdmarx, (uint32_t)&huart->Instance->RDR, (uint32_t)huart->pRxBuffPtr, Size) != HAL_OK)
 800341c:	6821      	ldr	r1, [r4, #0]
 800341e:	3124      	adds	r1, #36	; 0x24
 8003420:	58a0      	ldr	r0, [r4, r2]
 8003422:	6da2      	ldr	r2, [r4, #88]	; 0x58
 8003424:	f7fd feea 	bl	80011fc <HAL_DMA_Start_IT>
 8003428:	2800      	cmp	r0, #0
 800342a:	d126      	bne.n	800347a <UART_Start_Receive_DMA+0x96>
  if (huart->Init.Parity != UART_PARITY_NONE)
 800342c:	6923      	ldr	r3, [r4, #16]
 800342e:	2b00      	cmp	r3, #0
 8003430:	d00b      	beq.n	800344a <UART_Start_Receive_DMA+0x66>
  __ASM volatile ("MRS %0, primask" : "=r" (result) :: "memory");
 8003432:	f3ef 8110 	mrs	r1, PRIMASK
  __ASM volatile ("MSR primask, %0" : : "r" (priMask) : "memory");
 8003436:	2301      	movs	r3, #1
 8003438:	f383 8810 	msr	PRIMASK, r3
    ATOMIC_SET_BIT(huart->Instance->CR1, USART_CR1_PEIE);
 800343c:	6822      	ldr	r2, [r4, #0]
 800343e:	6810      	ldr	r0, [r2, #0]
 8003440:	33ff      	adds	r3, #255	; 0xff
 8003442:	4303      	orrs	r3, r0
 8003444:	6013      	str	r3, [r2, #0]
 8003446:	f381 8810 	msr	PRIMASK, r1
  __ASM volatile ("MRS %0, primask" : "=r" (result) :: "memory");
 800344a:	f3ef 8010 	mrs	r0, PRIMASK
  __ASM volatile ("MSR primask, %0" : : "r" (priMask) : "memory");
 800344e:	2301      	movs	r3, #1
 8003450:	f383 8810 	msr	PRIMASK, r3
  ATOMIC_SET_BIT(huart->Instance->CR3, USART_CR3_EIE);
 8003454:	6821      	ldr	r1, [r4, #0]
 8003456:	688a      	ldr	r2, [r1, #8]
 8003458:	431a      	orrs	r2, r3
 800345a:	608a      	str	r2, [r1, #8]
 800345c:	f380 8810 	msr	PRIMASK, r0
  __ASM volatile ("MRS %0, primask" : "=r" (result) :: "memory");
 8003460:	f3ef 8110 	mrs	r1, PRIMASK
  __ASM volatile ("MSR primask, %0" : : "r" (priMask) : "memory");
 8003464:	f383 8810 	msr	PRIMASK, r3
  ATOMIC_SET_BIT(huart->Instance->CR3, USART_CR3_DMAR);
 8003468:	6822      	ldr	r2, [r4, #0]
 800346a:	6893      	ldr	r3, [r2, #8]
 800346c:	2040      	movs	r0, #64	; 0x40
 800346e:	4303      	orrs	r3, r0
 8003470:	6093      	str	r3, [r2, #8]
 8003472:	f381 8810 	msr	PRIMASK, r1
  return HAL_OK;
 8003476:	2000      	movs	r0, #0
}
 8003478:	bd10      	pop	{r4, pc}
      huart->ErrorCode = HAL_UART_ERROR_DMA;
 800347a:	2390      	movs	r3, #144	; 0x90
 800347c:	2210      	movs	r2, #16
 800347e:	50e2      	str	r2, [r4, r3]
      huart->RxState = HAL_UART_STATE_READY;
 8003480:	3b04      	subs	r3, #4
 8003482:	3210      	adds	r2, #16
 8003484:	50e2      	str	r2, [r4, r3]
      return HAL_ERROR;
 8003486:	2001      	movs	r0, #1
 8003488:	e7f6      	b.n	8003478 <UART_Start_Receive_DMA+0x94>
 800348a:	46c0      	nop			; (mov r8, r8)
 800348c:	08002e09 	.word	0x08002e09
 8003490:	08002de9 	.word	0x08002de9
 8003494:	08002a63 	.word	0x08002a63

08003498 <UARTEx_SetNbDataToProcess>:
  *       the UART configuration registers.
  * @param huart UART handle.
  * @retval None
  */
static void UARTEx_SetNbDataToProcess(UART_HandleTypeDef *huart)
{
 8003498:	b5f8      	push	{r3, r4, r5, r6, r7, lr}
 800349a:	0004      	movs	r4, r0
  uint8_t rx_fifo_threshold;
  uint8_t tx_fifo_threshold;
  static const uint8_t numerator[] = {1U, 1U, 1U, 3U, 7U, 1U, 0U, 0U};
  static const uint8_t denominator[] = {8U, 4U, 2U, 4U, 8U, 1U, 1U, 1U};

  if (huart->FifoMode == UART_FIFOMODE_DISABLE)
 800349c:	6e43      	ldr	r3, [r0, #100]	; 0x64
 800349e:	2b00      	cmp	r3, #0
 80034a0:	d105      	bne.n	80034ae <UARTEx_SetNbDataToProcess+0x16>
  {
    huart->NbTxDataToProcess = 1U;
 80034a2:	3301      	adds	r3, #1
 80034a4:	226a      	movs	r2, #106	; 0x6a
 80034a6:	5283      	strh	r3, [r0, r2]
    huart->NbRxDataToProcess = 1U;
 80034a8:	3a02      	subs	r2, #2
 80034aa:	5283      	strh	r3, [r0, r2]
    huart->NbTxDataToProcess = ((uint16_t)tx_fifo_depth * numerator[tx_fifo_threshold]) /
                               (uint16_t)denominator[tx_fifo_threshold];
    huart->NbRxDataToProcess = ((uint16_t)rx_fifo_depth * numerator[rx_fifo_threshold]) /
                               (uint16_t)denominator[rx_fifo_threshold];
  }
}
 80034ac:	bdf8      	pop	{r3, r4, r5, r6, r7, pc}
    rx_fifo_threshold = (uint8_t)(READ_BIT(huart->Instance->CR3, USART_CR3_RXFTCFG) >> USART_CR3_RXFTCFG_Pos);
 80034ae:	6802      	ldr	r2, [r0, #0]
 80034b0:	6895      	ldr	r5, [r2, #8]
 80034b2:	0e6d      	lsrs	r5, r5, #25
 80034b4:	2307      	movs	r3, #7
 80034b6:	401d      	ands	r5, r3
    tx_fifo_threshold = (uint8_t)(READ_BIT(huart->Instance->CR3, USART_CR3_TXFTCFG) >> USART_CR3_TXFTCFG_Pos);
 80034b8:	6892      	ldr	r2, [r2, #8]
 80034ba:	0f52      	lsrs	r2, r2, #29
 80034bc:	4013      	ands	r3, r2
    huart->NbTxDataToProcess = ((uint16_t)tx_fifo_depth * numerator[tx_fifo_threshold]) /
 80034be:	4f08      	ldr	r7, [pc, #32]	; (80034e0 <UARTEx_SetNbDataToProcess+0x48>)
 80034c0:	5cf8      	ldrb	r0, [r7, r3]
 80034c2:	00c0      	lsls	r0, r0, #3
                               (uint16_t)denominator[tx_fifo_threshold];
 80034c4:	4e07      	ldr	r6, [pc, #28]	; (80034e4 <UARTEx_SetNbDataToProcess+0x4c>)
 80034c6:	5cf1      	ldrb	r1, [r6, r3]
    huart->NbTxDataToProcess = ((uint16_t)tx_fifo_depth * numerator[tx_fifo_threshold]) /
 80034c8:	f7fc feae 	bl	8000228 <__divsi3>
 80034cc:	236a      	movs	r3, #106	; 0x6a
 80034ce:	52e0      	strh	r0, [r4, r3]
    huart->NbRxDataToProcess = ((uint16_t)rx_fifo_depth * numerator[rx_fifo_threshold]) /
 80034d0:	5d78      	ldrb	r0, [r7, r5]
 80034d2:	00c0      	lsls	r0, r0, #3
                               (uint16_t)denominator[rx_fifo_threshold];
 80034d4:	5d71      	ldrb	r1, [r6, r5]
    huart->NbRxDataToProcess = ((uint16_t)rx_fifo_depth * numerator[rx_fifo_threshold]) /
 80034d6:	f7fc fea7 	bl	8000228 <__divsi3>
 80034da:	2368      	movs	r3, #104	; 0x68
 80034dc:	52e0      	strh	r0, [r4, r3]
}
 80034de:	e7e5      	b.n	80034ac <UARTEx_SetNbDataToProcess+0x14>
 80034e0:	08004148 	.word	0x08004148
 80034e4:	08004140 	.word	0x08004140

080034e8 <HAL_UARTEx_WakeupCallback>:
}
 80034e8:	4770      	bx	lr

080034ea <HAL_UARTEx_RxFifoFullCallback>:
}
 80034ea:	4770      	bx	lr

080034ec <HAL_UARTEx_TxFifoEmptyCallback>:
}
 80034ec:	4770      	bx	lr
	...

080034f0 <HAL_UARTEx_DisableFifoMode>:
{
 80034f0:	b570      	push	{r4, r5, r6, lr}
  __HAL_LOCK(huart);
 80034f2:	2384      	movs	r3, #132	; 0x84
 80034f4:	5cc3      	ldrb	r3, [r0, r3]
 80034f6:	2b01      	cmp	r3, #1
 80034f8:	d015      	beq.n	8003526 <HAL_UARTEx_DisableFifoMode+0x36>
 80034fa:	2484      	movs	r4, #132	; 0x84
 80034fc:	2601      	movs	r6, #1
 80034fe:	5506      	strb	r6, [r0, r4]
  huart->gState = HAL_UART_STATE_BUSY;
 8003500:	2588      	movs	r5, #136	; 0x88
 8003502:	2324      	movs	r3, #36	; 0x24
 8003504:	5143      	str	r3, [r0, r5]
  tmpcr1 = READ_REG(huart->Instance->CR1);
 8003506:	6802      	ldr	r2, [r0, #0]
 8003508:	6813      	ldr	r3, [r2, #0]
  __HAL_UART_DISABLE(huart);
 800350a:	6811      	ldr	r1, [r2, #0]
 800350c:	43b1      	bics	r1, r6
 800350e:	6011      	str	r1, [r2, #0]
  CLEAR_BIT(tmpcr1, USART_CR1_FIFOEN);
 8003510:	4a06      	ldr	r2, [pc, #24]	; (800352c <HAL_UARTEx_DisableFifoMode+0x3c>)
 8003512:	4013      	ands	r3, r2
  huart->FifoMode = UART_FIFOMODE_DISABLE;
 8003514:	2200      	movs	r2, #0
 8003516:	6642      	str	r2, [r0, #100]	; 0x64
  WRITE_REG(huart->Instance->CR1, tmpcr1);
 8003518:	6801      	ldr	r1, [r0, #0]
 800351a:	600b      	str	r3, [r1, #0]
  huart->gState = HAL_UART_STATE_READY;
 800351c:	2320      	movs	r3, #32
 800351e:	5143      	str	r3, [r0, r5]
  __HAL_UNLOCK(huart);
 8003520:	5502      	strb	r2, [r0, r4]
  return HAL_OK;
 8003522:	2000      	movs	r0, #0
}
 8003524:	bd70      	pop	{r4, r5, r6, pc}
  __HAL_LOCK(huart);
 8003526:	2002      	movs	r0, #2
 8003528:	e7fc      	b.n	8003524 <HAL_UARTEx_DisableFifoMode+0x34>
 800352a:	46c0      	nop			; (mov r8, r8)
 800352c:	dfffffff 	.word	0xdfffffff

08003530 <HAL_UARTEx_SetTxFifoThreshold>:
{
 8003530:	b5f8      	push	{r3, r4, r5, r6, r7, lr}
 8003532:	0004      	movs	r4, r0
 8003534:	000a      	movs	r2, r1
  __HAL_LOCK(huart);
 8003536:	2384      	movs	r3, #132	; 0x84
 8003538:	5cc3      	ldrb	r3, [r0, r3]
 800353a:	2b01      	cmp	r3, #1
 800353c:	d01b      	beq.n	8003576 <HAL_UARTEx_SetTxFifoThreshold+0x46>
 800353e:	2584      	movs	r5, #132	; 0x84
 8003540:	2001      	movs	r0, #1
 8003542:	5560      	strb	r0, [r4, r5]
  huart->gState = HAL_UART_STATE_BUSY;
 8003544:	2688      	movs	r6, #136	; 0x88
 8003546:	2324      	movs	r3, #36	; 0x24
 8003548:	51a3      	str	r3, [r4, r6]
  tmpcr1 = READ_REG(huart->Instance->CR1);
 800354a:	6823      	ldr	r3, [r4, #0]
 800354c:	681f      	ldr	r7, [r3, #0]
  __HAL_UART_DISABLE(huart);
 800354e:	6819      	ldr	r1, [r3, #0]
 8003550:	4381      	bics	r1, r0
 8003552:	6019      	str	r1, [r3, #0]
  MODIFY_REG(huart->Instance->CR3, USART_CR3_TXFTCFG, Threshold);
 8003554:	6820      	ldr	r0, [r4, #0]
 8003556:	6883      	ldr	r3, [r0, #8]
 8003558:	00db      	lsls	r3, r3, #3
 800355a:	08d9      	lsrs	r1, r3, #3
 800355c:	4311      	orrs	r1, r2
 800355e:	6081      	str	r1, [r0, #8]
  UARTEx_SetNbDataToProcess(huart);
 8003560:	0020      	movs	r0, r4
 8003562:	f7ff ff99 	bl	8003498 <UARTEx_SetNbDataToProcess>
  WRITE_REG(huart->Instance->CR1, tmpcr1);
 8003566:	6823      	ldr	r3, [r4, #0]
 8003568:	601f      	str	r7, [r3, #0]
  huart->gState = HAL_UART_STATE_READY;
 800356a:	2320      	movs	r3, #32
 800356c:	51a3      	str	r3, [r4, r6]
  __HAL_UNLOCK(huart);
 800356e:	2300      	movs	r3, #0
 8003570:	5563      	strb	r3, [r4, r5]
  return HAL_OK;
 8003572:	2000      	movs	r0, #0
}
 8003574:	bdf8      	pop	{r3, r4, r5, r6, r7, pc}
  __HAL_LOCK(huart);
 8003576:	2002      	movs	r0, #2
 8003578:	e7fc      	b.n	8003574 <HAL_UARTEx_SetTxFifoThreshold+0x44>
	...

0800357c <HAL_UARTEx_SetRxFifoThreshold>:
{
 800357c:	b5f8      	push	{r3, r4, r5, r6, r7, lr}
 800357e:	0004      	movs	r4, r0
 8003580:	000b      	movs	r3, r1
  __HAL_LOCK(huart);
 8003582:	2284      	movs	r2, #132	; 0x84
 8003584:	5c82      	ldrb	r2, [r0, r2]
 8003586:	2a01      	cmp	r2, #1
 8003588:	d01b      	beq.n	80035c2 <HAL_UARTEx_SetRxFifoThreshold+0x46>
 800358a:	2584      	movs	r5, #132	; 0x84
 800358c:	2001      	movs	r0, #1
 800358e:	5560      	strb	r0, [r4, r5]
  huart->gState = HAL_UART_STATE_BUSY;
 8003590:	2688      	movs	r6, #136	; 0x88
 8003592:	2224      	movs	r2, #36	; 0x24
 8003594:	51a2      	str	r2, [r4, r6]
  tmpcr1 = READ_REG(huart->Instance->CR1);
 8003596:	6822      	ldr	r2, [r4, #0]
 8003598:	6817      	ldr	r7, [r2, #0]
  __HAL_UART_DISABLE(huart);
 800359a:	6811      	ldr	r1, [r2, #0]
 800359c:	4381      	bics	r1, r0
 800359e:	6011      	str	r1, [r2, #0]
  MODIFY_REG(huart->Instance->CR3, USART_CR3_RXFTCFG, Threshold);
 80035a0:	6822      	ldr	r2, [r4, #0]
 80035a2:	6891      	ldr	r1, [r2, #8]
 80035a4:	4808      	ldr	r0, [pc, #32]	; (80035c8 <HAL_UARTEx_SetRxFifoThreshold+0x4c>)
 80035a6:	4001      	ands	r1, r0
 80035a8:	4319      	orrs	r1, r3
 80035aa:	6091      	str	r1, [r2, #8]
  UARTEx_SetNbDataToProcess(huart);
 80035ac:	0020      	movs	r0, r4
 80035ae:	f7ff ff73 	bl	8003498 <UARTEx_SetNbDataToProcess>
  WRITE_REG(huart->Instance->CR1, tmpcr1);
 80035b2:	6823      	ldr	r3, [r4, #0]
 80035b4:	601f      	str	r7, [r3, #0]
  huart->gState = HAL_UART_STATE_READY;
 80035b6:	2320      	movs	r3, #32
 80035b8:	51a3      	str	r3, [r4, r6]
  __HAL_UNLOCK(huart);
 80035ba:	2300      	movs	r3, #0
 80035bc:	5563      	strb	r3, [r4, r5]
  return HAL_OK;
 80035be:	2000      	movs	r0, #0
}
 80035c0:	bdf8      	pop	{r3, r4, r5, r6, r7, pc}
  __HAL_LOCK(huart);
 80035c2:	2002      	movs	r0, #2
 80035c4:	e7fc      	b.n	80035c0 <HAL_UARTEx_SetRxFifoThreshold+0x44>
 80035c6:	46c0      	nop			; (mov r8, r8)
 80035c8:	f1ffffff 	.word	0xf1ffffff

080035cc <HAL_UARTEx_ReceiveToIdle_DMA>:
{
 80035cc:	b510      	push	{r4, lr}
 80035ce:	0004      	movs	r4, r0
  if (huart->RxState == HAL_UART_STATE_READY)
 80035d0:	238c      	movs	r3, #140	; 0x8c
 80035d2:	58c3      	ldr	r3, [r0, r3]
 80035d4:	2b20      	cmp	r3, #32
 80035d6:	d12a      	bne.n	800362e <HAL_UARTEx_ReceiveToIdle_DMA+0x62>
    if ((pData == NULL) || (Size == 0U))
 80035d8:	2900      	cmp	r1, #0
 80035da:	d02a      	beq.n	8003632 <HAL_UARTEx_ReceiveToIdle_DMA+0x66>
 80035dc:	2a00      	cmp	r2, #0
 80035de:	d02a      	beq.n	8003636 <HAL_UARTEx_ReceiveToIdle_DMA+0x6a>
    if ((huart->Init.WordLength == UART_WORDLENGTH_9B) && (huart->Init.Parity == UART_PARITY_NONE))
 80035e0:	2380      	movs	r3, #128	; 0x80
 80035e2:	015b      	lsls	r3, r3, #5
 80035e4:	6880      	ldr	r0, [r0, #8]
 80035e6:	4298      	cmp	r0, r3
 80035e8:	d104      	bne.n	80035f4 <HAL_UARTEx_ReceiveToIdle_DMA+0x28>
 80035ea:	6923      	ldr	r3, [r4, #16]
 80035ec:	2b00      	cmp	r3, #0
 80035ee:	d101      	bne.n	80035f4 <HAL_UARTEx_ReceiveToIdle_DMA+0x28>
      if ((((uint32_t)pData) & 1U) != 0U)
 80035f0:	07cb      	lsls	r3, r1, #31
 80035f2:	d422      	bmi.n	800363a <HAL_UARTEx_ReceiveToIdle_DMA+0x6e>
    huart->ReceptionType = HAL_UART_RECEPTION_TOIDLE;
 80035f4:	2301      	movs	r3, #1
 80035f6:	66e3      	str	r3, [r4, #108]	; 0x6c
    huart->RxEventType = HAL_UART_RXEVENT_TC;
 80035f8:	2300      	movs	r3, #0
 80035fa:	6723      	str	r3, [r4, #112]	; 0x70
    status =  UART_Start_Receive_DMA(huart, pData, Size);
 80035fc:	0020      	movs	r0, r4
 80035fe:	f7ff fef1 	bl	80033e4 <UART_Start_Receive_DMA>
    if (status == HAL_OK)
 8003602:	2800      	cmp	r0, #0
 8003604:	d114      	bne.n	8003630 <HAL_UARTEx_ReceiveToIdle_DMA+0x64>
      if (huart->ReceptionType == HAL_UART_RECEPTION_TOIDLE)
 8003606:	6ee3      	ldr	r3, [r4, #108]	; 0x6c
 8003608:	2b01      	cmp	r3, #1
 800360a:	d001      	beq.n	8003610 <HAL_UARTEx_ReceiveToIdle_DMA+0x44>
        status = HAL_ERROR;
 800360c:	2001      	movs	r0, #1
    return status;
 800360e:	e00f      	b.n	8003630 <HAL_UARTEx_ReceiveToIdle_DMA+0x64>
        __HAL_UART_CLEAR_FLAG(huart, UART_CLEAR_IDLEF);
 8003610:	6823      	ldr	r3, [r4, #0]
 8003612:	2110      	movs	r1, #16
 8003614:	6219      	str	r1, [r3, #32]
  __ASM volatile ("MRS %0, primask" : "=r" (result) :: "memory");
 8003616:	f3ef 8c10 	mrs	ip, PRIMASK
  __ASM volatile ("MSR primask, %0" : : "r" (priMask) : "memory");
 800361a:	2301      	movs	r3, #1
 800361c:	f383 8810 	msr	PRIMASK, r3
        ATOMIC_SET_BIT(huart->Instance->CR1, USART_CR1_IDLEIE);
 8003620:	6822      	ldr	r2, [r4, #0]
 8003622:	6813      	ldr	r3, [r2, #0]
 8003624:	430b      	orrs	r3, r1
 8003626:	6013      	str	r3, [r2, #0]
 8003628:	f38c 8810 	msr	PRIMASK, ip
}
 800362c:	e000      	b.n	8003630 <HAL_UARTEx_ReceiveToIdle_DMA+0x64>
    return HAL_BUSY;
 800362e:	2002      	movs	r0, #2
}
 8003630:	bd10      	pop	{r4, pc}
      return HAL_ERROR;
 8003632:	2001      	movs	r0, #1
 8003634:	e7fc      	b.n	8003630 <HAL_UARTEx_ReceiveToIdle_DMA+0x64>
 8003636:	2001      	movs	r0, #1
 8003638:	e7fa      	b.n	8003630 <HAL_UARTEx_ReceiveToIdle_DMA+0x64>
        return  HAL_ERROR;
 800363a:	2001      	movs	r0, #1
 800363c:	e7f8      	b.n	8003630 <HAL_UARTEx_ReceiveToIdle_DMA+0x64>
	...

08003640 <__errno>:
 8003640:	4b01      	ldr	r3, [pc, #4]	; (8003648 <__errno+0x8>)
 8003642:	6818      	ldr	r0, [r3, #0]
 8003644:	4770      	bx	lr
 8003646:	46c0      	nop			; (mov r8, r8)
 8003648:	20000090 	.word	0x20000090

0800364c <__libc_init_array>:
 800364c:	b570      	push	{r4, r5, r6, lr}
 800364e:	2600      	movs	r6, #0
 8003650:	4d0c      	ldr	r5, [pc, #48]	; (8003684 <__libc_init_array+0x38>)
 8003652:	4c0d      	ldr	r4, [pc, #52]	; (8003688 <__libc_init_array+0x3c>)
 8003654:	1b64      	subs	r4, r4, r5
 8003656:	10a4      	asrs	r4, r4, #2
 8003658:	42a6      	cmp	r6, r4
 800365a:	d109      	bne.n	8003670 <__libc_init_array+0x24>
 800365c:	2600      	movs	r6, #0
 800365e:	f000 fc8b 	bl	8003f78 <_init>
 8003662:	4d0a      	ldr	r5, [pc, #40]	; (800368c <__libc_init_array+0x40>)
 8003664:	4c0a      	ldr	r4, [pc, #40]	; (8003690 <__libc_init_array+0x44>)
 8003666:	1b64      	subs	r4, r4, r5
 8003668:	10a4      	asrs	r4, r4, #2
 800366a:	42a6      	cmp	r6, r4
 800366c:	d105      	bne.n	800367a <__libc_init_array+0x2e>
 800366e:	bd70      	pop	{r4, r5, r6, pc}
 8003670:	00b3      	lsls	r3, r6, #2
 8003672:	58eb      	ldr	r3, [r5, r3]
 8003674:	4798      	blx	r3
 8003676:	3601      	adds	r6, #1
 8003678:	e7ee      	b.n	8003658 <__libc_init_array+0xc>
 800367a:	00b3      	lsls	r3, r6, #2
 800367c:	58eb      	ldr	r3, [r5, r3]
 800367e:	4798      	blx	r3
 8003680:	3601      	adds	r6, #1
 8003682:	e7f2      	b.n	800366a <__libc_init_array+0x1e>
 8003684:	08004184 	.word	0x08004184
 8003688:	08004184 	.word	0x08004184
 800368c:	08004184 	.word	0x08004184
 8003690:	08004188 	.word	0x08004188

08003694 <memset>:
 8003694:	0003      	movs	r3, r0
 8003696:	1882      	adds	r2, r0, r2
 8003698:	4293      	cmp	r3, r2
 800369a:	d100      	bne.n	800369e <memset+0xa>
 800369c:	4770      	bx	lr
 800369e:	7019      	strb	r1, [r3, #0]
 80036a0:	3301      	adds	r3, #1
 80036a2:	e7f9      	b.n	8003698 <memset+0x4>

080036a4 <siprintf>:
 80036a4:	b40e      	push	{r1, r2, r3}
 80036a6:	b500      	push	{lr}
 80036a8:	490b      	ldr	r1, [pc, #44]	; (80036d8 <siprintf+0x34>)
 80036aa:	b09c      	sub	sp, #112	; 0x70
 80036ac:	ab1d      	add	r3, sp, #116	; 0x74
 80036ae:	9002      	str	r0, [sp, #8]
 80036b0:	9006      	str	r0, [sp, #24]
 80036b2:	9107      	str	r1, [sp, #28]
 80036b4:	9104      	str	r1, [sp, #16]
 80036b6:	4809      	ldr	r0, [pc, #36]	; (80036dc <siprintf+0x38>)
 80036b8:	4909      	ldr	r1, [pc, #36]	; (80036e0 <siprintf+0x3c>)
 80036ba:	cb04      	ldmia	r3!, {r2}
 80036bc:	9105      	str	r1, [sp, #20]
 80036be:	6800      	ldr	r0, [r0, #0]
 80036c0:	a902      	add	r1, sp, #8
 80036c2:	9301      	str	r3, [sp, #4]
 80036c4:	f000 f870 	bl	80037a8 <_svfiprintf_r>
 80036c8:	2300      	movs	r3, #0
 80036ca:	9a02      	ldr	r2, [sp, #8]
 80036cc:	7013      	strb	r3, [r2, #0]
 80036ce:	b01c      	add	sp, #112	; 0x70
 80036d0:	bc08      	pop	{r3}
 80036d2:	b003      	add	sp, #12
 80036d4:	4718      	bx	r3
 80036d6:	46c0      	nop			; (mov r8, r8)
 80036d8:	7fffffff 	.word	0x7fffffff
 80036dc:	20000090 	.word	0x20000090
 80036e0:	ffff0208 	.word	0xffff0208

080036e4 <__ssputs_r>:
 80036e4:	b5f0      	push	{r4, r5, r6, r7, lr}
 80036e6:	688e      	ldr	r6, [r1, #8]
 80036e8:	b085      	sub	sp, #20
 80036ea:	0007      	movs	r7, r0
 80036ec:	000c      	movs	r4, r1
 80036ee:	9203      	str	r2, [sp, #12]
 80036f0:	9301      	str	r3, [sp, #4]
 80036f2:	429e      	cmp	r6, r3
 80036f4:	d83c      	bhi.n	8003770 <__ssputs_r+0x8c>
 80036f6:	2390      	movs	r3, #144	; 0x90
 80036f8:	898a      	ldrh	r2, [r1, #12]
 80036fa:	00db      	lsls	r3, r3, #3
 80036fc:	421a      	tst	r2, r3
 80036fe:	d034      	beq.n	800376a <__ssputs_r+0x86>
 8003700:	6909      	ldr	r1, [r1, #16]
 8003702:	6823      	ldr	r3, [r4, #0]
 8003704:	6960      	ldr	r0, [r4, #20]
 8003706:	1a5b      	subs	r3, r3, r1
 8003708:	9302      	str	r3, [sp, #8]
 800370a:	2303      	movs	r3, #3
 800370c:	4343      	muls	r3, r0
 800370e:	0fdd      	lsrs	r5, r3, #31
 8003710:	18ed      	adds	r5, r5, r3
 8003712:	9b01      	ldr	r3, [sp, #4]
 8003714:	9802      	ldr	r0, [sp, #8]
 8003716:	3301      	adds	r3, #1
 8003718:	181b      	adds	r3, r3, r0
 800371a:	106d      	asrs	r5, r5, #1
 800371c:	42ab      	cmp	r3, r5
 800371e:	d900      	bls.n	8003722 <__ssputs_r+0x3e>
 8003720:	001d      	movs	r5, r3
 8003722:	0553      	lsls	r3, r2, #21
 8003724:	d532      	bpl.n	800378c <__ssputs_r+0xa8>
 8003726:	0029      	movs	r1, r5
 8003728:	0038      	movs	r0, r7
 800372a:	f000 fb53 	bl	8003dd4 <_malloc_r>
 800372e:	1e06      	subs	r6, r0, #0
 8003730:	d109      	bne.n	8003746 <__ssputs_r+0x62>
 8003732:	230c      	movs	r3, #12
 8003734:	603b      	str	r3, [r7, #0]
 8003736:	2340      	movs	r3, #64	; 0x40
 8003738:	2001      	movs	r0, #1
 800373a:	89a2      	ldrh	r2, [r4, #12]
 800373c:	4240      	negs	r0, r0
 800373e:	4313      	orrs	r3, r2
 8003740:	81a3      	strh	r3, [r4, #12]
 8003742:	b005      	add	sp, #20
 8003744:	bdf0      	pop	{r4, r5, r6, r7, pc}
 8003746:	9a02      	ldr	r2, [sp, #8]
 8003748:	6921      	ldr	r1, [r4, #16]
 800374a:	f000 faba 	bl	8003cc2 <memcpy>
 800374e:	89a3      	ldrh	r3, [r4, #12]
 8003750:	4a14      	ldr	r2, [pc, #80]	; (80037a4 <__ssputs_r+0xc0>)
 8003752:	401a      	ands	r2, r3
 8003754:	2380      	movs	r3, #128	; 0x80
 8003756:	4313      	orrs	r3, r2
 8003758:	81a3      	strh	r3, [r4, #12]
 800375a:	9b02      	ldr	r3, [sp, #8]
 800375c:	6126      	str	r6, [r4, #16]
 800375e:	18f6      	adds	r6, r6, r3
 8003760:	6026      	str	r6, [r4, #0]
 8003762:	6165      	str	r5, [r4, #20]
 8003764:	9e01      	ldr	r6, [sp, #4]
 8003766:	1aed      	subs	r5, r5, r3
 8003768:	60a5      	str	r5, [r4, #8]
 800376a:	9b01      	ldr	r3, [sp, #4]
 800376c:	429e      	cmp	r6, r3
 800376e:	d900      	bls.n	8003772 <__ssputs_r+0x8e>
 8003770:	9e01      	ldr	r6, [sp, #4]
 8003772:	0032      	movs	r2, r6
 8003774:	9903      	ldr	r1, [sp, #12]
 8003776:	6820      	ldr	r0, [r4, #0]
 8003778:	f000 faac 	bl	8003cd4 <memmove>
 800377c:	68a3      	ldr	r3, [r4, #8]
 800377e:	2000      	movs	r0, #0
 8003780:	1b9b      	subs	r3, r3, r6
 8003782:	60a3      	str	r3, [r4, #8]
 8003784:	6823      	ldr	r3, [r4, #0]
 8003786:	199e      	adds	r6, r3, r6
 8003788:	6026      	str	r6, [r4, #0]
 800378a:	e7da      	b.n	8003742 <__ssputs_r+0x5e>
 800378c:	002a      	movs	r2, r5
 800378e:	0038      	movs	r0, r7
 8003790:	f000 fb96 	bl	8003ec0 <_realloc_r>
 8003794:	1e06      	subs	r6, r0, #0
 8003796:	d1e0      	bne.n	800375a <__ssputs_r+0x76>
 8003798:	0038      	movs	r0, r7
 800379a:	6921      	ldr	r1, [r4, #16]
 800379c:	f000 faae 	bl	8003cfc <_free_r>
 80037a0:	e7c7      	b.n	8003732 <__ssputs_r+0x4e>
 80037a2:	46c0      	nop			; (mov r8, r8)
 80037a4:	fffffb7f 	.word	0xfffffb7f

080037a8 <_svfiprintf_r>:
 80037a8:	b5f0      	push	{r4, r5, r6, r7, lr}
 80037aa:	b0a1      	sub	sp, #132	; 0x84
 80037ac:	9003      	str	r0, [sp, #12]
 80037ae:	001d      	movs	r5, r3
 80037b0:	898b      	ldrh	r3, [r1, #12]
 80037b2:	000f      	movs	r7, r1
 80037b4:	0016      	movs	r6, r2
 80037b6:	061b      	lsls	r3, r3, #24
 80037b8:	d511      	bpl.n	80037de <_svfiprintf_r+0x36>
 80037ba:	690b      	ldr	r3, [r1, #16]
 80037bc:	2b00      	cmp	r3, #0
 80037be:	d10e      	bne.n	80037de <_svfiprintf_r+0x36>
 80037c0:	2140      	movs	r1, #64	; 0x40
 80037c2:	f000 fb07 	bl	8003dd4 <_malloc_r>
 80037c6:	6038      	str	r0, [r7, #0]
 80037c8:	6138      	str	r0, [r7, #16]
 80037ca:	2800      	cmp	r0, #0
 80037cc:	d105      	bne.n	80037da <_svfiprintf_r+0x32>
 80037ce:	230c      	movs	r3, #12
 80037d0:	9a03      	ldr	r2, [sp, #12]
 80037d2:	3801      	subs	r0, #1
 80037d4:	6013      	str	r3, [r2, #0]
 80037d6:	b021      	add	sp, #132	; 0x84
 80037d8:	bdf0      	pop	{r4, r5, r6, r7, pc}
 80037da:	2340      	movs	r3, #64	; 0x40
 80037dc:	617b      	str	r3, [r7, #20]
 80037de:	2300      	movs	r3, #0
 80037e0:	ac08      	add	r4, sp, #32
 80037e2:	6163      	str	r3, [r4, #20]
 80037e4:	3320      	adds	r3, #32
 80037e6:	7663      	strb	r3, [r4, #25]
 80037e8:	3310      	adds	r3, #16
 80037ea:	76a3      	strb	r3, [r4, #26]
 80037ec:	9507      	str	r5, [sp, #28]
 80037ee:	0035      	movs	r5, r6
 80037f0:	782b      	ldrb	r3, [r5, #0]
 80037f2:	2b00      	cmp	r3, #0
 80037f4:	d001      	beq.n	80037fa <_svfiprintf_r+0x52>
 80037f6:	2b25      	cmp	r3, #37	; 0x25
 80037f8:	d147      	bne.n	800388a <_svfiprintf_r+0xe2>
 80037fa:	1bab      	subs	r3, r5, r6
 80037fc:	9305      	str	r3, [sp, #20]
 80037fe:	42b5      	cmp	r5, r6
 8003800:	d00c      	beq.n	800381c <_svfiprintf_r+0x74>
 8003802:	0032      	movs	r2, r6
 8003804:	0039      	movs	r1, r7
 8003806:	9803      	ldr	r0, [sp, #12]
 8003808:	f7ff ff6c 	bl	80036e4 <__ssputs_r>
 800380c:	1c43      	adds	r3, r0, #1
 800380e:	d100      	bne.n	8003812 <_svfiprintf_r+0x6a>
 8003810:	e0ae      	b.n	8003970 <_svfiprintf_r+0x1c8>
 8003812:	6962      	ldr	r2, [r4, #20]
 8003814:	9b05      	ldr	r3, [sp, #20]
 8003816:	4694      	mov	ip, r2
 8003818:	4463      	add	r3, ip
 800381a:	6163      	str	r3, [r4, #20]
 800381c:	782b      	ldrb	r3, [r5, #0]
 800381e:	2b00      	cmp	r3, #0
 8003820:	d100      	bne.n	8003824 <_svfiprintf_r+0x7c>
 8003822:	e0a5      	b.n	8003970 <_svfiprintf_r+0x1c8>
 8003824:	2201      	movs	r2, #1
 8003826:	2300      	movs	r3, #0
 8003828:	4252      	negs	r2, r2
 800382a:	6062      	str	r2, [r4, #4]
 800382c:	a904      	add	r1, sp, #16
 800382e:	3254      	adds	r2, #84	; 0x54
 8003830:	1852      	adds	r2, r2, r1
 8003832:	1c6e      	adds	r6, r5, #1
 8003834:	6023      	str	r3, [r4, #0]
 8003836:	60e3      	str	r3, [r4, #12]
 8003838:	60a3      	str	r3, [r4, #8]
 800383a:	7013      	strb	r3, [r2, #0]
 800383c:	65a3      	str	r3, [r4, #88]	; 0x58
 800383e:	2205      	movs	r2, #5
 8003840:	7831      	ldrb	r1, [r6, #0]
 8003842:	4854      	ldr	r0, [pc, #336]	; (8003994 <_svfiprintf_r+0x1ec>)
 8003844:	f000 fa32 	bl	8003cac <memchr>
 8003848:	1c75      	adds	r5, r6, #1
 800384a:	2800      	cmp	r0, #0
 800384c:	d11f      	bne.n	800388e <_svfiprintf_r+0xe6>
 800384e:	6822      	ldr	r2, [r4, #0]
 8003850:	06d3      	lsls	r3, r2, #27
 8003852:	d504      	bpl.n	800385e <_svfiprintf_r+0xb6>
 8003854:	2353      	movs	r3, #83	; 0x53
 8003856:	a904      	add	r1, sp, #16
 8003858:	185b      	adds	r3, r3, r1
 800385a:	2120      	movs	r1, #32
 800385c:	7019      	strb	r1, [r3, #0]
 800385e:	0713      	lsls	r3, r2, #28
 8003860:	d504      	bpl.n	800386c <_svfiprintf_r+0xc4>
 8003862:	2353      	movs	r3, #83	; 0x53
 8003864:	a904      	add	r1, sp, #16
 8003866:	185b      	adds	r3, r3, r1
 8003868:	212b      	movs	r1, #43	; 0x2b
 800386a:	7019      	strb	r1, [r3, #0]
 800386c:	7833      	ldrb	r3, [r6, #0]
 800386e:	2b2a      	cmp	r3, #42	; 0x2a
 8003870:	d016      	beq.n	80038a0 <_svfiprintf_r+0xf8>
 8003872:	0035      	movs	r5, r6
 8003874:	2100      	movs	r1, #0
 8003876:	200a      	movs	r0, #10
 8003878:	68e3      	ldr	r3, [r4, #12]
 800387a:	782a      	ldrb	r2, [r5, #0]
 800387c:	1c6e      	adds	r6, r5, #1
 800387e:	3a30      	subs	r2, #48	; 0x30
 8003880:	2a09      	cmp	r2, #9
 8003882:	d94e      	bls.n	8003922 <_svfiprintf_r+0x17a>
 8003884:	2900      	cmp	r1, #0
 8003886:	d111      	bne.n	80038ac <_svfiprintf_r+0x104>
 8003888:	e017      	b.n	80038ba <_svfiprintf_r+0x112>
 800388a:	3501      	adds	r5, #1
 800388c:	e7b0      	b.n	80037f0 <_svfiprintf_r+0x48>
 800388e:	4b41      	ldr	r3, [pc, #260]	; (8003994 <_svfiprintf_r+0x1ec>)
 8003890:	6822      	ldr	r2, [r4, #0]
 8003892:	1ac0      	subs	r0, r0, r3
 8003894:	2301      	movs	r3, #1
 8003896:	4083      	lsls	r3, r0
 8003898:	4313      	orrs	r3, r2
 800389a:	002e      	movs	r6, r5
 800389c:	6023      	str	r3, [r4, #0]
 800389e:	e7ce      	b.n	800383e <_svfiprintf_r+0x96>
 80038a0:	9b07      	ldr	r3, [sp, #28]
 80038a2:	1d19      	adds	r1, r3, #4
 80038a4:	681b      	ldr	r3, [r3, #0]
 80038a6:	9107      	str	r1, [sp, #28]
 80038a8:	2b00      	cmp	r3, #0
 80038aa:	db01      	blt.n	80038b0 <_svfiprintf_r+0x108>
 80038ac:	930b      	str	r3, [sp, #44]	; 0x2c
 80038ae:	e004      	b.n	80038ba <_svfiprintf_r+0x112>
 80038b0:	425b      	negs	r3, r3
 80038b2:	60e3      	str	r3, [r4, #12]
 80038b4:	2302      	movs	r3, #2
 80038b6:	4313      	orrs	r3, r2
 80038b8:	6023      	str	r3, [r4, #0]
 80038ba:	782b      	ldrb	r3, [r5, #0]
 80038bc:	2b2e      	cmp	r3, #46	; 0x2e
 80038be:	d10a      	bne.n	80038d6 <_svfiprintf_r+0x12e>
 80038c0:	786b      	ldrb	r3, [r5, #1]
 80038c2:	2b2a      	cmp	r3, #42	; 0x2a
 80038c4:	d135      	bne.n	8003932 <_svfiprintf_r+0x18a>
 80038c6:	9b07      	ldr	r3, [sp, #28]
 80038c8:	3502      	adds	r5, #2
 80038ca:	1d1a      	adds	r2, r3, #4
 80038cc:	681b      	ldr	r3, [r3, #0]
 80038ce:	9207      	str	r2, [sp, #28]
 80038d0:	2b00      	cmp	r3, #0
 80038d2:	db2b      	blt.n	800392c <_svfiprintf_r+0x184>
 80038d4:	9309      	str	r3, [sp, #36]	; 0x24
 80038d6:	4e30      	ldr	r6, [pc, #192]	; (8003998 <_svfiprintf_r+0x1f0>)
 80038d8:	2203      	movs	r2, #3
 80038da:	0030      	movs	r0, r6
 80038dc:	7829      	ldrb	r1, [r5, #0]
 80038de:	f000 f9e5 	bl	8003cac <memchr>
 80038e2:	2800      	cmp	r0, #0
 80038e4:	d006      	beq.n	80038f4 <_svfiprintf_r+0x14c>
 80038e6:	2340      	movs	r3, #64	; 0x40
 80038e8:	1b80      	subs	r0, r0, r6
 80038ea:	4083      	lsls	r3, r0
 80038ec:	6822      	ldr	r2, [r4, #0]
 80038ee:	3501      	adds	r5, #1
 80038f0:	4313      	orrs	r3, r2
 80038f2:	6023      	str	r3, [r4, #0]
 80038f4:	7829      	ldrb	r1, [r5, #0]
 80038f6:	2206      	movs	r2, #6
 80038f8:	4828      	ldr	r0, [pc, #160]	; (800399c <_svfiprintf_r+0x1f4>)
 80038fa:	1c6e      	adds	r6, r5, #1
 80038fc:	7621      	strb	r1, [r4, #24]
 80038fe:	f000 f9d5 	bl	8003cac <memchr>
 8003902:	2800      	cmp	r0, #0
 8003904:	d03c      	beq.n	8003980 <_svfiprintf_r+0x1d8>
 8003906:	4b26      	ldr	r3, [pc, #152]	; (80039a0 <_svfiprintf_r+0x1f8>)
 8003908:	2b00      	cmp	r3, #0
 800390a:	d125      	bne.n	8003958 <_svfiprintf_r+0x1b0>
 800390c:	2207      	movs	r2, #7
 800390e:	9b07      	ldr	r3, [sp, #28]
 8003910:	3307      	adds	r3, #7
 8003912:	4393      	bics	r3, r2
 8003914:	3308      	adds	r3, #8
 8003916:	9307      	str	r3, [sp, #28]
 8003918:	6963      	ldr	r3, [r4, #20]
 800391a:	9a04      	ldr	r2, [sp, #16]
 800391c:	189b      	adds	r3, r3, r2
 800391e:	6163      	str	r3, [r4, #20]
 8003920:	e765      	b.n	80037ee <_svfiprintf_r+0x46>
 8003922:	4343      	muls	r3, r0
 8003924:	0035      	movs	r5, r6
 8003926:	2101      	movs	r1, #1
 8003928:	189b      	adds	r3, r3, r2
 800392a:	e7a6      	b.n	800387a <_svfiprintf_r+0xd2>
 800392c:	2301      	movs	r3, #1
 800392e:	425b      	negs	r3, r3
 8003930:	e7d0      	b.n	80038d4 <_svfiprintf_r+0x12c>
 8003932:	2300      	movs	r3, #0
 8003934:	200a      	movs	r0, #10
 8003936:	001a      	movs	r2, r3
 8003938:	3501      	adds	r5, #1
 800393a:	6063      	str	r3, [r4, #4]
 800393c:	7829      	ldrb	r1, [r5, #0]
 800393e:	1c6e      	adds	r6, r5, #1
 8003940:	3930      	subs	r1, #48	; 0x30
 8003942:	2909      	cmp	r1, #9
 8003944:	d903      	bls.n	800394e <_svfiprintf_r+0x1a6>
 8003946:	2b00      	cmp	r3, #0
 8003948:	d0c5      	beq.n	80038d6 <_svfiprintf_r+0x12e>
 800394a:	9209      	str	r2, [sp, #36]	; 0x24
 800394c:	e7c3      	b.n	80038d6 <_svfiprintf_r+0x12e>
 800394e:	4342      	muls	r2, r0
 8003950:	0035      	movs	r5, r6
 8003952:	2301      	movs	r3, #1
 8003954:	1852      	adds	r2, r2, r1
 8003956:	e7f1      	b.n	800393c <_svfiprintf_r+0x194>
 8003958:	ab07      	add	r3, sp, #28
 800395a:	9300      	str	r3, [sp, #0]
 800395c:	003a      	movs	r2, r7
 800395e:	0021      	movs	r1, r4
 8003960:	4b10      	ldr	r3, [pc, #64]	; (80039a4 <_svfiprintf_r+0x1fc>)
 8003962:	9803      	ldr	r0, [sp, #12]
 8003964:	e000      	b.n	8003968 <_svfiprintf_r+0x1c0>
 8003966:	bf00      	nop
 8003968:	9004      	str	r0, [sp, #16]
 800396a:	9b04      	ldr	r3, [sp, #16]
 800396c:	3301      	adds	r3, #1
 800396e:	d1d3      	bne.n	8003918 <_svfiprintf_r+0x170>
 8003970:	89bb      	ldrh	r3, [r7, #12]
 8003972:	980d      	ldr	r0, [sp, #52]	; 0x34
 8003974:	065b      	lsls	r3, r3, #25
 8003976:	d400      	bmi.n	800397a <_svfiprintf_r+0x1d2>
 8003978:	e72d      	b.n	80037d6 <_svfiprintf_r+0x2e>
 800397a:	2001      	movs	r0, #1
 800397c:	4240      	negs	r0, r0
 800397e:	e72a      	b.n	80037d6 <_svfiprintf_r+0x2e>
 8003980:	ab07      	add	r3, sp, #28
 8003982:	9300      	str	r3, [sp, #0]
 8003984:	003a      	movs	r2, r7
 8003986:	0021      	movs	r1, r4
 8003988:	4b06      	ldr	r3, [pc, #24]	; (80039a4 <_svfiprintf_r+0x1fc>)
 800398a:	9803      	ldr	r0, [sp, #12]
 800398c:	f000 f87c 	bl	8003a88 <_printf_i>
 8003990:	e7ea      	b.n	8003968 <_svfiprintf_r+0x1c0>
 8003992:	46c0      	nop			; (mov r8, r8)
 8003994:	08004150 	.word	0x08004150
 8003998:	08004156 	.word	0x08004156
 800399c:	0800415a 	.word	0x0800415a
 80039a0:	00000000 	.word	0x00000000
 80039a4:	080036e5 	.word	0x080036e5

080039a8 <_printf_common>:
 80039a8:	b5f7      	push	{r0, r1, r2, r4, r5, r6, r7, lr}
 80039aa:	0015      	movs	r5, r2
 80039ac:	9301      	str	r3, [sp, #4]
 80039ae:	688a      	ldr	r2, [r1, #8]
 80039b0:	690b      	ldr	r3, [r1, #16]
 80039b2:	000c      	movs	r4, r1
 80039b4:	9000      	str	r0, [sp, #0]
 80039b6:	4293      	cmp	r3, r2
 80039b8:	da00      	bge.n	80039bc <_printf_common+0x14>
 80039ba:	0013      	movs	r3, r2
 80039bc:	0022      	movs	r2, r4
 80039be:	602b      	str	r3, [r5, #0]
 80039c0:	3243      	adds	r2, #67	; 0x43
 80039c2:	7812      	ldrb	r2, [r2, #0]
 80039c4:	2a00      	cmp	r2, #0
 80039c6:	d001      	beq.n	80039cc <_printf_common+0x24>
 80039c8:	3301      	adds	r3, #1
 80039ca:	602b      	str	r3, [r5, #0]
 80039cc:	6823      	ldr	r3, [r4, #0]
 80039ce:	069b      	lsls	r3, r3, #26
 80039d0:	d502      	bpl.n	80039d8 <_printf_common+0x30>
 80039d2:	682b      	ldr	r3, [r5, #0]
 80039d4:	3302      	adds	r3, #2
 80039d6:	602b      	str	r3, [r5, #0]
 80039d8:	6822      	ldr	r2, [r4, #0]
 80039da:	2306      	movs	r3, #6
 80039dc:	0017      	movs	r7, r2
 80039de:	401f      	ands	r7, r3
 80039e0:	421a      	tst	r2, r3
 80039e2:	d027      	beq.n	8003a34 <_printf_common+0x8c>
 80039e4:	0023      	movs	r3, r4
 80039e6:	3343      	adds	r3, #67	; 0x43
 80039e8:	781b      	ldrb	r3, [r3, #0]
 80039ea:	1e5a      	subs	r2, r3, #1
 80039ec:	4193      	sbcs	r3, r2
 80039ee:	6822      	ldr	r2, [r4, #0]
 80039f0:	0692      	lsls	r2, r2, #26
 80039f2:	d430      	bmi.n	8003a56 <_printf_common+0xae>
 80039f4:	0022      	movs	r2, r4
 80039f6:	9901      	ldr	r1, [sp, #4]
 80039f8:	9800      	ldr	r0, [sp, #0]
 80039fa:	9e08      	ldr	r6, [sp, #32]
 80039fc:	3243      	adds	r2, #67	; 0x43
 80039fe:	47b0      	blx	r6
 8003a00:	1c43      	adds	r3, r0, #1
 8003a02:	d025      	beq.n	8003a50 <_printf_common+0xa8>
 8003a04:	2306      	movs	r3, #6
 8003a06:	6820      	ldr	r0, [r4, #0]
 8003a08:	682a      	ldr	r2, [r5, #0]
 8003a0a:	68e1      	ldr	r1, [r4, #12]
 8003a0c:	2500      	movs	r5, #0
 8003a0e:	4003      	ands	r3, r0
 8003a10:	2b04      	cmp	r3, #4
 8003a12:	d103      	bne.n	8003a1c <_printf_common+0x74>
 8003a14:	1a8d      	subs	r5, r1, r2
 8003a16:	43eb      	mvns	r3, r5
 8003a18:	17db      	asrs	r3, r3, #31
 8003a1a:	401d      	ands	r5, r3
 8003a1c:	68a3      	ldr	r3, [r4, #8]
 8003a1e:	6922      	ldr	r2, [r4, #16]
 8003a20:	4293      	cmp	r3, r2
 8003a22:	dd01      	ble.n	8003a28 <_printf_common+0x80>
 8003a24:	1a9b      	subs	r3, r3, r2
 8003a26:	18ed      	adds	r5, r5, r3
 8003a28:	2700      	movs	r7, #0
 8003a2a:	42bd      	cmp	r5, r7
 8003a2c:	d120      	bne.n	8003a70 <_printf_common+0xc8>
 8003a2e:	2000      	movs	r0, #0
 8003a30:	e010      	b.n	8003a54 <_printf_common+0xac>
 8003a32:	3701      	adds	r7, #1
 8003a34:	68e3      	ldr	r3, [r4, #12]
 8003a36:	682a      	ldr	r2, [r5, #0]
 8003a38:	1a9b      	subs	r3, r3, r2
 8003a3a:	42bb      	cmp	r3, r7
 8003a3c:	ddd2      	ble.n	80039e4 <_printf_common+0x3c>
 8003a3e:	0022      	movs	r2, r4
 8003a40:	2301      	movs	r3, #1
 8003a42:	9901      	ldr	r1, [sp, #4]
 8003a44:	9800      	ldr	r0, [sp, #0]
 8003a46:	9e08      	ldr	r6, [sp, #32]
 8003a48:	3219      	adds	r2, #25
 8003a4a:	47b0      	blx	r6
 8003a4c:	1c43      	adds	r3, r0, #1
 8003a4e:	d1f0      	bne.n	8003a32 <_printf_common+0x8a>
 8003a50:	2001      	movs	r0, #1
 8003a52:	4240      	negs	r0, r0
 8003a54:	bdfe      	pop	{r1, r2, r3, r4, r5, r6, r7, pc}
 8003a56:	2030      	movs	r0, #48	; 0x30
 8003a58:	18e1      	adds	r1, r4, r3
 8003a5a:	3143      	adds	r1, #67	; 0x43
 8003a5c:	7008      	strb	r0, [r1, #0]
 8003a5e:	0021      	movs	r1, r4
 8003a60:	1c5a      	adds	r2, r3, #1
 8003a62:	3145      	adds	r1, #69	; 0x45
 8003a64:	7809      	ldrb	r1, [r1, #0]
 8003a66:	18a2      	adds	r2, r4, r2
 8003a68:	3243      	adds	r2, #67	; 0x43
 8003a6a:	3302      	adds	r3, #2
 8003a6c:	7011      	strb	r1, [r2, #0]
 8003a6e:	e7c1      	b.n	80039f4 <_printf_common+0x4c>
 8003a70:	0022      	movs	r2, r4
 8003a72:	2301      	movs	r3, #1
 8003a74:	9901      	ldr	r1, [sp, #4]
 8003a76:	9800      	ldr	r0, [sp, #0]
 8003a78:	9e08      	ldr	r6, [sp, #32]
 8003a7a:	321a      	adds	r2, #26
 8003a7c:	47b0      	blx	r6
 8003a7e:	1c43      	adds	r3, r0, #1
 8003a80:	d0e6      	beq.n	8003a50 <_printf_common+0xa8>
 8003a82:	3701      	adds	r7, #1
 8003a84:	e7d1      	b.n	8003a2a <_printf_common+0x82>
	...

08003a88 <_printf_i>:
 8003a88:	b5f0      	push	{r4, r5, r6, r7, lr}
 8003a8a:	b08b      	sub	sp, #44	; 0x2c
 8003a8c:	9206      	str	r2, [sp, #24]
 8003a8e:	000a      	movs	r2, r1
 8003a90:	3243      	adds	r2, #67	; 0x43
 8003a92:	9307      	str	r3, [sp, #28]
 8003a94:	9005      	str	r0, [sp, #20]
 8003a96:	9204      	str	r2, [sp, #16]
 8003a98:	7e0a      	ldrb	r2, [r1, #24]
 8003a9a:	000c      	movs	r4, r1
 8003a9c:	9b10      	ldr	r3, [sp, #64]	; 0x40
 8003a9e:	2a78      	cmp	r2, #120	; 0x78
 8003aa0:	d807      	bhi.n	8003ab2 <_printf_i+0x2a>
 8003aa2:	2a62      	cmp	r2, #98	; 0x62
 8003aa4:	d809      	bhi.n	8003aba <_printf_i+0x32>
 8003aa6:	2a00      	cmp	r2, #0
 8003aa8:	d100      	bne.n	8003aac <_printf_i+0x24>
 8003aaa:	e0c1      	b.n	8003c30 <_printf_i+0x1a8>
 8003aac:	2a58      	cmp	r2, #88	; 0x58
 8003aae:	d100      	bne.n	8003ab2 <_printf_i+0x2a>
 8003ab0:	e08c      	b.n	8003bcc <_printf_i+0x144>
 8003ab2:	0026      	movs	r6, r4
 8003ab4:	3642      	adds	r6, #66	; 0x42
 8003ab6:	7032      	strb	r2, [r6, #0]
 8003ab8:	e022      	b.n	8003b00 <_printf_i+0x78>
 8003aba:	0010      	movs	r0, r2
 8003abc:	3863      	subs	r0, #99	; 0x63
 8003abe:	2815      	cmp	r0, #21
 8003ac0:	d8f7      	bhi.n	8003ab2 <_printf_i+0x2a>
 8003ac2:	f7fc fb1d 	bl	8000100 <__gnu_thumb1_case_shi>
 8003ac6:	0016      	.short	0x0016
 8003ac8:	fff6001f 	.word	0xfff6001f
 8003acc:	fff6fff6 	.word	0xfff6fff6
 8003ad0:	001ffff6 	.word	0x001ffff6
 8003ad4:	fff6fff6 	.word	0xfff6fff6
 8003ad8:	fff6fff6 	.word	0xfff6fff6
 8003adc:	003600a8 	.word	0x003600a8
 8003ae0:	fff6009a 	.word	0xfff6009a
 8003ae4:	00b9fff6 	.word	0x00b9fff6
 8003ae8:	0036fff6 	.word	0x0036fff6
 8003aec:	fff6fff6 	.word	0xfff6fff6
 8003af0:	009e      	.short	0x009e
 8003af2:	0026      	movs	r6, r4
 8003af4:	681a      	ldr	r2, [r3, #0]
 8003af6:	3642      	adds	r6, #66	; 0x42
 8003af8:	1d11      	adds	r1, r2, #4
 8003afa:	6019      	str	r1, [r3, #0]
 8003afc:	6813      	ldr	r3, [r2, #0]
 8003afe:	7033      	strb	r3, [r6, #0]
 8003b00:	2301      	movs	r3, #1
 8003b02:	e0a7      	b.n	8003c54 <_printf_i+0x1cc>
 8003b04:	6808      	ldr	r0, [r1, #0]
 8003b06:	6819      	ldr	r1, [r3, #0]
 8003b08:	1d0a      	adds	r2, r1, #4
 8003b0a:	0605      	lsls	r5, r0, #24
 8003b0c:	d50b      	bpl.n	8003b26 <_printf_i+0x9e>
 8003b0e:	680d      	ldr	r5, [r1, #0]
 8003b10:	601a      	str	r2, [r3, #0]
 8003b12:	2d00      	cmp	r5, #0
 8003b14:	da03      	bge.n	8003b1e <_printf_i+0x96>
 8003b16:	232d      	movs	r3, #45	; 0x2d
 8003b18:	9a04      	ldr	r2, [sp, #16]
 8003b1a:	426d      	negs	r5, r5
 8003b1c:	7013      	strb	r3, [r2, #0]
 8003b1e:	4b61      	ldr	r3, [pc, #388]	; (8003ca4 <_printf_i+0x21c>)
 8003b20:	270a      	movs	r7, #10
 8003b22:	9303      	str	r3, [sp, #12]
 8003b24:	e01b      	b.n	8003b5e <_printf_i+0xd6>
 8003b26:	680d      	ldr	r5, [r1, #0]
 8003b28:	601a      	str	r2, [r3, #0]
 8003b2a:	0641      	lsls	r1, r0, #25
 8003b2c:	d5f1      	bpl.n	8003b12 <_printf_i+0x8a>
 8003b2e:	b22d      	sxth	r5, r5
 8003b30:	e7ef      	b.n	8003b12 <_printf_i+0x8a>
 8003b32:	680d      	ldr	r5, [r1, #0]
 8003b34:	6819      	ldr	r1, [r3, #0]
 8003b36:	1d08      	adds	r0, r1, #4
 8003b38:	6018      	str	r0, [r3, #0]
 8003b3a:	062e      	lsls	r6, r5, #24
 8003b3c:	d501      	bpl.n	8003b42 <_printf_i+0xba>
 8003b3e:	680d      	ldr	r5, [r1, #0]
 8003b40:	e003      	b.n	8003b4a <_printf_i+0xc2>
 8003b42:	066d      	lsls	r5, r5, #25
 8003b44:	d5fb      	bpl.n	8003b3e <_printf_i+0xb6>
 8003b46:	680d      	ldr	r5, [r1, #0]
 8003b48:	b2ad      	uxth	r5, r5
 8003b4a:	4b56      	ldr	r3, [pc, #344]	; (8003ca4 <_printf_i+0x21c>)
 8003b4c:	2708      	movs	r7, #8
 8003b4e:	9303      	str	r3, [sp, #12]
 8003b50:	2a6f      	cmp	r2, #111	; 0x6f
 8003b52:	d000      	beq.n	8003b56 <_printf_i+0xce>
 8003b54:	3702      	adds	r7, #2
 8003b56:	0023      	movs	r3, r4
 8003b58:	2200      	movs	r2, #0
 8003b5a:	3343      	adds	r3, #67	; 0x43
 8003b5c:	701a      	strb	r2, [r3, #0]
 8003b5e:	6863      	ldr	r3, [r4, #4]
 8003b60:	60a3      	str	r3, [r4, #8]
 8003b62:	2b00      	cmp	r3, #0
 8003b64:	db03      	blt.n	8003b6e <_printf_i+0xe6>
 8003b66:	2204      	movs	r2, #4
 8003b68:	6821      	ldr	r1, [r4, #0]
 8003b6a:	4391      	bics	r1, r2
 8003b6c:	6021      	str	r1, [r4, #0]
 8003b6e:	2d00      	cmp	r5, #0
 8003b70:	d102      	bne.n	8003b78 <_printf_i+0xf0>
 8003b72:	9e04      	ldr	r6, [sp, #16]
 8003b74:	2b00      	cmp	r3, #0
 8003b76:	d00c      	beq.n	8003b92 <_printf_i+0x10a>
 8003b78:	9e04      	ldr	r6, [sp, #16]
 8003b7a:	0028      	movs	r0, r5
 8003b7c:	0039      	movs	r1, r7
 8003b7e:	f7fc fb4f 	bl	8000220 <__aeabi_uidivmod>
 8003b82:	9b03      	ldr	r3, [sp, #12]
 8003b84:	3e01      	subs	r6, #1
 8003b86:	5c5b      	ldrb	r3, [r3, r1]
 8003b88:	7033      	strb	r3, [r6, #0]
 8003b8a:	002b      	movs	r3, r5
 8003b8c:	0005      	movs	r5, r0
 8003b8e:	429f      	cmp	r7, r3
 8003b90:	d9f3      	bls.n	8003b7a <_printf_i+0xf2>
 8003b92:	2f08      	cmp	r7, #8
 8003b94:	d109      	bne.n	8003baa <_printf_i+0x122>
 8003b96:	6823      	ldr	r3, [r4, #0]
 8003b98:	07db      	lsls	r3, r3, #31
 8003b9a:	d506      	bpl.n	8003baa <_printf_i+0x122>
 8003b9c:	6863      	ldr	r3, [r4, #4]
 8003b9e:	6922      	ldr	r2, [r4, #16]
 8003ba0:	4293      	cmp	r3, r2
 8003ba2:	dc02      	bgt.n	8003baa <_printf_i+0x122>
 8003ba4:	2330      	movs	r3, #48	; 0x30
 8003ba6:	3e01      	subs	r6, #1
 8003ba8:	7033      	strb	r3, [r6, #0]
 8003baa:	9b04      	ldr	r3, [sp, #16]
 8003bac:	1b9b      	subs	r3, r3, r6
 8003bae:	6123      	str	r3, [r4, #16]
 8003bb0:	9b07      	ldr	r3, [sp, #28]
 8003bb2:	0021      	movs	r1, r4
 8003bb4:	9300      	str	r3, [sp, #0]
 8003bb6:	9805      	ldr	r0, [sp, #20]
 8003bb8:	9b06      	ldr	r3, [sp, #24]
 8003bba:	aa09      	add	r2, sp, #36	; 0x24
 8003bbc:	f7ff fef4 	bl	80039a8 <_printf_common>
 8003bc0:	1c43      	adds	r3, r0, #1
 8003bc2:	d14c      	bne.n	8003c5e <_printf_i+0x1d6>
 8003bc4:	2001      	movs	r0, #1
 8003bc6:	4240      	negs	r0, r0
 8003bc8:	b00b      	add	sp, #44	; 0x2c
 8003bca:	bdf0      	pop	{r4, r5, r6, r7, pc}
 8003bcc:	3145      	adds	r1, #69	; 0x45
 8003bce:	700a      	strb	r2, [r1, #0]
 8003bd0:	4a34      	ldr	r2, [pc, #208]	; (8003ca4 <_printf_i+0x21c>)
 8003bd2:	9203      	str	r2, [sp, #12]
 8003bd4:	681a      	ldr	r2, [r3, #0]
 8003bd6:	6821      	ldr	r1, [r4, #0]
 8003bd8:	ca20      	ldmia	r2!, {r5}
 8003bda:	601a      	str	r2, [r3, #0]
 8003bdc:	0608      	lsls	r0, r1, #24
 8003bde:	d516      	bpl.n	8003c0e <_printf_i+0x186>
 8003be0:	07cb      	lsls	r3, r1, #31
 8003be2:	d502      	bpl.n	8003bea <_printf_i+0x162>
 8003be4:	2320      	movs	r3, #32
 8003be6:	4319      	orrs	r1, r3
 8003be8:	6021      	str	r1, [r4, #0]
 8003bea:	2710      	movs	r7, #16
 8003bec:	2d00      	cmp	r5, #0
 8003bee:	d1b2      	bne.n	8003b56 <_printf_i+0xce>
 8003bf0:	2320      	movs	r3, #32
 8003bf2:	6822      	ldr	r2, [r4, #0]
 8003bf4:	439a      	bics	r2, r3
 8003bf6:	6022      	str	r2, [r4, #0]
 8003bf8:	e7ad      	b.n	8003b56 <_printf_i+0xce>
 8003bfa:	2220      	movs	r2, #32
 8003bfc:	6809      	ldr	r1, [r1, #0]
 8003bfe:	430a      	orrs	r2, r1
 8003c00:	6022      	str	r2, [r4, #0]
 8003c02:	0022      	movs	r2, r4
 8003c04:	2178      	movs	r1, #120	; 0x78
 8003c06:	3245      	adds	r2, #69	; 0x45
 8003c08:	7011      	strb	r1, [r2, #0]
 8003c0a:	4a27      	ldr	r2, [pc, #156]	; (8003ca8 <_printf_i+0x220>)
 8003c0c:	e7e1      	b.n	8003bd2 <_printf_i+0x14a>
 8003c0e:	0648      	lsls	r0, r1, #25
 8003c10:	d5e6      	bpl.n	8003be0 <_printf_i+0x158>
 8003c12:	b2ad      	uxth	r5, r5
 8003c14:	e7e4      	b.n	8003be0 <_printf_i+0x158>
 8003c16:	681a      	ldr	r2, [r3, #0]
 8003c18:	680d      	ldr	r5, [r1, #0]
 8003c1a:	1d10      	adds	r0, r2, #4
 8003c1c:	6949      	ldr	r1, [r1, #20]
 8003c1e:	6018      	str	r0, [r3, #0]
 8003c20:	6813      	ldr	r3, [r2, #0]
 8003c22:	062e      	lsls	r6, r5, #24
 8003c24:	d501      	bpl.n	8003c2a <_printf_i+0x1a2>
 8003c26:	6019      	str	r1, [r3, #0]
 8003c28:	e002      	b.n	8003c30 <_printf_i+0x1a8>
 8003c2a:	066d      	lsls	r5, r5, #25
 8003c2c:	d5fb      	bpl.n	8003c26 <_printf_i+0x19e>
 8003c2e:	8019      	strh	r1, [r3, #0]
 8003c30:	2300      	movs	r3, #0
 8003c32:	9e04      	ldr	r6, [sp, #16]
 8003c34:	6123      	str	r3, [r4, #16]
 8003c36:	e7bb      	b.n	8003bb0 <_printf_i+0x128>
 8003c38:	681a      	ldr	r2, [r3, #0]
 8003c3a:	1d11      	adds	r1, r2, #4
 8003c3c:	6019      	str	r1, [r3, #0]
 8003c3e:	6816      	ldr	r6, [r2, #0]
 8003c40:	2100      	movs	r1, #0
 8003c42:	0030      	movs	r0, r6
 8003c44:	6862      	ldr	r2, [r4, #4]
 8003c46:	f000 f831 	bl	8003cac <memchr>
 8003c4a:	2800      	cmp	r0, #0
 8003c4c:	d001      	beq.n	8003c52 <_printf_i+0x1ca>
 8003c4e:	1b80      	subs	r0, r0, r6
 8003c50:	6060      	str	r0, [r4, #4]
 8003c52:	6863      	ldr	r3, [r4, #4]
 8003c54:	6123      	str	r3, [r4, #16]
 8003c56:	2300      	movs	r3, #0
 8003c58:	9a04      	ldr	r2, [sp, #16]
 8003c5a:	7013      	strb	r3, [r2, #0]
 8003c5c:	e7a8      	b.n	8003bb0 <_printf_i+0x128>
 8003c5e:	6923      	ldr	r3, [r4, #16]
 8003c60:	0032      	movs	r2, r6
 8003c62:	9906      	ldr	r1, [sp, #24]
 8003c64:	9805      	ldr	r0, [sp, #20]
 8003c66:	9d07      	ldr	r5, [sp, #28]
 8003c68:	47a8      	blx	r5
 8003c6a:	1c43      	adds	r3, r0, #1
 8003c6c:	d0aa      	beq.n	8003bc4 <_printf_i+0x13c>
 8003c6e:	6823      	ldr	r3, [r4, #0]
 8003c70:	079b      	lsls	r3, r3, #30
 8003c72:	d415      	bmi.n	8003ca0 <_printf_i+0x218>
 8003c74:	9b09      	ldr	r3, [sp, #36]	; 0x24
 8003c76:	68e0      	ldr	r0, [r4, #12]
 8003c78:	4298      	cmp	r0, r3
 8003c7a:	daa5      	bge.n	8003bc8 <_printf_i+0x140>
 8003c7c:	0018      	movs	r0, r3
 8003c7e:	e7a3      	b.n	8003bc8 <_printf_i+0x140>
 8003c80:	0022      	movs	r2, r4
 8003c82:	2301      	movs	r3, #1
 8003c84:	9906      	ldr	r1, [sp, #24]
 8003c86:	9805      	ldr	r0, [sp, #20]
 8003c88:	9e07      	ldr	r6, [sp, #28]
 8003c8a:	3219      	adds	r2, #25
 8003c8c:	47b0      	blx	r6
 8003c8e:	1c43      	adds	r3, r0, #1
 8003c90:	d098      	beq.n	8003bc4 <_printf_i+0x13c>
 8003c92:	3501      	adds	r5, #1
 8003c94:	68e3      	ldr	r3, [r4, #12]
 8003c96:	9a09      	ldr	r2, [sp, #36]	; 0x24
 8003c98:	1a9b      	subs	r3, r3, r2
 8003c9a:	42ab      	cmp	r3, r5
 8003c9c:	dcf0      	bgt.n	8003c80 <_printf_i+0x1f8>
 8003c9e:	e7e9      	b.n	8003c74 <_printf_i+0x1ec>
 8003ca0:	2500      	movs	r5, #0
 8003ca2:	e7f7      	b.n	8003c94 <_printf_i+0x20c>
 8003ca4:	08004161 	.word	0x08004161
 8003ca8:	08004172 	.word	0x08004172

08003cac <memchr>:
 8003cac:	b2c9      	uxtb	r1, r1
 8003cae:	1882      	adds	r2, r0, r2
 8003cb0:	4290      	cmp	r0, r2
 8003cb2:	d101      	bne.n	8003cb8 <memchr+0xc>
 8003cb4:	2000      	movs	r0, #0
 8003cb6:	4770      	bx	lr
 8003cb8:	7803      	ldrb	r3, [r0, #0]
 8003cba:	428b      	cmp	r3, r1
 8003cbc:	d0fb      	beq.n	8003cb6 <memchr+0xa>
 8003cbe:	3001      	adds	r0, #1
 8003cc0:	e7f6      	b.n	8003cb0 <memchr+0x4>

08003cc2 <memcpy>:
 8003cc2:	2300      	movs	r3, #0
 8003cc4:	b510      	push	{r4, lr}
 8003cc6:	429a      	cmp	r2, r3
 8003cc8:	d100      	bne.n	8003ccc <memcpy+0xa>
 8003cca:	bd10      	pop	{r4, pc}
 8003ccc:	5ccc      	ldrb	r4, [r1, r3]
 8003cce:	54c4      	strb	r4, [r0, r3]
 8003cd0:	3301      	adds	r3, #1
 8003cd2:	e7f8      	b.n	8003cc6 <memcpy+0x4>

08003cd4 <memmove>:
 8003cd4:	b510      	push	{r4, lr}
 8003cd6:	4288      	cmp	r0, r1
 8003cd8:	d902      	bls.n	8003ce0 <memmove+0xc>
 8003cda:	188b      	adds	r3, r1, r2
 8003cdc:	4298      	cmp	r0, r3
 8003cde:	d303      	bcc.n	8003ce8 <memmove+0x14>
 8003ce0:	2300      	movs	r3, #0
 8003ce2:	e007      	b.n	8003cf4 <memmove+0x20>
 8003ce4:	5c8b      	ldrb	r3, [r1, r2]
 8003ce6:	5483      	strb	r3, [r0, r2]
 8003ce8:	3a01      	subs	r2, #1
 8003cea:	d2fb      	bcs.n	8003ce4 <memmove+0x10>
 8003cec:	bd10      	pop	{r4, pc}
 8003cee:	5ccc      	ldrb	r4, [r1, r3]
 8003cf0:	54c4      	strb	r4, [r0, r3]
 8003cf2:	3301      	adds	r3, #1
 8003cf4:	429a      	cmp	r2, r3
 8003cf6:	d1fa      	bne.n	8003cee <memmove+0x1a>
 8003cf8:	e7f8      	b.n	8003cec <memmove+0x18>
	...

08003cfc <_free_r>:
 8003cfc:	b570      	push	{r4, r5, r6, lr}
 8003cfe:	0005      	movs	r5, r0
 8003d00:	2900      	cmp	r1, #0
 8003d02:	d010      	beq.n	8003d26 <_free_r+0x2a>
 8003d04:	1f0c      	subs	r4, r1, #4
 8003d06:	6823      	ldr	r3, [r4, #0]
 8003d08:	2b00      	cmp	r3, #0
 8003d0a:	da00      	bge.n	8003d0e <_free_r+0x12>
 8003d0c:	18e4      	adds	r4, r4, r3
 8003d0e:	0028      	movs	r0, r5
 8003d10:	f000 f918 	bl	8003f44 <__malloc_lock>
 8003d14:	4a1d      	ldr	r2, [pc, #116]	; (8003d8c <_free_r+0x90>)
 8003d16:	6813      	ldr	r3, [r2, #0]
 8003d18:	2b00      	cmp	r3, #0
 8003d1a:	d105      	bne.n	8003d28 <_free_r+0x2c>
 8003d1c:	6063      	str	r3, [r4, #4]
 8003d1e:	6014      	str	r4, [r2, #0]
 8003d20:	0028      	movs	r0, r5
 8003d22:	f000 f917 	bl	8003f54 <__malloc_unlock>
 8003d26:	bd70      	pop	{r4, r5, r6, pc}
 8003d28:	42a3      	cmp	r3, r4
 8003d2a:	d908      	bls.n	8003d3e <_free_r+0x42>
 8003d2c:	6821      	ldr	r1, [r4, #0]
 8003d2e:	1860      	adds	r0, r4, r1
 8003d30:	4283      	cmp	r3, r0
 8003d32:	d1f3      	bne.n	8003d1c <_free_r+0x20>
 8003d34:	6818      	ldr	r0, [r3, #0]
 8003d36:	685b      	ldr	r3, [r3, #4]
 8003d38:	1841      	adds	r1, r0, r1
 8003d3a:	6021      	str	r1, [r4, #0]
 8003d3c:	e7ee      	b.n	8003d1c <_free_r+0x20>
 8003d3e:	001a      	movs	r2, r3
 8003d40:	685b      	ldr	r3, [r3, #4]
 8003d42:	2b00      	cmp	r3, #0
 8003d44:	d001      	beq.n	8003d4a <_free_r+0x4e>
 8003d46:	42a3      	cmp	r3, r4
 8003d48:	d9f9      	bls.n	8003d3e <_free_r+0x42>
 8003d4a:	6811      	ldr	r1, [r2, #0]
 8003d4c:	1850      	adds	r0, r2, r1
 8003d4e:	42a0      	cmp	r0, r4
 8003d50:	d10b      	bne.n	8003d6a <_free_r+0x6e>
 8003d52:	6820      	ldr	r0, [r4, #0]
 8003d54:	1809      	adds	r1, r1, r0
 8003d56:	1850      	adds	r0, r2, r1
 8003d58:	6011      	str	r1, [r2, #0]
 8003d5a:	4283      	cmp	r3, r0
 8003d5c:	d1e0      	bne.n	8003d20 <_free_r+0x24>
 8003d5e:	6818      	ldr	r0, [r3, #0]
 8003d60:	685b      	ldr	r3, [r3, #4]
 8003d62:	1841      	adds	r1, r0, r1
 8003d64:	6011      	str	r1, [r2, #0]
 8003d66:	6053      	str	r3, [r2, #4]
 8003d68:	e7da      	b.n	8003d20 <_free_r+0x24>
 8003d6a:	42a0      	cmp	r0, r4
 8003d6c:	d902      	bls.n	8003d74 <_free_r+0x78>
 8003d6e:	230c      	movs	r3, #12
 8003d70:	602b      	str	r3, [r5, #0]
 8003d72:	e7d5      	b.n	8003d20 <_free_r+0x24>
 8003d74:	6821      	ldr	r1, [r4, #0]
 8003d76:	1860      	adds	r0, r4, r1
 8003d78:	4283      	cmp	r3, r0
 8003d7a:	d103      	bne.n	8003d84 <_free_r+0x88>
 8003d7c:	6818      	ldr	r0, [r3, #0]
 8003d7e:	685b      	ldr	r3, [r3, #4]
 8003d80:	1841      	adds	r1, r0, r1
 8003d82:	6021      	str	r1, [r4, #0]
 8003d84:	6063      	str	r3, [r4, #4]
 8003d86:	6054      	str	r4, [r2, #4]
 8003d88:	e7ca      	b.n	8003d20 <_free_r+0x24>
 8003d8a:	46c0      	nop			; (mov r8, r8)
 8003d8c:	20000350 	.word	0x20000350

08003d90 <sbrk_aligned>:
 8003d90:	b570      	push	{r4, r5, r6, lr}
 8003d92:	4e0f      	ldr	r6, [pc, #60]	; (8003dd0 <sbrk_aligned+0x40>)
 8003d94:	000d      	movs	r5, r1
 8003d96:	6831      	ldr	r1, [r6, #0]
 8003d98:	0004      	movs	r4, r0
 8003d9a:	2900      	cmp	r1, #0
 8003d9c:	d102      	bne.n	8003da4 <sbrk_aligned+0x14>
 8003d9e:	f000 f8bf 	bl	8003f20 <_sbrk_r>
 8003da2:	6030      	str	r0, [r6, #0]
 8003da4:	0029      	movs	r1, r5
 8003da6:	0020      	movs	r0, r4
 8003da8:	f000 f8ba 	bl	8003f20 <_sbrk_r>
 8003dac:	1c43      	adds	r3, r0, #1
 8003dae:	d00a      	beq.n	8003dc6 <sbrk_aligned+0x36>
 8003db0:	2303      	movs	r3, #3
 8003db2:	1cc5      	adds	r5, r0, #3
 8003db4:	439d      	bics	r5, r3
 8003db6:	42a8      	cmp	r0, r5
 8003db8:	d007      	beq.n	8003dca <sbrk_aligned+0x3a>
 8003dba:	1a29      	subs	r1, r5, r0
 8003dbc:	0020      	movs	r0, r4
 8003dbe:	f000 f8af 	bl	8003f20 <_sbrk_r>
 8003dc2:	1c43      	adds	r3, r0, #1
 8003dc4:	d101      	bne.n	8003dca <sbrk_aligned+0x3a>
 8003dc6:	2501      	movs	r5, #1
 8003dc8:	426d      	negs	r5, r5
 8003dca:	0028      	movs	r0, r5
 8003dcc:	bd70      	pop	{r4, r5, r6, pc}
 8003dce:	46c0      	nop			; (mov r8, r8)
 8003dd0:	20000354 	.word	0x20000354

08003dd4 <_malloc_r>:
 8003dd4:	b5f7      	push	{r0, r1, r2, r4, r5, r6, r7, lr}
 8003dd6:	2203      	movs	r2, #3
 8003dd8:	1ccb      	adds	r3, r1, #3
 8003dda:	4393      	bics	r3, r2
 8003ddc:	3308      	adds	r3, #8
 8003dde:	0006      	movs	r6, r0
 8003de0:	001f      	movs	r7, r3
 8003de2:	2b0c      	cmp	r3, #12
 8003de4:	d232      	bcs.n	8003e4c <_malloc_r+0x78>
 8003de6:	270c      	movs	r7, #12
 8003de8:	42b9      	cmp	r1, r7
 8003dea:	d831      	bhi.n	8003e50 <_malloc_r+0x7c>
 8003dec:	0030      	movs	r0, r6
 8003dee:	f000 f8a9 	bl	8003f44 <__malloc_lock>
 8003df2:	4d32      	ldr	r5, [pc, #200]	; (8003ebc <_malloc_r+0xe8>)
 8003df4:	682b      	ldr	r3, [r5, #0]
 8003df6:	001c      	movs	r4, r3
 8003df8:	2c00      	cmp	r4, #0
 8003dfa:	d12e      	bne.n	8003e5a <_malloc_r+0x86>
 8003dfc:	0039      	movs	r1, r7
 8003dfe:	0030      	movs	r0, r6
 8003e00:	f7ff ffc6 	bl	8003d90 <sbrk_aligned>
 8003e04:	0004      	movs	r4, r0
 8003e06:	1c43      	adds	r3, r0, #1
 8003e08:	d11e      	bne.n	8003e48 <_malloc_r+0x74>
 8003e0a:	682c      	ldr	r4, [r5, #0]
 8003e0c:	0025      	movs	r5, r4
 8003e0e:	2d00      	cmp	r5, #0
 8003e10:	d14a      	bne.n	8003ea8 <_malloc_r+0xd4>
 8003e12:	6823      	ldr	r3, [r4, #0]
 8003e14:	0029      	movs	r1, r5
 8003e16:	18e3      	adds	r3, r4, r3
 8003e18:	0030      	movs	r0, r6
 8003e1a:	9301      	str	r3, [sp, #4]
 8003e1c:	f000 f880 	bl	8003f20 <_sbrk_r>
 8003e20:	9b01      	ldr	r3, [sp, #4]
 8003e22:	4283      	cmp	r3, r0
 8003e24:	d143      	bne.n	8003eae <_malloc_r+0xda>
 8003e26:	6823      	ldr	r3, [r4, #0]
 8003e28:	3703      	adds	r7, #3
 8003e2a:	1aff      	subs	r7, r7, r3
 8003e2c:	2303      	movs	r3, #3
 8003e2e:	439f      	bics	r7, r3
 8003e30:	3708      	adds	r7, #8
 8003e32:	2f0c      	cmp	r7, #12
 8003e34:	d200      	bcs.n	8003e38 <_malloc_r+0x64>
 8003e36:	270c      	movs	r7, #12
 8003e38:	0039      	movs	r1, r7
 8003e3a:	0030      	movs	r0, r6
 8003e3c:	f7ff ffa8 	bl	8003d90 <sbrk_aligned>
 8003e40:	1c43      	adds	r3, r0, #1
 8003e42:	d034      	beq.n	8003eae <_malloc_r+0xda>
 8003e44:	6823      	ldr	r3, [r4, #0]
 8003e46:	19df      	adds	r7, r3, r7
 8003e48:	6027      	str	r7, [r4, #0]
 8003e4a:	e013      	b.n	8003e74 <_malloc_r+0xa0>
 8003e4c:	2b00      	cmp	r3, #0
 8003e4e:	dacb      	bge.n	8003de8 <_malloc_r+0x14>
 8003e50:	230c      	movs	r3, #12
 8003e52:	2500      	movs	r5, #0
 8003e54:	6033      	str	r3, [r6, #0]
 8003e56:	0028      	movs	r0, r5
 8003e58:	bdfe      	pop	{r1, r2, r3, r4, r5, r6, r7, pc}
 8003e5a:	6822      	ldr	r2, [r4, #0]
 8003e5c:	1bd1      	subs	r1, r2, r7
 8003e5e:	d420      	bmi.n	8003ea2 <_malloc_r+0xce>
 8003e60:	290b      	cmp	r1, #11
 8003e62:	d917      	bls.n	8003e94 <_malloc_r+0xc0>
 8003e64:	19e2      	adds	r2, r4, r7
 8003e66:	6027      	str	r7, [r4, #0]
 8003e68:	42a3      	cmp	r3, r4
 8003e6a:	d111      	bne.n	8003e90 <_malloc_r+0xbc>
 8003e6c:	602a      	str	r2, [r5, #0]
 8003e6e:	6863      	ldr	r3, [r4, #4]
 8003e70:	6011      	str	r1, [r2, #0]
 8003e72:	6053      	str	r3, [r2, #4]
 8003e74:	0030      	movs	r0, r6
 8003e76:	0025      	movs	r5, r4
 8003e78:	f000 f86c 	bl	8003f54 <__malloc_unlock>
 8003e7c:	2207      	movs	r2, #7
 8003e7e:	350b      	adds	r5, #11
 8003e80:	1d23      	adds	r3, r4, #4
 8003e82:	4395      	bics	r5, r2
 8003e84:	1aea      	subs	r2, r5, r3
 8003e86:	429d      	cmp	r5, r3
 8003e88:	d0e5      	beq.n	8003e56 <_malloc_r+0x82>
 8003e8a:	1b5b      	subs	r3, r3, r5
 8003e8c:	50a3      	str	r3, [r4, r2]
 8003e8e:	e7e2      	b.n	8003e56 <_malloc_r+0x82>
 8003e90:	605a      	str	r2, [r3, #4]
 8003e92:	e7ec      	b.n	8003e6e <_malloc_r+0x9a>
 8003e94:	6862      	ldr	r2, [r4, #4]
 8003e96:	42a3      	cmp	r3, r4
 8003e98:	d101      	bne.n	8003e9e <_malloc_r+0xca>
 8003e9a:	602a      	str	r2, [r5, #0]
 8003e9c:	e7ea      	b.n	8003e74 <_malloc_r+0xa0>
 8003e9e:	605a      	str	r2, [r3, #4]
 8003ea0:	e7e8      	b.n	8003e74 <_malloc_r+0xa0>
 8003ea2:	0023      	movs	r3, r4
 8003ea4:	6864      	ldr	r4, [r4, #4]
 8003ea6:	e7a7      	b.n	8003df8 <_malloc_r+0x24>
 8003ea8:	002c      	movs	r4, r5
 8003eaa:	686d      	ldr	r5, [r5, #4]
 8003eac:	e7af      	b.n	8003e0e <_malloc_r+0x3a>
 8003eae:	230c      	movs	r3, #12
 8003eb0:	0030      	movs	r0, r6
 8003eb2:	6033      	str	r3, [r6, #0]
 8003eb4:	f000 f84e 	bl	8003f54 <__malloc_unlock>
 8003eb8:	e7cd      	b.n	8003e56 <_malloc_r+0x82>
 8003eba:	46c0      	nop			; (mov r8, r8)
 8003ebc:	20000350 	.word	0x20000350

08003ec0 <_realloc_r>:
 8003ec0:	b5f7      	push	{r0, r1, r2, r4, r5, r6, r7, lr}
 8003ec2:	0007      	movs	r7, r0
 8003ec4:	000e      	movs	r6, r1
 8003ec6:	0014      	movs	r4, r2
 8003ec8:	2900      	cmp	r1, #0
 8003eca:	d105      	bne.n	8003ed8 <_realloc_r+0x18>
 8003ecc:	0011      	movs	r1, r2
 8003ece:	f7ff ff81 	bl	8003dd4 <_malloc_r>
 8003ed2:	0005      	movs	r5, r0
 8003ed4:	0028      	movs	r0, r5
 8003ed6:	bdfe      	pop	{r1, r2, r3, r4, r5, r6, r7, pc}
 8003ed8:	2a00      	cmp	r2, #0
 8003eda:	d103      	bne.n	8003ee4 <_realloc_r+0x24>
 8003edc:	f7ff ff0e 	bl	8003cfc <_free_r>
 8003ee0:	0025      	movs	r5, r4
 8003ee2:	e7f7      	b.n	8003ed4 <_realloc_r+0x14>
 8003ee4:	f000 f83e 	bl	8003f64 <_malloc_usable_size_r>
 8003ee8:	9001      	str	r0, [sp, #4]
 8003eea:	4284      	cmp	r4, r0
 8003eec:	d803      	bhi.n	8003ef6 <_realloc_r+0x36>
 8003eee:	0035      	movs	r5, r6
 8003ef0:	0843      	lsrs	r3, r0, #1
 8003ef2:	42a3      	cmp	r3, r4
 8003ef4:	d3ee      	bcc.n	8003ed4 <_realloc_r+0x14>
 8003ef6:	0021      	movs	r1, r4
 8003ef8:	0038      	movs	r0, r7
 8003efa:	f7ff ff6b 	bl	8003dd4 <_malloc_r>
 8003efe:	1e05      	subs	r5, r0, #0
 8003f00:	d0e8      	beq.n	8003ed4 <_realloc_r+0x14>
 8003f02:	9b01      	ldr	r3, [sp, #4]
 8003f04:	0022      	movs	r2, r4
 8003f06:	429c      	cmp	r4, r3
 8003f08:	d900      	bls.n	8003f0c <_realloc_r+0x4c>
 8003f0a:	001a      	movs	r2, r3
 8003f0c:	0031      	movs	r1, r6
 8003f0e:	0028      	movs	r0, r5
 8003f10:	f7ff fed7 	bl	8003cc2 <memcpy>
 8003f14:	0031      	movs	r1, r6
 8003f16:	0038      	movs	r0, r7
 8003f18:	f7ff fef0 	bl	8003cfc <_free_r>
 8003f1c:	e7da      	b.n	8003ed4 <_realloc_r+0x14>
	...

08003f20 <_sbrk_r>:
 8003f20:	2300      	movs	r3, #0
 8003f22:	b570      	push	{r4, r5, r6, lr}
 8003f24:	4d06      	ldr	r5, [pc, #24]	; (8003f40 <_sbrk_r+0x20>)
 8003f26:	0004      	movs	r4, r0
 8003f28:	0008      	movs	r0, r1
 8003f2a:	602b      	str	r3, [r5, #0]
 8003f2c:	f7fc fec6 	bl	8000cbc <_sbrk>
 8003f30:	1c43      	adds	r3, r0, #1
 8003f32:	d103      	bne.n	8003f3c <_sbrk_r+0x1c>
 8003f34:	682b      	ldr	r3, [r5, #0]
 8003f36:	2b00      	cmp	r3, #0
 8003f38:	d000      	beq.n	8003f3c <_sbrk_r+0x1c>
 8003f3a:	6023      	str	r3, [r4, #0]
 8003f3c:	bd70      	pop	{r4, r5, r6, pc}
 8003f3e:	46c0      	nop			; (mov r8, r8)
 8003f40:	20000358 	.word	0x20000358

08003f44 <__malloc_lock>:
 8003f44:	b510      	push	{r4, lr}
 8003f46:	4802      	ldr	r0, [pc, #8]	; (8003f50 <__malloc_lock+0xc>)
 8003f48:	f000 f814 	bl	8003f74 <__retarget_lock_acquire_recursive>
 8003f4c:	bd10      	pop	{r4, pc}
 8003f4e:	46c0      	nop			; (mov r8, r8)
 8003f50:	2000035c 	.word	0x2000035c

08003f54 <__malloc_unlock>:
 8003f54:	b510      	push	{r4, lr}
 8003f56:	4802      	ldr	r0, [pc, #8]	; (8003f60 <__malloc_unlock+0xc>)
 8003f58:	f000 f80d 	bl	8003f76 <__retarget_lock_release_recursive>
 8003f5c:	bd10      	pop	{r4, pc}
 8003f5e:	46c0      	nop			; (mov r8, r8)
 8003f60:	2000035c 	.word	0x2000035c

08003f64 <_malloc_usable_size_r>:
 8003f64:	1f0b      	subs	r3, r1, #4
 8003f66:	681b      	ldr	r3, [r3, #0]
 8003f68:	1f18      	subs	r0, r3, #4
 8003f6a:	2b00      	cmp	r3, #0
 8003f6c:	da01      	bge.n	8003f72 <_malloc_usable_size_r+0xe>
 8003f6e:	580b      	ldr	r3, [r1, r0]
 8003f70:	18c0      	adds	r0, r0, r3
 8003f72:	4770      	bx	lr

08003f74 <__retarget_lock_acquire_recursive>:
 8003f74:	4770      	bx	lr

08003f76 <__retarget_lock_release_recursive>:
 8003f76:	4770      	bx	lr

08003f78 <_init>:
 8003f78:	b5f8      	push	{r3, r4, r5, r6, r7, lr}
 8003f7a:	46c0      	nop			; (mov r8, r8)
 8003f7c:	bcf8      	pop	{r3, r4, r5, r6, r7}
 8003f7e:	bc08      	pop	{r3}
 8003f80:	469e      	mov	lr, r3
 8003f82:	4770      	bx	lr

08003f84 <_fini>:
 8003f84:	b5f8      	push	{r3, r4, r5, r6, r7, lr}
 8003f86:	46c0      	nop			; (mov r8, r8)
 8003f88:	bcf8      	pop	{r3, r4, r5, r6, r7}
 8003f8a:	bc08      	pop	{r3}
 8003f8c:	469e      	mov	lr, r3
 8003f8e:	4770      	bx	lr
